 basicApp

 Timestamp is 4e547d1c (Wed Aug 24 12:25:00 2011)

 Preferred load address is 00400000

 Start         Length     Name                   Class
 0001:00000000 000cde66H .text                   CODE
 0001:000cde70 000074a3H .text$x                 CODE
 0001:000d5320 00000a6bH .text$yc                CODE
 0001:000d5d90 000001faH .text$yd                CODE
 0002:00000000 00000508H .idata$5                DATA
 0002:00000508 00000004H .CRT$XCA                DATA
 0002:0000050c 0000000cH .CRT$XCC                DATA
 0002:00000518 00000380H .CRT$XCU                DATA
 0002:00000898 00000004H .CRT$XCZ                DATA
 0002:0000089c 00000004H .CRT$XIA                DATA
 0002:000008a0 00000014H .CRT$XIC                DATA
 0002:000008b4 00000004H .CRT$XID                DATA
 0002:000008b8 00000004H .CRT$XIU                DATA
 0002:000008bc 00000004H .CRT$XIY                DATA
 0002:000008c0 00000004H .CRT$XIZ                DATA
 0002:000008c4 00000004H .CRT$XLA                DATA
 0002:000008c8 00000004H .CRT$XLC                DATA
 0002:000008cc 00000004H .CRT$XLZ                DATA
 0002:000008d0 00000004H .CRT$XPA                DATA
 0002:000008d4 00000004H .CRT$XPX                DATA
 0002:000008d8 00000004H .CRT$XPXA               DATA
 0002:000008dc 00000004H .CRT$XPZ                DATA
 0002:000008e0 00000004H .CRT$XTA                DATA
 0002:000008e4 00000004H .CRT$XTU                DATA
 0002:000008e8 00000004H .CRT$XTZ                DATA
 0002:000008f0 0000d0b8H .rdata                  DATA
 0002:0000d9a8 00000018H .rdata$T                DATA
 0002:0000d9c0 00004734H .rdata$r                DATA
 0002:00012100 0000088cH .rdata$sxdata           DATA
 0002:0001298c 00000004H .rtc$IAA                DATA
 0002:00012990 00000004H .rtc$IZZ                DATA
 0002:00012994 00000004H .rtc$TAA                DATA
 0002:00012998 00000004H .rtc$TZZ                DATA
 0002:000129a0 00009ef4H .xdata$x                DATA
 0002:0001c894 00000104H .idata$2                DATA
 0002:0001c998 00000014H .idata$3                DATA
 0002:0001c9ac 00000508H .idata$4                DATA
 0002:0001ceb4 000016c8H .idata$6                DATA
 0002:0001e57c 00000000H .edata                  DATA
 0003:00000000 00014ff0H .data                   DATA
 0003:00015000 00002f7cH .bss                    DATA
 0004:00000000 00000001H .tls                    DATA
 0004:00000001 00000001H .tls$ZZZ                DATA

  Address         Publics by Value              Rva+Base       Lib:Object

 0000:00000000       __except_list              00000000     <absolute>
 0000:00000223       ___safe_se_handler_count   00000223     <absolute>
 0000:00000000       ___ImageBase               00400000     <linker-defined>
 0001:00000000       ?assign@?$char_traits@D@std@@SAXAADABD@Z 00401000 f i basicApp.obj
 0001:00000010       ?length@?$char_traits@D@std@@SAIPBD@Z 00401010 f i basicApp.obj
 0001:00000030       ?_Copy_s@?$char_traits@D@std@@SAPADPADIPBDI@Z 00401030 f i basicApp.obj
 0001:00000050       ?_Move_s@?$char_traits@D@std@@SAPADPADIPBDI@Z 00401050 f i basicApp.obj
 0001:00000070       ??0bad_alloc@std@@QAE@PBD@Z 00401070 f i basicApp.obj
 0001:000000a0       ??1bad_alloc@std@@UAE@XZ   004010a0 f i basicApp.obj
 0001:000000c0       ??_Ebad_alloc@std@@UAEPAXI@Z 004010c0 f i  CIL library: CIL module
 0001:000000c0       ??_Gbad_alloc@std@@UAEPAXI@Z 004010c0 f i basicApp.obj
 0001:000000f0       ?_Set_container@_Iterator_base_aux@std@@QAEXQBV_Container_base_aux@2@@Z 004010f0 f i basicApp.obj
 0001:00000110       ?_Getmycont@_Iterator_base_aux@std@@QBEPBV_Container_base_aux@2@XZ 00401110 f i basicApp.obj
 0001:00000140       ??2@YAPAXIPAX@Z            00401140 f i basicApp.obj
 0001:00000150       ??$_Destroy@PAU_Node@?$_Tree_nod@V?$_Tmap_traits@KV?$Vec2@M@cinder@@U?$less@K@std@@V?$allocator@U?$pair@$$CBKV?$Vec2@M@cinder@@@std@@@4@$0A@@std@@@std@@@std@@YAXPAPAU_Node@?$_Tree_nod@V?$_Tmap_traits@KV?$Vec2@M@cinder@@U?$less@K@std@@V?$allocator@U?$pair@$$CBKV?$Vec2@M@cinder@@@std@@@4@$0A@@std@@@0@@Z 00401150 f i cinder:AppImplMswBasic.obj
 0001:00000150       ??$plus_equal@V?$basic_string@DU?$char_traits@D@std@@V?$allocator@D@2@@std@@D@?$assign_or_plus_equal@Urandom_access_iterator_tag@std@@@tokenizer_detail@boost@@SAXAAV?$basic_string@DU?$char_traits@D@std@@V?$allocator@D@2@@std@@ABD@Z 00401150 f i cinder:Utilities.obj
 0001:00000150       ??$_Destroy_range@V?$allocator@D@std@@@std@@YAXPAD0AAV?$allocator@D@0@U_Scalar_ptr_iterator_tag@0@@Z 00401150 f i cinder:Utilities.obj
 0001:00000150       ??$_Destroy@PAU_Node@?$_Tree_nod@V?$_Tmap_traits@V?$basic_string@DU?$char_traits@D@std@@V?$allocator@D@2@@std@@V?$multimap@JU?$pair@P6A?AV?$shared_ptr@VImageTarget@cinder@@@boost@@V?$shared_ptr@VDataTarget@cinder@@@2@V?$shared_ptr@VImageSource@cinder@@@2@VOptions@ImageTarget@cinder@@ABV?$basic_string@DU?$char_traits@D@std@@V?$allocator@D@2@@std@@@ZV89@@std@@U?$less@J@2@V?$allocator@U?$pair@$$CBJU?$pair@P6A?AV?$shared_ptr@VImageTarget@cinder@@@boost@@V?$shared_ptr@VDataTarget@cinder@@@2@V?$shared_ptr@VImageSource@cinder@@@2@VOptions@ImageTarget@cinder@@ABV?$basic_string@DU?$char_traits@D@std@@V?$allocator@D@2@@std@@@ZV89@@std@@@std@@@2@@2@U?$less@V?$basic_string@DU?$char_traits@D@std@@V?$allocator@D@2@@std@@@2@V?$allocator@U?$pair@$$CBV?$basic_string@DU?$char_traits@D@std@@V?$allocator@D@2@@std@@V?$multimap@JU?$pair@P6A?AV?$shared_ptr@VImageTarget@cinder@@@boost@@V?$shared_ptr@VDataTarget@cinder@@@2@V?$shared_ptr@VImageSource@cinder@@@2@VOptions@ImageTarget@cinder@@ABV?$basic_string@DU?$char_traits@D@std@@V?$allocator@D@2@@std@@@ZV89@@std@@U?$less@J@2@V?$allocator@U?$pair@$$CBJU?$pair@P6A?AV?$shared_ptr@VImageTarget@cinder@@@boost@@V?$shared_ptr@VDataTarget@cinder@@@2@V?$shared_ptr@VImageSource@cinder@@@2@VOptions@ImageTarget@cinder@@ABV?$basic_string@DU?$char_traits@D@std@@V?$allocator@D@2@@std@@@ZV89@@std@@@std@@@2@@2@@std@@@2@$0A@@std@@@std@@@std@@YAXPAPAU_Node@?$_Tree_nod@V?$_Tmap_traits@V?$basic_string@DU?$char_traits@D@std@@V?$allocator@D@2@@std@@V?$multimap@JU?$pair@P6A?AV?$shared_ptr@VImageTarget@cinder@@@boost@@V?$shared_ptr@VDataTarget@cinder@@@2@V?$shared_ptr@VImageSource@cinder@@@2@VOptions@ImageTarget@cinder@@ABV?$basic_string@DU?$char_traits@D@std@@V?$allocator@D@2@@std@@@ZV89@@std@@U?$less@J@2@V?$allocator@U?$pair@$$CBJU?$pair@P6A?AV?$shared_ptr@VImageTarget@cinder@@@boost@@V?$shared_ptr@VDataTarget@cinder@@@2@V?$shared_ptr@VImageSource@cinder@@@2@VOptions@ImageTarget@cinder@@ABV?$basic_string@DU?$char_traits@D@std@@V?$allocator@D@2@@std@@@ZV89@@std@@@std@@@2@@2@U?$less@V?$basic_string@DU?$char_traits@D@std@@V?$allocator@D@2@@std@@@2@V?$allocator@U?$pair@$$CBV?$basic_string@DU?$char_traits@D@std@@V?$allocator@D@2@@std@@V?$multimap@JU?$pair@P6A?AV?$shared_ptr@VImageTarget@cinder@@@boost@@V?$shared_ptr@VDataTarget@cinder@@@2@V?$shared_ptr@VImageSource@cinder@@@2@VOptions@ImageTarget@cinder@@ABV?$basic_string@DU?$char_traits@D@std@@V?$allocator@D@2@@std@@@ZV89@@std@@U?$less@J@2@V?$allocator@U?$pair@$$CBJU?$pair@P6A?AV?$shared_ptr@VImageTarget@cinder@@@boost@@V?$shared_ptr@VDataTarget@cinder@@@2@V?$shared_ptr@VImageSource@cinder@@@2@VOptions@ImageTarget@cinder@@ABV?$basic_string@DU?$char_traits@D@std@@V?$allocator@D@2@@std@@@ZV89@@std@@@std@@@2@@2@@std@@@2@$0A@@std@@@0@@Z 00401150 f i cinder:ImageIo.obj
 0001:00000150       ??3@YAXPAX0@Z              00401150 f i basicApp.obj
 0001:00000150       ??$clear@V?$basic_string@DU?$char_traits@D@std@@V?$allocator@D@2@@std@@@?$assign_or_plus_equal@Urandom_access_iterator_tag@std@@@tokenizer_detail@boost@@SAXAAV?$basic_string@DU?$char_traits@D@std@@V?$allocator@D@2@@std@@@Z 00401150 f i cinder:Utilities.obj
 0001:00000150       ??$_Destroy@U?$pair@GG@std@@@std@@YAXPAU?$pair@GG@0@@Z 00401150 f i cinder:Font.obj
 0001:00000150       ??$_Destroy@U_Node@?$_Tree_nod@V?$_Tmap_traits@KV?$Vec2@M@cinder@@U?$less@K@std@@V?$allocator@U?$pair@$$CBKV?$Vec2@M@cinder@@@std@@@4@$0A@@std@@@std@@@std@@YAXPAU_Node@?$_Tree_nod@V?$_Tmap_traits@KV?$Vec2@M@cinder@@U?$less@K@std@@V?$allocator@U?$pair@$$CBKV?$Vec2@M@cinder@@@std@@@4@$0A@@std@@@0@@Z 00401150 f i cinder:AppImplMswBasic.obj
 0001:00000150       ??$_Destroy@U_Node@?$_List_nod@V?$Vec2@M@cinder@@V?$allocator@V?$Vec2@M@cinder@@@std@@@std@@@std@@YAXPAU_Node@?$_List_nod@V?$Vec2@M@cinder@@V?$allocator@V?$Vec2@M@cinder@@@std@@@0@@Z 00401150 f i basicApp.obj
 0001:00000150       ??$_Destroy@PAU_Node@?$_Tree_nod@V?$_Tmap_traits@JU?$pair@P6A?AV?$shared_ptr@VImageTarget@cinder@@@boost@@V?$shared_ptr@VDataTarget@cinder@@@2@V?$shared_ptr@VImageSource@cinder@@@2@VOptions@ImageTarget@cinder@@ABV?$basic_string@DU?$char_traits@D@std@@V?$allocator@D@2@@std@@@ZV89@@std@@U?$less@J@2@V?$allocator@U?$pair@$$CBJU?$pair@P6A?AV?$shared_ptr@VImageTarget@cinder@@@boost@@V?$shared_ptr@VDataTarget@cinder@@@2@V?$shared_ptr@VImageSource@cinder@@@2@VOptions@ImageTarget@cinder@@ABV?$basic_string@DU?$char_traits@D@std@@V?$allocator@D@2@@std@@@ZV89@@std@@@std@@@2@$00@std@@@std@@@std@@YAXPAPAU_Node@?$_Tree_nod@V?$_Tmap_traits@JU?$pair@P6A?AV?$shared_ptr@VImageTarget@cinder@@@boost@@V?$shared_ptr@VDataTarget@cinder@@@2@V?$shared_ptr@VImageSource@cinder@@@2@VOptions@ImageTarget@cinder@@ABV?$basic_string@DU?$char_traits@D@std@@V?$allocator@D@2@@std@@@ZV89@@std@@U?$less@J@2@V?$allocator@U?$pair@$$CBJU?$pair@P6A?AV?$shared_ptr@VImageTarget@cinder@@@boost@@V?$shared_ptr@VDataTarget@cinder@@@2@V?$shared_ptr@VImageSource@cinder@@@2@VOptions@ImageTarget@cinder@@ABV?$basic_string@DU?$char_traits@D@std@@V?$allocator@D@2@@std@@@ZV89@@std@@@std@@@2@$00@std@@@0@@Z 00401150 f i cinder:ImageIo.obj
 0001:00000150       ??$_Destroy@PAU_Node@?$_Tree_nod@V?$_Tmap_traits@V?$basic_string@DU?$char_traits@D@std@@V?$allocator@D@2@@std@@PBU_GUID@@U?$less@V?$basic_string@DU?$char_traits@D@std@@V?$allocator@D@2@@std@@@2@V?$allocator@U?$pair@$$CBV?$basic_string@DU?$char_traits@D@std@@V?$allocator@D@2@@std@@PBU_GUID@@@std@@@2@$0A@@std@@@std@@@std@@YAXPAPAU_Node@?$_Tree_nod@V?$_Tmap_traits@V?$basic_string@DU?$char_traits@D@std@@V?$allocator@D@2@@std@@PBU_GUID@@U?$less@V?$basic_string@DU?$char_traits@D@std@@V?$allocator@D@2@@std@@@2@V?$allocator@U?$pair@$$CBV?$basic_string@DU?$char_traits@D@std@@V?$allocator@D@2@@std@@PBU_GUID@@@std@@@2@$0A@@std@@@0@@Z 00401150 f i cinder:ImageTargetFileWic.obj
 0001:00000150       ??$_Destroy_range@V?$allocator@PAV?$shared_ptr@VLine@cinder@@@boost@@@std@@@std@@YAXPAPAV?$shared_ptr@VLine@cinder@@@boost@@0AAV?$allocator@PAV?$shared_ptr@VLine@cinder@@@boost@@@0@U_Scalar_ptr_iterator_tag@0@@Z 00401150 f i cinder:Text.obj
 0001:00000150       ??$_Destroy@PAU_Node@?$_Tree_nod@V?$_Tmap_traits@V?$basic_string@DU?$char_traits@D@std@@V?$allocator@D@2@@std@@_NU?$less@V?$basic_string@DU?$char_traits@D@std@@V?$allocator@D@2@@std@@@2@V?$allocator@U?$pair@$$CBV?$basic_string@DU?$char_traits@D@std@@V?$allocator@D@2@@std@@_N@std@@@2@$0A@@std@@@std@@@std@@YAXPAPAU_Node@?$_Tree_nod@V?$_Tmap_traits@V?$basic_string@DU?$char_traits@D@std@@V?$allocator@D@2@@std@@_NU?$less@V?$basic_string@DU?$char_traits@D@std@@V?$allocator@D@2@@std@@@2@V?$allocator@U?$pair@$$CBV?$basic_string@DU?$char_traits@D@std@@V?$allocator@D@2@@std@@_N@std@@@2@$0A@@std@@@0@@Z 00401150 f i cinder:gl.obj
 0001:00000150       ??$_Destroy@U_Node@?$_Tree_nod@V?$_Tmap_traits@JP6A?AV?$shared_ptr@VImageSource@cinder@@@boost@@V?$shared_ptr@VDataSource@cinder@@@2@VOptions@ImageSource@cinder@@@ZU?$less@J@std@@V?$allocator@U?$pair@$$CBJP6A?AV?$shared_ptr@VImageSource@cinder@@@boost@@V?$shared_ptr@VDataSource@cinder@@@2@VOptions@ImageSource@cinder@@@Z@std@@@8@$0A@@std@@@std@@@std@@YAXPAU_Node@?$_Tree_nod@V?$_Tmap_traits@JP6A?AV?$shared_ptr@VImageSource@cinder@@@boost@@V?$shared_ptr@VDataSource@cinder@@@2@VOptions@ImageSource@cinder@@@ZU?$less@J@std@@V?$allocator@U?$pair@$$CBJP6A?AV?$shared_ptr@VImageSource@cinder@@@boost@@V?$shared_ptr@VDataSource@cinder@@@2@VOptions@ImageSource@cinder@@@Z@std@@@8@$0A@@std@@@0@@Z 00401150 f i cinder:ImageIo.obj
 0001:00000150       ??$_Destroy@PAU_Node@?$_Tree_nod@V?$_Tmap_traits@JP6A?AV?$shared_ptr@VImageSource@cinder@@@boost@@V?$shared_ptr@VDataSource@cinder@@@2@VOptions@ImageSource@cinder@@@ZU?$less@J@std@@V?$allocator@U?$pair@$$CBJP6A?AV?$shared_ptr@VImageSource@cinder@@@boost@@V?$shared_ptr@VDataSource@cinder@@@2@VOptions@ImageSource@cinder@@@Z@std@@@8@$00@std@@@std@@@std@@YAXPAPAU_Node@?$_Tree_nod@V?$_Tmap_traits@JP6A?AV?$shared_ptr@VImageSource@cinder@@@boost@@V?$shared_ptr@VDataSource@cinder@@@2@VOptions@ImageSource@cinder@@@ZU?$less@J@std@@V?$allocator@U?$pair@$$CBJP6A?AV?$shared_ptr@VImageSource@cinder@@@boost@@V?$shared_ptr@VDataSource@cinder@@@2@VOptions@ImageSource@cinder@@@Z@std@@@8@$00@std@@@0@@Z 00401150 f i cinder:ImageIo.obj
 0001:00000150       ??$_Destroy@W4SegmentType@Path2d@cinder@@@std@@YAXPAW4SegmentType@Path2d@cinder@@@Z 00401150 f i cinder:Path2D.obj
 0001:00000150       ??$_Destroy@V?$Vec2@M@cinder@@@std@@YAXPAV?$Vec2@M@cinder@@@Z 00401150 f i cinder:gl.obj
 0001:00000150       ??$_Destroy_range@V?$allocator@G@std@@@std@@YAXPAG0AAV?$allocator@G@0@U_Scalar_ptr_iterator_tag@0@@Z 00401150 f i cinder:Font.obj
 0001:00000150       ??$_Destroy_range@V?$allocator@I@std@@@std@@YAXPAI0AAV?$allocator@I@0@U_Scalar_ptr_iterator_tag@0@@Z 00401150 f i cinder:VBO.obj
 0001:00000150       ??$_Destroy_range@V?$allocator@_W@std@@@std@@YAXPA_W0AAV?$allocator@_W@0@U_Scalar_ptr_iterator_tag@0@@Z 00401150 f i cinder:Utilities.obj
 0001:00000150       ?sp_enable_shared_from_this@detail@boost@@YAXZZ 00401150 f i cinder:App.obj
 0001:00000150       ??$_Destroy_range@V?$allocator@H@std@@@std@@YAXPAH0AAV?$allocator@H@0@U_Scalar_ptr_iterator_tag@0@@Z 00401150 f i cinder:VBO.obj
 0001:00000150       ??$_Destroy@VTouch@TouchEvent@app@cinder@@@std@@YAXPAVTouch@TouchEvent@app@cinder@@@Z 00401150 f i basicApp.obj
 0001:00000150       ??$_Destroy@PAV?$shared_ptr@VLine@cinder@@@boost@@@std@@YAXPAPAV?$shared_ptr@VLine@cinder@@@boost@@@Z 00401150 f i cinder:Text.obj
 0001:00000150       ?throw_exception_assert_compatibility@boost@@YAXABVexception@std@@@Z 00401150 f i cinder:AppBasic.obj
 0001:00000150       ??$_Destroy@PAU_Node@?$_Tree_nod@V?$_Tmap_traits@V?$basic_string@DU?$char_traits@D@std@@V?$allocator@D@2@@std@@V?$multimap@JP6A?AV?$shared_ptr@VImageSource@cinder@@@boost@@V?$shared_ptr@VDataSource@cinder@@@2@VOptions@ImageSource@cinder@@@ZU?$less@J@std@@V?$allocator@U?$pair@$$CBJP6A?AV?$shared_ptr@VImageSource@cinder@@@boost@@V?$shared_ptr@VDataSource@cinder@@@2@VOptions@ImageSource@cinder@@@Z@std@@@8@@2@U?$less@V?$basic_string@DU?$char_traits@D@std@@V?$allocator@D@2@@std@@@2@V?$allocator@U?$pair@$$CBV?$basic_string@DU?$char_traits@D@std@@V?$allocator@D@2@@std@@V?$multimap@JP6A?AV?$shared_ptr@VImageSource@cinder@@@boost@@V?$shared_ptr@VDataSource@cinder@@@2@VOptions@ImageSource@cinder@@@ZU?$less@J@std@@V?$allocator@U?$pair@$$CBJP6A?AV?$shared_ptr@VImageSource@cinder@@@boost@@V?$shared_ptr@VDataSource@cinder@@@2@VOptions@ImageSource@cinder@@@Z@std@@@8@@2@@std@@@2@$0A@@std@@@std@@@std@@YAXPAPAU_Node@?$_Tree_nod@V?$_Tmap_traits@V?$basic_string@DU?$char_traits@D@std@@V?$allocator@D@2@@std@@V?$multimap@JP6A?AV?$shared_ptr@VImageSource@cinder@@@boost@@V?$shared_ptr@VDataSource@cinder@@@2@VOptions@ImageSource@cinder@@@ZU?$less@J@std@@V?$allocator@U?$pair@$$CBJP6A?AV?$shared_ptr@VImageSource@cinder@@@boost@@V?$shared_ptr@VDataSource@cinder@@@2@VOptions@ImageSource@cinder@@@Z@std@@@8@@2@U?$less@V?$basic_string@DU?$char_traits@D@std@@V?$allocator@D@2@@std@@@2@V?$allocator@U?$pair@$$CBV?$basic_string@DU?$char_traits@D@std@@V?$allocator@D@2@@std@@V?$multimap@JP6A?AV?$shared_ptr@VImageSource@cinder@@@boost@@V?$shared_ptr@VDataSource@cinder@@@2@VOptions@ImageSource@cinder@@@ZU?$less@J@std@@V?$allocator@U?$pair@$$CBJP6A?AV?$shared_ptr@VImageSource@cinder@@@boost@@V?$shared_ptr@VDataSource@cinder@@@2@VOptions@ImageSource@cinder@@@Z@std@@@8@@2@@std@@@2@$0A@@std@@@0@@Z 00401150 f i cinder:ImageIo.obj
 0001:00000150       ??$_Destroy@U?$pair@GV?$Vec2@M@cinder@@@std@@@std@@YAXPAU?$pair@GV?$Vec2@M@cinder@@@0@@Z 00401150 f i cinder:Text.obj
 0001:00000150       ??$_Destroy@PAU_Node@?$_List_nod@V?$Vec2@M@cinder@@V?$allocator@V?$Vec2@M@cinder@@@std@@@std@@@std@@YAXPAPAU_Node@?$_List_nod@V?$Vec2@M@cinder@@V?$allocator@V?$Vec2@M@cinder@@@std@@@0@@Z 00401150 f i basicApp.obj
 0001:00000150       ??$_Destroy@U_Node@?$_Tree_nod@V?$_Tmap_traits@JP6A?AV?$shared_ptr@VImageSource@cinder@@@boost@@V?$shared_ptr@VDataSource@cinder@@@2@VOptions@ImageSource@cinder@@@ZU?$less@J@std@@V?$allocator@U?$pair@$$CBJP6A?AV?$shared_ptr@VImageSource@cinder@@@boost@@V?$shared_ptr@VDataSource@cinder@@@2@VOptions@ImageSource@cinder@@@Z@std@@@8@$00@std@@@std@@@std@@YAXPAU_Node@?$_Tree_nod@V?$_Tmap_traits@JP6A?AV?$shared_ptr@VImageSource@cinder@@@boost@@V?$shared_ptr@VDataSource@cinder@@@2@VOptions@ImageSource@cinder@@@ZU?$less@J@std@@V?$allocator@U?$pair@$$CBJP6A?AV?$shared_ptr@VImageSource@cinder@@@boost@@V?$shared_ptr@VDataSource@cinder@@@2@VOptions@ImageSource@cinder@@@Z@std@@@8@$00@std@@@0@@Z 00401150 f i cinder:ImageIo.obj
 0001:00000150       ??$_Destroy@PAU_Node@?$_Tree_nod@V?$_Tmap_traits@JP6A?AV?$shared_ptr@VImageSource@cinder@@@boost@@V?$shared_ptr@VDataSource@cinder@@@2@VOptions@ImageSource@cinder@@@ZU?$less@J@std@@V?$allocator@U?$pair@$$CBJP6A?AV?$shared_ptr@VImageSource@cinder@@@boost@@V?$shared_ptr@VDataSource@cinder@@@2@VOptions@ImageSource@cinder@@@Z@std@@@8@$0A@@std@@@std@@@std@@YAXPAPAU_Node@?$_Tree_nod@V?$_Tmap_traits@JP6A?AV?$shared_ptr@VImageSource@cinder@@@boost@@V?$shared_ptr@VDataSource@cinder@@@2@VOptions@ImageSource@cinder@@@ZU?$less@J@std@@V?$allocator@U?$pair@$$CBJP6A?AV?$shared_ptr@VImageSource@cinder@@@boost@@V?$shared_ptr@VDataSource@cinder@@@2@VOptions@ImageSource@cinder@@@Z@std@@@8@$0A@@std@@@0@@Z 00401150 f i cinder:ImageIo.obj
 0001:00000150       ??$_Destroy@U?$pair@W4CustomAttr@Layout@VboMesh@gl@cinder@@I@std@@@std@@YAXPAU?$pair@W4CustomAttr@Layout@VboMesh@gl@cinder@@I@0@@Z 00401150 f i cinder:VBO.obj
 0001:00000160       ??0logic_error@std@@QAE@ABV?$basic_string@DU?$char_traits@D@std@@V?$allocator@D@2@@1@@Z 00401160 f i basicApp.obj
 0001:000001d0       ??1logic_error@std@@UAE@XZ 004011d0 f i basicApp.obj
 0001:00000200       ?what@runtime_error@std@@UBEPBDXZ 00401200 f i cinder:AppBasic.obj
 0001:00000200       ?what@logic_error@std@@UBEPBDXZ 00401200 f i basicApp.obj
 0001:00000220       ??_Glogic_error@std@@UAEPAXI@Z 00401220 f i basicApp.obj
 0001:00000220       ??_Elogic_error@std@@UAEPAXI@Z 00401220 f i  CIL library: CIL module
 0001:00000250       ??0length_error@std@@QAE@ABV?$basic_string@DU?$char_traits@D@std@@V?$allocator@D@2@@1@@Z 00401250 f i basicApp.obj
 0001:00000280       ??1length_error@std@@UAE@XZ 00401280 f i basicApp.obj
 0001:000002a0       ??_Glength_error@std@@UAEPAXI@Z 004012a0 f i basicApp.obj
 0001:000002a0       ??_Elength_error@std@@UAEPAXI@Z 004012a0 f i  CIL library: CIL module
 0001:000002d0       ??0_Aux_cont@std@@QAE@QBV_Container_base_aux@1@@Z 004012d0 f i basicApp.obj
 0001:000002d0       ??0?$scoped_array@D@boost@@QAE@PAD@Z 004012d0 f i cinder:Stream.obj
 0001:000002d0       ??0id@locale@std@@QAE@I@Z  004012d0 f i basicApp.obj
 0001:000002f0       ??0logic_error@std@@QAE@ABV01@@Z 004012f0 f i basicApp.obj
 0001:00000360       ?convert@?$CHANTRAIT@M@cinder@@SAMM@Z 00401360 f i basicApp.obj
 0001:00000370       ??_H@YGXPAXIHP6EPAX0@Z@Z   00401370 f i basicApp.obj
 0001:000003a0       ?setMatricesWindow@gl@cinder@@YAXABV?$Vec2@H@2@_N@Z 004013a0 f i basicApp.obj
 0001:000003c0       ?glVertex2f@@YAXABV?$Vec2@M@cinder@@@Z 004013c0 f i basicApp.obj
 0001:000003e0       ??1Event@app@cinder@@UAE@XZ 004013e0 f i basicApp.obj
 0001:00000400       ??_GEvent@app@cinder@@UAEPAXI@Z 00401400 f i basicApp.obj
 0001:00000400       ??_EEvent@app@cinder@@UAEPAXI@Z 00401400 f i  CIL library: CIL module
 0001:00000430       ?getPos@MouseEvent@app@cinder@@QBE?AV?$Vec2@H@3@XZ 00401430 f i basicApp.obj
 0001:00000460       ??1ResizeEvent@app@cinder@@UAE@XZ 00401460 f i basicApp.obj
 0001:00000460       ??1KeyEvent@app@cinder@@UAE@XZ 00401460 f i basicApp.obj
 0001:00000460       ??1MouseEvent@app@cinder@@UAE@XZ 00401460 f i basicApp.obj
 0001:00000480       ??1FileDropEvent@app@cinder@@UAE@XZ 00401480 f i basicApp.obj
 0001:000004a0       ?keyDown@App@app@cinder@@UAEXVKeyEvent@23@@Z 004014a0 f i cinder:AppBasic.obj
 0001:000004a0       ?keyUp@App@app@cinder@@UAEXVKeyEvent@23@@Z 004014a0 f i basicApp.obj
 0001:000004c0       ?resize@App@app@cinder@@UAEXVResizeEvent@23@@Z 004014c0 f i basicApp.obj
 0001:000004e0       ?fileDrop@App@app@cinder@@UAEXVFileDropEvent@23@@Z 004014e0 f i basicApp.obj
 0001:00000500       ?getWindowSize@App@app@cinder@@QBE?AV?$Vec2@H@3@XZ 00401500 f i basicApp.obj
 0001:00000540       ??1TouchEvent@app@cinder@@UAE@XZ 00401540 f i basicApp.obj
 0001:00000560       ?touchesBegan@AppBasic@app@cinder@@UAEXVTouchEvent@23@@Z 00401560 f i basicApp.obj
 0001:00000560       ?touchesMoved@AppBasic@app@cinder@@UAEXVTouchEvent@23@@Z 00401560 f i basicApp.obj
 0001:00000560       ?touchesEnded@AppBasic@app@cinder@@UAEXVTouchEvent@23@@Z 00401560 f i basicApp.obj
 0001:00000580       ?getSettings@AppBasic@app@cinder@@UBEABVSettings@123@XZ 00401580 f i basicApp.obj
 0001:000005a0       ?prepareLaunch@AppBasic@app@cinder@@SAXXZ 004015a0 f i basicApp.obj
 0001:000005b0       ?cleanupLaunch@AppBasic@app@cinder@@SAXXZ 004015b0 f i basicApp.obj
 0001:000005c0       ??0BasicApp@@QAE@XZ        004015c0 f i basicApp.obj
 0001:00000630       ??_GBasicApp@@UAEPAXI@Z    00401630 f i basicApp.obj
 0001:00000630       ??_EBasicApp@@UAEPAXI@Z    00401630 f i  CIL library: CIL module
 0001:00000660       ??1BasicApp@@UAE@XZ        00401660 f i basicApp.obj
 0001:00000690       ??0?$basic_string@DU?$char_traits@D@std@@V?$allocator@D@2@@std@@QAE@PBD@Z 00401690 f i basicApp.obj
 0001:000006d0       ??0?$basic_string@DU?$char_traits@D@std@@V?$allocator@D@2@@std@@QAE@ABV01@@Z 004016d0 f i basicApp.obj
 0001:00000710       ??1?$basic_string@DU?$char_traits@D@std@@V?$allocator@D@2@@std@@QAE@XZ 00401710 f i basicApp.obj
 0001:00000730       ?c_str@?$basic_string@DU?$char_traits@D@std@@V?$allocator@D@2@@std@@QBEPBDXZ 00401730 f i basicApp.obj
 0001:00000750       ??0?$ColorAT@M@cinder@@QAE@ABV?$ColorT@M@1@M@Z 00401750 f i basicApp.obj
 0001:00000790       ??0?$ColorT@M@cinder@@QAE@MMM@Z 00401790 f i basicApp.obj
 0001:00000790       ??0?$Vec3@M@cinder@@QAE@MMM@Z 00401790 f i cinder:gl.obj
 0001:000007c0       ??1?$vector@V?$basic_string@DU?$char_traits@D@std@@V?$allocator@D@2@@std@@V?$allocator@V?$basic_string@DU?$char_traits@D@std@@V?$allocator@D@2@@std@@@2@@std@@QAE@XZ 004017c0 f i basicApp.obj
 0001:000007e0       ??1?$vector@VTouch@TouchEvent@app@cinder@@V?$allocator@VTouch@TouchEvent@app@cinder@@@std@@@std@@QAE@XZ 004017e0 f i basicApp.obj
 0001:00000800       ??0?$list@V?$Vec2@M@cinder@@V?$allocator@V?$Vec2@M@cinder@@@std@@@std@@QAE@XZ 00401800 f i basicApp.obj
 0001:00000880       ??1?$list@V?$Vec2@M@cinder@@V?$allocator@V?$Vec2@M@cinder@@@std@@@std@@QAE@XZ 00401880 f i basicApp.obj
 0001:000008a0       ?begin@?$list@V?$Vec2@M@cinder@@V?$allocator@V?$Vec2@M@cinder@@@std@@@std@@QAE?AV?$_Iterator@$00@12@XZ 004018a0 f i basicApp.obj
 0001:000008d0       ?end@?$list@V?$Vec2@M@cinder@@V?$allocator@V?$Vec2@M@cinder@@@std@@@std@@QAE?AV?$_Iterator@$00@12@XZ 004018d0 f i basicApp.obj
 0001:00000900       ?push_back@?$list@V?$Vec2@M@cinder@@V?$allocator@V?$Vec2@M@cinder@@@std@@@std@@QAEXABV?$Vec2@M@cinder@@@Z 00401900 f i basicApp.obj
 0001:00000940       ??D?$_Iterator@$00@?$list@V?$Vec2@M@cinder@@V?$allocator@V?$Vec2@M@cinder@@@std@@@std@@QBEAAV?$Vec2@M@cinder@@XZ 00401940 f i basicApp.obj
 0001:00000960       ??E?$_Iterator@$00@?$list@V?$Vec2@M@cinder@@V?$allocator@V?$Vec2@M@cinder@@@std@@@std@@QAEAAV012@XZ 00401960 f i basicApp.obj
 0001:00000980       ??9?$_Const_iterator@$00@?$list@V?$Vec2@M@cinder@@V?$allocator@V?$Vec2@M@cinder@@@std@@@std@@QBE_NABV012@@Z 00401980 f i basicApp.obj
 0001:000009b0       ??1?$_List_val@V?$Vec2@M@cinder@@V?$allocator@V?$Vec2@M@cinder@@@std@@@std@@QAE@XZ 004019b0 f i basicApp.obj
 0001:000009d0       ??1?$_List_ptr@V?$Vec2@M@cinder@@V?$allocator@V?$Vec2@M@cinder@@@std@@@std@@QAE@XZ 004019d0 f i basicApp.obj
 0001:000009f0       ??1?$_List_nod@V?$Vec2@M@cinder@@V?$allocator@V?$Vec2@M@cinder@@@std@@@std@@QAE@XZ 004019f0 f i basicApp.obj
 0001:000009f0       ??1?$_Vector_val@V?$basic_string@DU?$char_traits@D@std@@V?$allocator@D@2@@std@@V?$allocator@V?$basic_string@DU?$char_traits@D@std@@V?$allocator@D@2@@std@@@2@@std@@QAE@XZ 004019f0 f i basicApp.obj
 0001:000009f0       ??1?$_Vector_val@VTouch@TouchEvent@app@cinder@@V?$allocator@VTouch@TouchEvent@app@cinder@@@std@@@std@@QAE@XZ 004019f0 f i basicApp.obj
 0001:000009f0       ??1?$_Vector_val@V?$Vec2@M@cinder@@V?$allocator@V?$Vec2@M@cinder@@@std@@@std@@QAE@XZ 004019f0 f i cinder:gl.obj
 0001:00000a10       ?assign@?$basic_string@DU?$char_traits@D@std@@V?$allocator@D@2@@std@@QAEAAV12@ABV12@II@Z 00401a10 f i basicApp.obj
 0001:00000ad0       ?assign@?$basic_string@DU?$char_traits@D@std@@V?$allocator@D@2@@std@@QAEAAV12@PBD@Z 00401ad0 f i basicApp.obj
 0001:00000b00       ?_Tidy@?$basic_string@DU?$char_traits@D@std@@V?$allocator@D@2@@std@@IAEX_NI@Z 00401b00 f i basicApp.obj
 0001:00000b80       ??0?$_String_val@_WV?$allocator@_W@std@@@std@@IAE@V?$allocator@_W@1@@Z 00401b80 f i cinder:AppBasic.obj
 0001:00000b80       ??0?$_String_val@DV?$allocator@D@std@@@std@@IAE@V?$allocator@D@1@@Z 00401b80 f i basicApp.obj
 0001:00000ba0       ??0?$_String_val@DV?$allocator@D@std@@@std@@QAE@ABV01@@Z 00401ba0 f i basicApp.obj
 0001:00000ba0       ??0?$_String_val@_WV?$allocator@_W@std@@@std@@QAE@ABV01@@Z 00401ba0 f i cinder:Text.obj
 0001:00000bc0       ?allocate@?$allocator@D@std@@QAEPADI@Z 00401bc0 f i basicApp.obj
 0001:00000be0       ??1?$_Container_base_aux_alloc_real@V?$allocator@V?$basic_string@DU?$char_traits@D@std@@V?$allocator@D@2@@std@@@std@@@std@@IAE@XZ 00401be0 f i basicApp.obj
 0001:00000be0       ??1?$_Container_base_aux_alloc_real@V?$allocator@V?$Vec2@M@cinder@@@std@@@std@@IAE@XZ 00401be0 f i basicApp.obj
 0001:00000be0       ??1?$_Container_base_aux_alloc_real@V?$allocator@VTouch@TouchEvent@app@cinder@@@std@@@std@@IAE@XZ 00401be0 f i basicApp.obj
 0001:00000c10       ?_Tidy@?$vector@V?$basic_string@DU?$char_traits@D@std@@V?$allocator@D@2@@std@@V?$allocator@V?$basic_string@DU?$char_traits@D@std@@V?$allocator@D@2@@std@@@2@@std@@IAEXXZ 00401c10 f i basicApp.obj
 0001:00000c90       ?_Destroy@?$vector@VTouch@TouchEvent@app@cinder@@V?$allocator@VTouch@TouchEvent@app@cinder@@@std@@@std@@IAEXPAVTouch@TouchEvent@app@cinder@@0@Z 00401c90 f i basicApp.obj
 0001:00000cc0       ?_Tidy@?$vector@VTouch@TouchEvent@app@cinder@@V?$allocator@VTouch@TouchEvent@app@cinder@@@std@@@std@@IAEXXZ 00401cc0 f i basicApp.obj
 0001:00000d40       ?_Insert@?$list@V?$Vec2@M@cinder@@V?$allocator@V?$Vec2@M@cinder@@@std@@@std@@QAEXV?$_Const_iterator@$00@12@ABV?$Vec2@M@cinder@@@Z 00401d40 f i basicApp.obj
 0001:00000dc0       ?_Buynode@?$list@V?$Vec2@M@cinder@@V?$allocator@V?$Vec2@M@cinder@@@std@@@std@@IAEPAU_Node@?$_List_nod@V?$Vec2@M@cinder@@V?$allocator@V?$Vec2@M@cinder@@@std@@@2@XZ 00401dc0 f i basicApp.obj
 0001:00000ec0       ?_Tidy@?$list@V?$Vec2@M@cinder@@V?$allocator@V?$Vec2@M@cinder@@@std@@@std@@IAEXXZ 00401ec0 f i basicApp.obj
 0001:00000f30       ??0?$_List_val@V?$Vec2@M@cinder@@V?$allocator@V?$Vec2@M@cinder@@@std@@@std@@QAE@V?$allocator@V?$Vec2@M@cinder@@@1@@Z 00401f30 f i basicApp.obj
 0001:00000f70       ??0?$_Iterator@$00@?$list@V?$Vec2@M@cinder@@V?$allocator@V?$Vec2@M@cinder@@@std@@@std@@QAE@PAU_Node@?$_List_nod@V?$Vec2@M@cinder@@V?$allocator@V?$Vec2@M@cinder@@@std@@@2@PBV12@@Z 00401f70 f i basicApp.obj
 0001:00000f90       ??D?$_Const_iterator@$00@?$list@V?$Vec2@M@cinder@@V?$allocator@V?$Vec2@M@cinder@@@std@@@std@@QBEABV?$Vec2@M@cinder@@XZ 00401f90 f i basicApp.obj
 0001:00000ff0       ??E?$_Const_iterator@$00@?$list@V?$Vec2@M@cinder@@V?$allocator@V?$Vec2@M@cinder@@@std@@@std@@QAEAAV012@XZ 00401ff0 f i basicApp.obj
 0001:00001060       ??8?$_Const_iterator@$00@?$list@V?$Vec2@M@cinder@@V?$allocator@V?$Vec2@M@cinder@@@std@@@std@@QBE_NABV012@@Z 00402060 f i basicApp.obj
 0001:000010c0       ?assign@?$basic_string@DU?$char_traits@D@std@@V?$allocator@D@2@@std@@QAEAAV12@PBDI@Z 004020c0 f i basicApp.obj
 0001:00001150       ?erase@?$basic_string@DU?$char_traits@D@std@@V?$allocator@D@2@@std@@QAEAAV12@II@Z 00402150 f i basicApp.obj
 0001:000011f0       ?_Grow@?$basic_string@DU?$char_traits@D@std@@V?$allocator@D@2@@std@@IAE_NI_N@Z 004021f0 f i basicApp.obj
 0001:00001290       ?_Myptr@?$basic_string@DU?$traits_extension@U?$char_traits@D@std@@@tokenizer_detail@boost@@V?$allocator@D@std@@@std@@IAEPADXZ 00402290 f i cinder:Utilities.obj
 0001:00001290       ?_Myptr@?$basic_string@DU?$char_traits@D@std@@V?$allocator@D@2@@std@@IAEPADXZ 00402290 f i basicApp.obj
 0001:00001290       ?_Myptr@?$basic_string@DU?$traits_extension@U?$char_traits@D@std@@@tokenizer_detail@boost@@V?$allocator@D@std@@@std@@IBEPBDXZ 00402290 f i cinder:Utilities.obj
 0001:00001290       ?_Myptr@?$basic_string@DU?$char_traits@D@std@@V?$allocator@D@2@@std@@IBEPBDXZ 00402290 f i basicApp.obj
 0001:000012c0       ??0?$_Container_base_aux_alloc_real@V?$allocator@V?$Vec2@M@cinder@@@std@@@std@@IAE@V?$allocator@V?$Vec2@M@cinder@@@1@@Z 004022c0 f i basicApp.obj
 0001:00001370       ?deallocate@?$allocator@V_Aux_cont@std@@@std@@QAEXPAV_Aux_cont@2@I@Z 00402370 f i basicApp.obj
 0001:00001370       ?deallocate@?$allocator@U?$pair@KV?$function@$$A6A_NVResizeEvent@app@cinder@@@Z@boost@@@std@@@std@@QAEXPAU?$pair@KV?$function@$$A6A_NVResizeEvent@app@cinder@@@Z@boost@@@2@I@Z 00402370 f i cinder:App.obj
 0001:00001370       ?deallocate@?$allocator@U_Node@?$_List_nod@V?$Vec2@M@cinder@@V?$allocator@V?$Vec2@M@cinder@@@std@@@std@@@std@@QAEXPAU_Node@?$_List_nod@V?$Vec2@M@cinder@@V?$allocator@V?$Vec2@M@cinder@@@std@@@2@I@Z 00402370 f i basicApp.obj
 0001:00001370       ?deallocate@?$allocator@U_Node@?$_Tree_nod@V?$_Tmap_traits@V?$basic_string@DU?$char_traits@D@std@@V?$allocator@D@2@@std@@V?$multimap@JU?$pair@P6A?AV?$shared_ptr@VImageTarget@cinder@@@boost@@V?$shared_ptr@VDataTarget@cinder@@@2@V?$shared_ptr@VImageSource@cinder@@@2@VOptions@ImageTarget@cinder@@ABV?$basic_string@DU?$char_traits@D@std@@V?$allocator@D@2@@std@@@ZV89@@std@@U?$less@J@2@V?$allocator@U?$pair@$$CBJU?$pair@P6A?AV?$shared_ptr@VImageTarget@cinder@@@boost@@V?$shared_ptr@VDataTarget@cinder@@@2@V?$shared_ptr@VImageSource@cinder@@@2@VOptions@ImageTarget@cinder@@ABV?$basic_string@DU?$char_traits@D@std@@V?$allocator@D@2@@std@@@ZV89@@std@@@std@@@2@@2@U?$less@V?$basic_string@DU?$char_traits@D@std@@V?$allocator@D@2@@std@@@2@V?$allocator@U?$pair@$$CBV?$basic_string@DU?$char_traits@D@std@@V?$allocator@D@2@@std@@V?$multimap@JU?$pair@P6A?AV?$shared_ptr@VImageTarget@cinder@@@boost@@V?$shared_ptr@VDataTarget@cinder@@@2@V?$shared_ptr@VImageSource@cinder@@@2@VOptions@ImageTarget@cinder@@ABV?$basic_string@DU?$char_traits@D@std@@V?$allocator@D@2@@std@@@ZV89@@std@@U?$less@J@2@V?$allocator@U?$pair@$$CBJU?$pair@P6A?AV?$shared_ptr@VImageTarget@cinder@@@boost@@V?$shared_ptr@VDataTarget@cinder@@@2@V?$shared_ptr@VImageSource@cinder@@@2@VOptions@ImageTarget@cinder@@ABV?$basic_string@DU?$char_traits@D@std@@V?$allocator@D@2@@std@@@ZV89@@std@@@std@@@2@@2@@std@@@2@$0A@@std@@@std@@@std@@QAEXPAU_Node@?$_Tree_nod@V?$_Tmap_traits@V?$basic_string@DU?$char_traits@D@std@@V?$allocator@D@2@@std@@V?$multimap@JU?$pair@P6A?AV?$shared_ptr@VImageTarget@cinder@@@boost@@V?$shared_ptr@VDataTarget@cinder@@@2@V?$shared_ptr@VImageSource@cinder@@@2@VOptions@ImageTarget@cinder@@ABV?$basic_string@DU?$char_traits@D@std@@V?$allocator@D@2@@std@@@ZV89@@std@@U?$less@J@2@V?$allocator@U?$pair@$$CBJU?$pair@P6A?AV?$shared_ptr@VImageTarget@cinder@@@boost@@V?$shared_ptr@VDataTarget@cinder@@@2@V?$shared_ptr@VImageSource@cinder@@@2@VOptions@ImageTarget@cinder@@ABV?$basic_string@DU?$char_traits@D@std@@V?$allocator@D@2@@std@@@ZV89@@std@@@std@@@2@@2@U?$less@V?$basic_string@DU?$char_traits@D@std@@V?$allocator@D@2@@std@@@2@V?$allocator@U?$pair@$$CBV?$basic_string@DU?$char_traits@D@std@@V?$allocator@D@2@@std@@V?$multimap@JU?$pair@P6A?AV?$shared_ptr@VImageTarget@cinder@@@boost@@V?$shared_ptr@VDataTarget@cinder@@@2@V?$shared_ptr@VImageSource@cinder@@@2@VOptions@ImageTarget@cinder@@ABV?$basic_string@DU?$char_traits@D@std@@V?$allocator@D@2@@std@@@ZV89@@std@@U?$less@J@2@V?$allocator@U?$pair@$$CBJU?$pair@P6A?AV?$shared_ptr@VImageTarget@cinder@@@boost@@V?$shared_ptr@VDataTarget@cinder@@@2@V?$shared_ptr@VImageSource@cinder@@@2@VOptions@ImageTarget@cinder@@ABV?$basic_string@DU?$char_traits@D@std@@V?$allocator@D@2@@std@@@ZV89@@std@@@std@@@2@@2@@std@@@2@$0A@@std@@@2@I@Z 00402370 f i cinder:ImageIo.obj
 0001:00001370       ?deallocate@?$allocator@URun@cinder@@@std@@QAEXPAURun@cinder@@I@Z 00402370 f i cinder:Text.obj
 0001:00001370       ?deallocate@?$allocator@V?$Vec2@M@cinder@@@std@@QAEXPAV?$Vec2@M@cinder@@I@Z 00402370 f i cinder:gl.obj
 0001:00001370       ?deallocate@?$allocator@V?$shared_ptr@VLine@cinder@@@boost@@@std@@QAEXPAV?$shared_ptr@VLine@cinder@@@boost@@I@Z 00402370 f i cinder:Text.obj
 0001:00001370       ?deallocate@?$allocator@U_Node@?$_Tree_nod@V?$_Tmap_traits@JP6A?AV?$shared_ptr@VImageSource@cinder@@@boost@@V?$shared_ptr@VDataSource@cinder@@@2@VOptions@ImageSource@cinder@@@ZU?$less@J@std@@V?$allocator@U?$pair@$$CBJP6A?AV?$shared_ptr@VImageSource@cinder@@@boost@@V?$shared_ptr@VDataSource@cinder@@@2@VOptions@ImageSource@cinder@@@Z@std@@@8@$0A@@std@@@std@@@std@@QAEXPAU_Node@?$_Tree_nod@V?$_Tmap_traits@JP6A?AV?$shared_ptr@VImageSource@cinder@@@boost@@V?$shared_ptr@VDataSource@cinder@@@2@VOptions@ImageSource@cinder@@@ZU?$less@J@std@@V?$allocator@U?$pair@$$CBJP6A?AV?$shared_ptr@VImageSource@cinder@@@boost@@V?$shared_ptr@VDataSource@cinder@@@2@VOptions@ImageSource@cinder@@@Z@std@@@8@$0A@@std@@@2@I@Z 00402370 f i cinder:ImageIo.obj
 0001:00001370       ?deallocate@?$allocator@U_Node@?$_Tree_nod@V?$_Tmap_traits@JP6A?AV?$shared_ptr@VImageSource@cinder@@@boost@@V?$shared_ptr@VDataSource@cinder@@@2@VOptions@ImageSource@cinder@@@ZU?$less@J@std@@V?$allocator@U?$pair@$$CBJP6A?AV?$shared_ptr@VImageSource@cinder@@@boost@@V?$shared_ptr@VDataSource@cinder@@@2@VOptions@ImageSource@cinder@@@Z@std@@@8@$00@std@@@std@@@std@@QAEXPAU_Node@?$_Tree_nod@V?$_Tmap_traits@JP6A?AV?$shared_ptr@VImageSource@cinder@@@boost@@V?$shared_ptr@VDataSource@cinder@@@2@VOptions@ImageSource@cinder@@@ZU?$less@J@std@@V?$allocator@U?$pair@$$CBJP6A?AV?$shared_ptr@VImageSource@cinder@@@boost@@V?$shared_ptr@VDataSource@cinder@@@2@VOptions@ImageSource@cinder@@@Z@std@@@8@$00@std@@@2@I@Z 00402370 f i cinder:ImageIo.obj
 0001:00001370       ?deallocate@?$allocator@U_Node@?$_Tree_nod@V?$_Tmap_traits@V?$basic_string@DU?$char_traits@D@std@@V?$allocator@D@2@@std@@_NU?$less@V?$basic_string@DU?$char_traits@D@std@@V?$allocator@D@2@@std@@@2@V?$allocator@U?$pair@$$CBV?$basic_string@DU?$char_traits@D@std@@V?$allocator@D@2@@std@@_N@std@@@2@$0A@@std@@@std@@@std@@QAEXPAU_Node@?$_Tree_nod@V?$_Tmap_traits@V?$basic_string@DU?$char_traits@D@std@@V?$allocator@D@2@@std@@_NU?$less@V?$basic_string@DU?$char_traits@D@std@@V?$allocator@D@2@@std@@@2@V?$allocator@U?$pair@$$CBV?$basic_string@DU?$char_traits@D@std@@V?$allocator@D@2@@std@@_N@std@@@2@$0A@@std@@@2@I@Z 00402370 f i cinder:gl.obj
 0001:00001370       ?deallocate@?$allocator@U?$pair@KV?$function@$$A6A_NVKeyEvent@app@cinder@@@Z@boost@@@std@@@std@@QAEXPAU?$pair@KV?$function@$$A6A_NVKeyEvent@app@cinder@@@Z@boost@@@2@I@Z 00402370 f i cinder:App.obj
 0001:00001370       ?deallocate@?$allocator@U_Node@?$_Tree_nod@V?$_Tmap_traits@V?$basic_string@DU?$char_traits@D@std@@V?$allocator@D@2@@std@@V?$multimap@JP6A?AV?$shared_ptr@VImageSource@cinder@@@boost@@V?$shared_ptr@VDataSource@cinder@@@2@VOptions@ImageSource@cinder@@@ZU?$less@J@std@@V?$allocator@U?$pair@$$CBJP6A?AV?$shared_ptr@VImageSource@cinder@@@boost@@V?$shared_ptr@VDataSource@cinder@@@2@VOptions@ImageSource@cinder@@@Z@std@@@8@@2@U?$less@V?$basic_string@DU?$char_traits@D@std@@V?$allocator@D@2@@std@@@2@V?$allocator@U?$pair@$$CBV?$basic_string@DU?$char_traits@D@std@@V?$allocator@D@2@@std@@V?$multimap@JP6A?AV?$shared_ptr@VImageSource@cinder@@@boost@@V?$shared_ptr@VDataSource@cinder@@@2@VOptions@ImageSource@cinder@@@ZU?$less@J@std@@V?$allocator@U?$pair@$$CBJP6A?AV?$shared_ptr@VImageSource@cinder@@@boost@@V?$shared_ptr@VDataSource@cinder@@@2@VOptions@ImageSource@cinder@@@Z@std@@@8@@2@@std@@@2@$0A@@std@@@std@@@std@@QAEXPAU_Node@?$_Tree_nod@V?$_Tmap_traits@V?$basic_string@DU?$char_traits@D@std@@V?$allocator@D@2@@std@@V?$multimap@JP6A?AV?$shared_ptr@VImageSource@cinder@@@boost@@V?$shared_ptr@VDataSource@cinder@@@2@VOptions@ImageSource@cinder@@@ZU?$less@J@std@@V?$allocator@U?$pair@$$CBJP6A?AV?$shared_ptr@VImageSource@cinder@@@boost@@V?$shared_ptr@VDataSource@cinder@@@2@VOptions@ImageSource@cinder@@@Z@std@@@8@@2@U?$less@V?$basic_string@DU?$char_traits@D@std@@V?$allocator@D@2@@std@@@2@V?$allocator@U?$pair@$$CBV?$basic_string@DU?$char_traits@D@std@@V?$allocator@D@2@@std@@V?$multimap@JP6A?AV?$shared_ptr@VImageSource@cinder@@@boost@@V?$shared_ptr@VDataSource@cinder@@@2@VOptions@ImageSource@cinder@@@ZU?$less@J@std@@V?$allocator@U?$pair@$$CBJP6A?AV?$shared_ptr@VImageSource@cinder@@@boost@@V?$shared_ptr@VDataSource@cinder@@@2@VOptions@ImageSource@cinder@@@Z@std@@@8@@2@@std@@@2@$0A@@std@@@2@I@Z 00402370 f i cinder:ImageIo.obj
 0001:00001370       ?deallocate@?$allocator@VTouch@TouchEvent@app@cinder@@@std@@QAEXPAVTouch@TouchEvent@app@cinder@@I@Z 00402370 f i basicApp.obj
 0001:00001370       ?deallocate@?$allocator@V?$basic_string@DU?$char_traits@D@std@@V?$allocator@D@2@@std@@@std@@QAEXPAV?$basic_string@DU?$char_traits@D@std@@V?$allocator@D@2@@2@I@Z 00402370 f i basicApp.obj
 0001:00001370       ?deallocate@?$allocator@U?$pair@GG@std@@@std@@QAEXPAU?$pair@GG@2@I@Z 00402370 f i cinder:Font.obj
 0001:00001370       ?deallocate@?$allocator@U?$pair@KV?$function@$$A6A_NVMouseEvent@app@cinder@@@Z@boost@@@std@@@std@@QAEXPAU?$pair@KV?$function@$$A6A_NVMouseEvent@app@cinder@@@Z@boost@@@2@I@Z 00402370 f i cinder:App.obj
 0001:00001370       ?deallocate@?$allocator@W4SegmentType@Path2d@cinder@@@std@@QAEXPAW4SegmentType@Path2d@cinder@@I@Z 00402370 f i cinder:Path2D.obj
 0001:00001370       ?deallocate@?$allocator@U?$pair@HVTexture@gl@cinder@@@std@@@std@@QAEXPAU?$pair@HVTexture@gl@cinder@@@2@I@Z 00402370 f i cinder:Texture.obj
 0001:00001370       ?deallocate@?$allocator@V?$shared_ptr@VDisplay@cinder@@@boost@@@std@@QAEXPAV?$shared_ptr@VDisplay@cinder@@@boost@@I@Z 00402370 f i cinder:Display.obj
 0001:00001370       ?deallocate@?$allocator@U?$pair@GV?$Vec2@M@cinder@@@std@@@std@@QAEXPAU?$pair@GV?$Vec2@M@cinder@@@2@I@Z 00402370 f i cinder:Text.obj
 0001:00001370       ?deallocate@?$allocator@U?$pair@KV?$function@$$A6A_NVTouchEvent@app@cinder@@@Z@boost@@@std@@@std@@QAEXPAU?$pair@KV?$function@$$A6A_NVTouchEvent@app@cinder@@@Z@boost@@@2@I@Z 00402370 f i cinder:AppBasic.obj
 0001:00001370       ?deallocate@?$allocator@I@std@@QAEXPAII@Z 00402370 f i cinder:VBO.obj
 0001:00001370       ?deallocate@?$allocator@H@std@@QAEXPAHI@Z 00402370 f i cinder:VBO.obj
 0001:00001370       ?deallocate@?$allocator@G@std@@QAEXPAGI@Z 00402370 f i cinder:Font.obj
 0001:00001370       ?deallocate@?$allocator@U_Node@?$_Tree_nod@V?$_Tmap_traits@KV?$Vec2@M@cinder@@U?$less@K@std@@V?$allocator@U?$pair@$$CBKV?$Vec2@M@cinder@@@std@@@4@$0A@@std@@@std@@@std@@QAEXPAU_Node@?$_Tree_nod@V?$_Tmap_traits@KV?$Vec2@M@cinder@@U?$less@K@std@@V?$allocator@U?$pair@$$CBKV?$Vec2@M@cinder@@@std@@@4@$0A@@std@@@2@I@Z 00402370 f i cinder:AppImplMswBasic.obj
 0001:00001370       ?deallocate@?$allocator@U_Node@?$_Tree_nod@V?$_Tmap_traits@V?$basic_string@DU?$char_traits@D@std@@V?$allocator@D@2@@std@@PBU_GUID@@U?$less@V?$basic_string@DU?$char_traits@D@std@@V?$allocator@D@2@@std@@@2@V?$allocator@U?$pair@$$CBV?$basic_string@DU?$char_traits@D@std@@V?$allocator@D@2@@std@@PBU_GUID@@@std@@@2@$0A@@std@@@std@@@std@@QAEXPAU_Node@?$_Tree_nod@V?$_Tmap_traits@V?$basic_string@DU?$char_traits@D@std@@V?$allocator@D@2@@std@@PBU_GUID@@U?$less@V?$basic_string@DU?$char_traits@D@std@@V?$allocator@D@2@@std@@@2@V?$allocator@U?$pair@$$CBV?$basic_string@DU?$char_traits@D@std@@V?$allocator@D@2@@std@@PBU_GUID@@@std@@@2@$0A@@std@@@2@I@Z 00402370 f i cinder:ImageTargetFileWic.obj
 0001:00001370       ?deallocate@?$allocator@U?$pair@W4CustomAttr@Layout@VboMesh@gl@cinder@@I@std@@@std@@QAEXPAU?$pair@W4CustomAttr@Layout@VboMesh@gl@cinder@@I@2@I@Z 00402370 f i cinder:VBO.obj
 0001:00001370       ?deallocate@?$allocator@_W@std@@QAEXPA_WI@Z 00402370 f i cinder:AppBasic.obj
 0001:00001370       ?deallocate@?$allocator@VPath2d@cinder@@@std@@QAEXPAVPath2d@cinder@@I@Z 00402370 f i cinder:Font.obj
 0001:00001370       ?deallocate@?$allocator@D@std@@QAEXPADI@Z 00402370 f i basicApp.obj
 0001:00001370       ?deallocate@?$allocator@U_Node@?$_Tree_nod@V?$_Tmap_traits@JU?$pair@P6A?AV?$shared_ptr@VImageTarget@cinder@@@boost@@V?$shared_ptr@VDataTarget@cinder@@@2@V?$shared_ptr@VImageSource@cinder@@@2@VOptions@ImageTarget@cinder@@ABV?$basic_string@DU?$char_traits@D@std@@V?$allocator@D@2@@std@@@ZV89@@std@@U?$less@J@2@V?$allocator@U?$pair@$$CBJU?$pair@P6A?AV?$shared_ptr@VImageTarget@cinder@@@boost@@V?$shared_ptr@VDataTarget@cinder@@@2@V?$shared_ptr@VImageSource@cinder@@@2@VOptions@ImageTarget@cinder@@ABV?$basic_string@DU?$char_traits@D@std@@V?$allocator@D@2@@std@@@ZV89@@std@@@std@@@2@$00@std@@@std@@@std@@QAEXPAU_Node@?$_Tree_nod@V?$_Tmap_traits@JU?$pair@P6A?AV?$shared_ptr@VImageTarget@cinder@@@boost@@V?$shared_ptr@VDataTarget@cinder@@@2@V?$shared_ptr@VImageSource@cinder@@@2@VOptions@ImageTarget@cinder@@ABV?$basic_string@DU?$char_traits@D@std@@V?$allocator@D@2@@std@@@ZV89@@std@@U?$less@J@2@V?$allocator@U?$pair@$$CBJU?$pair@P6A?AV?$shared_ptr@VImageTarget@cinder@@@boost@@V?$shared_ptr@VDataTarget@cinder@@@2@V?$shared_ptr@VImageSource@cinder@@@2@VOptions@ImageTarget@cinder@@ABV?$basic_string@DU?$char_traits@D@std@@V?$allocator@D@2@@std@@@ZV89@@std@@@std@@@2@$00@std@@@2@I@Z 00402370 f i cinder:ImageIo.obj
 0001:00001370       ?deallocate@?$allocator@U?$pair@KV?$function@$$A6A_NVFileDropEvent@app@cinder@@@Z@boost@@@std@@@std@@QAEXPAU?$pair@KV?$function@$$A6A_NVFileDropEvent@app@cinder@@@Z@boost@@@2@I@Z 00402370 f i cinder:App.obj
 0001:00001370       ?deallocate@?$allocator@PAV?$shared_ptr@VLine@cinder@@@boost@@@std@@QAEXPAPAV?$shared_ptr@VLine@cinder@@@boost@@I@Z 00402370 f i cinder:Text.obj
 0001:00001390       ?_Destroy@?$vector@V?$basic_string@DU?$char_traits@D@std@@V?$allocator@D@2@@std@@V?$allocator@V?$basic_string@DU?$char_traits@D@std@@V?$allocator@D@2@@std@@@2@@std@@IAEXPAV?$basic_string@DU?$char_traits@D@std@@V?$allocator@D@2@@2@0@Z 00402390 f i basicApp.obj
 0001:000013c0       ?clear@?$list@V?$Vec2@M@cinder@@V?$allocator@V?$Vec2@M@cinder@@@std@@@std@@QAEXXZ 004023c0 f i basicApp.obj
 0001:00001460       ?_Buynode@?$list@V?$Vec2@M@cinder@@V?$allocator@V?$Vec2@M@cinder@@@std@@@std@@IAEPAU_Node@?$_List_nod@V?$Vec2@M@cinder@@V?$allocator@V?$Vec2@M@cinder@@@std@@@2@PAU342@0ABV?$Vec2@M@cinder@@@Z 00402460 f i basicApp.obj
 0001:000015a0       ?_Incsize@?$list@V?$Vec2@M@cinder@@V?$allocator@V?$Vec2@M@cinder@@@std@@@std@@IAEXI@Z 004025a0 f i basicApp.obj
 0001:00001640       ??0?$_List_ptr@V?$Vec2@M@cinder@@V?$allocator@V?$Vec2@M@cinder@@@std@@@std@@IAE@V?$allocator@V?$Vec2@M@cinder@@@1@@Z 00402640 f i basicApp.obj
 0001:00001680       ?allocate@?$allocator@U_Node@?$_List_nod@V?$Vec2@M@cinder@@V?$allocator@V?$Vec2@M@cinder@@@std@@@std@@@std@@QAEPAU_Node@?$_List_nod@V?$Vec2@M@cinder@@V?$allocator@V?$Vec2@M@cinder@@@std@@@2@I@Z 00402680 f i basicApp.obj
 0001:000016a0       ??0?$_Const_iterator@$00@?$list@V?$Vec2@M@cinder@@V?$allocator@V?$Vec2@M@cinder@@@std@@@std@@QAE@PAU_Node@?$_List_nod@V?$Vec2@M@cinder@@V?$allocator@V?$Vec2@M@cinder@@@std@@@2@PBV12@@Z 004026a0 f i basicApp.obj
 0001:000016f0       ??0length_error@std@@QAE@ABV01@@Z 004026f0 f i basicApp.obj
 0001:00001720       ??0?$_Ranit@W4SegmentType@Path2d@cinder@@HPBW4123@ABW4123@@std@@QAE@XZ 00402720 f i cinder:Path2D.obj
 0001:00001720       ??0?$_Ranit@U?$pair@KV?$function@$$A6A_NVMouseEvent@app@cinder@@@Z@boost@@@std@@HPBU12@ABU12@@std@@QAE@XZ 00402720 f i cinder:App.obj
 0001:00001720       ??0?$_Ranit@U?$pair@KV?$function@$$A6A_NVResizeEvent@app@cinder@@@Z@boost@@@std@@HPBU12@ABU12@@std@@QAE@XZ 00402720 f i cinder:App.obj
 0001:00001720       ??0?$_Bidit@U?$pair@$$CBV?$basic_string@DU?$char_traits@D@std@@V?$allocator@D@2@@std@@_N@std@@HPBU12@ABU12@@std@@QAE@XZ 00402720 f i cinder:gl.obj
 0001:00001720       ??0?$_Ranit@DHPBDABD@std@@QAE@XZ 00402720 f i cinder:Stream.obj
 0001:00001720       ??0?$_Ranit@U?$pair@HVTexture@gl@cinder@@@std@@HPBU12@ABU12@@std@@QAE@XZ 00402720 f i cinder:Texture.obj
 0001:00001720       ??0?$_Bidit@V?$Vec2@M@cinder@@HPBV12@ABV12@@std@@QAE@XZ 00402720 f i basicApp.obj
 0001:00001720       ??0?$_Ranit@U?$pair@KV?$function@$$A6A_NVFileDropEvent@app@cinder@@@Z@boost@@@std@@HPBU12@ABU12@@std@@QAE@XZ 00402720 f i cinder:App.obj
 0001:00001720       ??0?$_Bidit@U?$pair@$$CBV?$basic_string@DU?$char_traits@D@std@@V?$allocator@D@2@@std@@V?$multimap@JP6A?AV?$shared_ptr@VImageSource@cinder@@@boost@@V?$shared_ptr@VDataSource@cinder@@@2@VOptions@ImageSource@cinder@@@ZU?$less@J@std@@V?$allocator@U?$pair@$$CBJP6A?AV?$shared_ptr@VImageSource@cinder@@@boost@@V?$shared_ptr@VDataSource@cinder@@@2@VOptions@ImageSource@cinder@@@Z@std@@@8@@2@@std@@HPBU12@ABU12@@std@@QAE@XZ 00402720 f i cinder:ImageIo.obj
 0001:00001720       ??0?$_Ranit@U?$pair@KV?$function@$$A6A_NVTouchEvent@app@cinder@@@Z@boost@@@std@@HPBU12@ABU12@@std@@QAE@XZ 00402720 f i cinder:AppBasic.obj
 0001:00001720       ??0?$_Ranit@GHPBGABG@std@@QAE@XZ 00402720 f i cinder:Font.obj
 0001:00001720       ??0?$_Ranit@VPath2d@cinder@@HPBV12@ABV12@@std@@QAE@XZ 00402720 f i cinder:gl.obj
 0001:00001720       ??0?$_Ranit@V?$Vec2@M@cinder@@HPBV12@ABV12@@std@@QAE@XZ 00402720 f i cinder:Path2D.obj
 0001:00001720       ??0?$_Ranit@URun@cinder@@HPBU12@ABU12@@std@@QAE@XZ 00402720 f i cinder:Text.obj
 0001:00001720       ??0?$_Ranit@V?$shared_ptr@VDisplay@cinder@@@boost@@HPBV12@ABV12@@std@@QAE@XZ 00402720 f i cinder:Display.obj
 0001:00001720       ??0?$_Bidit@U?$pair@$$CBKV?$Vec2@M@cinder@@@std@@HPBU12@ABU12@@std@@QAE@XZ 00402720 f i cinder:AppImplMswBasic.obj
 0001:00001720       ??0?$_Bidit@U?$pair@$$CBV?$basic_string@DU?$char_traits@D@std@@V?$allocator@D@2@@std@@V?$multimap@JU?$pair@P6A?AV?$shared_ptr@VImageTarget@cinder@@@boost@@V?$shared_ptr@VDataTarget@cinder@@@2@V?$shared_ptr@VImageSource@cinder@@@2@VOptions@ImageTarget@cinder@@ABV?$basic_string@DU?$char_traits@D@std@@V?$allocator@D@2@@std@@@ZV89@@std@@U?$less@J@2@V?$allocator@U?$pair@$$CBJU?$pair@P6A?AV?$shared_ptr@VImageTarget@cinder@@@boost@@V?$shared_ptr@VDataTarget@cinder@@@2@V?$shared_ptr@VImageSource@cinder@@@2@VOptions@ImageTarget@cinder@@ABV?$basic_string@DU?$char_traits@D@std@@V?$allocator@D@2@@std@@@ZV89@@std@@@std@@@2@@2@@std@@HPBU12@ABU12@@std@@QAE@XZ 00402720 f i cinder:ImageIo.obj
 0001:00001720       ??0?$_Ranit@U?$pair@W4CustomAttr@Layout@VboMesh@gl@cinder@@I@std@@HPBU12@ABU12@@std@@QAE@XZ 00402720 f i cinder:VBO.obj
 0001:00001720       ??0?$_Ranit@U?$pair@GG@std@@HPBU12@ABU12@@std@@QAE@XZ 00402720 f i cinder:Font.obj
 0001:00001720       ??0?$_Bidit@U?$pair@$$CBV?$basic_string@DU?$char_traits@D@std@@V?$allocator@D@2@@std@@PBU_GUID@@@std@@HPBU12@ABU12@@std@@QAE@XZ 00402720 f i cinder:ImageTargetFileWic.obj
 0001:00001720       ??0?$_Bidit@U?$pair@$$CBJU?$pair@P6A?AV?$shared_ptr@VImageTarget@cinder@@@boost@@V?$shared_ptr@VDataTarget@cinder@@@2@V?$shared_ptr@VImageSource@cinder@@@2@VOptions@ImageTarget@cinder@@ABV?$basic_string@DU?$char_traits@D@std@@V?$allocator@D@2@@std@@@ZV89@@std@@@std@@HPBU12@ABU12@@std@@QAE@XZ 00402720 f i cinder:ImageIo.obj
 0001:00001720       ??0?$_Ranit@VTouch@TouchEvent@app@cinder@@HPBV1234@ABV1234@@std@@QAE@XZ 00402720 f i cinder:AppBasic.obj
 0001:00001720       ??0?$_Ranit@IHPBIABI@std@@QAE@XZ 00402720 f i cinder:VBO.obj
 0001:00001720       ??0?$_Ranit@U?$pair@KV?$function@$$A6A_NVKeyEvent@app@cinder@@@Z@boost@@@std@@HPBU12@ABU12@@std@@QAE@XZ 00402720 f i cinder:App.obj
 0001:00001720       ??0?$_Ranit@V?$shared_ptr@VLine@cinder@@@boost@@HPBV12@ABV12@@std@@QAE@XZ 00402720 f i cinder:Text.obj
 0001:00001720       ??0?$_Ranit@_WHPB_WAB_W@std@@QAE@XZ 00402720 f i cinder:Utilities.obj
 0001:00001720       ??0?$_Bidit@U?$pair@$$CBJP6A?AV?$shared_ptr@VImageSource@cinder@@@boost@@V?$shared_ptr@VDataSource@cinder@@@2@VOptions@ImageSource@cinder@@@Z@std@@HPBU12@ABU12@@std@@QAE@XZ 00402720 f i cinder:ImageIo.obj
 0001:00001720       ??0?$_Ranit@U?$pair@GV?$Vec2@M@cinder@@@std@@HPBU12@ABU12@@std@@QAE@XZ 00402720 f i cinder:Text.obj
 0001:00001720       ??0?$_Ranit@V?$basic_string@DU?$char_traits@D@std@@V?$allocator@D@2@@std@@HPBV12@ABV12@@std@@QAE@XZ 00402720 f i cinder:AppBasic.obj
 0001:00001720       ??0?$_Ranit@HHPBHABH@std@@QAE@XZ 00402720 f i cinder:VBO.obj
 0001:00001740       ?max_size@?$basic_string@DU?$char_traits@D@std@@V?$allocator@D@2@@std@@QBEIXZ 00402740 f i basicApp.obj
 0001:00001740       ?max_size@?$basic_string@DU?$traits_extension@U?$char_traits@D@std@@@tokenizer_detail@boost@@V?$allocator@D@std@@@std@@QBEIXZ 00402740 f i cinder:Utilities.obj
 0001:00001780       ?_Copy@?$basic_string@DU?$char_traits@D@std@@V?$allocator@D@2@@std@@IAEXII@Z 00402780 f i basicApp.obj
 0001:00001900       ?_Inside@?$basic_string@DU?$char_traits@D@std@@V?$allocator@D@2@@std@@IAE_NPBD@Z 00402900 f i basicApp.obj
 0001:00001900       ?_Inside@?$basic_string@DU?$traits_extension@U?$char_traits@D@std@@@tokenizer_detail@boost@@V?$allocator@D@std@@@std@@IAE_NPBD@Z 00402900 f i cinder:Utilities.obj
 0001:00001940       ?construct@?$allocator@V?$Vec2@M@cinder@@@std@@QAEXPAV?$Vec2@M@cinder@@ABV34@@Z 00402940 f i basicApp.obj
 0001:00001960       ?max_size@?$allocator@V?$shared_ptr@VDisplay@cinder@@@boost@@@std@@QBEIXZ 00402960 f i cinder:Display.obj
 0001:00001960       ?max_size@?$allocator@U?$pair@W4CustomAttr@Layout@VboMesh@gl@cinder@@I@std@@@std@@QBEIXZ 00402960 f i cinder:VBO.obj
 0001:00001960       ?max_size@?$allocator@U?$pair@$$CBJP6A?AV?$shared_ptr@VImageSource@cinder@@@boost@@V?$shared_ptr@VDataSource@cinder@@@2@VOptions@ImageSource@cinder@@@Z@std@@@std@@QBEIXZ 00402960 f i cinder:ImageIo.obj
 0001:00001960       ?max_size@?$allocator@V?$Vec2@M@cinder@@@std@@QBEIXZ 00402960 f i basicApp.obj
 0001:00001960       ?max_size@?$allocator@V?$shared_ptr@VLine@cinder@@@boost@@@std@@QBEIXZ 00402960 f i cinder:Text.obj
 0001:00001990       ?max_size@?$list@V?$Vec2@M@cinder@@V?$allocator@V?$Vec2@M@cinder@@@std@@@std@@QBEIXZ 00402990 f i basicApp.obj
 0001:000019b0       ??0?$_Vector_val@V?$Vec2@M@cinder@@V?$allocator@V?$Vec2@M@cinder@@@std@@@std@@IAE@V?$allocator@V?$Vec2@M@cinder@@@1@@Z 004029b0 f i cinder:Path2D.obj
 0001:000019b0       ??0?$_List_nod@V?$Vec2@M@cinder@@V?$allocator@V?$Vec2@M@cinder@@@std@@@std@@IAE@V?$allocator@V?$Vec2@M@cinder@@@1@@Z 004029b0 f i basicApp.obj
 0001:000019f0       ?max_size@?$allocator@D@std@@QBEIXZ 004029f0 f i basicApp.obj
 0001:00001a20       ??$?0H@?$Vec2@M@cinder@@QAE@ABV?$Vec2@H@1@@Z 00402a20 f i basicApp.obj
 0001:00001a50       ??$copy_s@U?$char_traits@D@std@@@_Traits_helper@std@@YAPADPADIPBDI@Z 00402a50 f i basicApp.obj
 0001:00001a80       ??$_Allocate@D@std@@YAPADIPAD@Z 00402a80 f i basicApp.obj
 0001:00001ad0       ??$_Destroy_range@V?$allocator@VTouch@TouchEvent@app@cinder@@@std@@@std@@YAXPAVTouch@TouchEvent@app@cinder@@0AAV?$allocator@VTouch@TouchEvent@app@cinder@@@0@@Z 00402ad0 f i basicApp.obj
 0001:00001b10       ??$move_s@U?$char_traits@D@std@@@_Traits_helper@std@@YAPADPADIPBDI@Z 00402b10 f i basicApp.obj
 0001:00001b40       ??$_Destroy_range@V?$allocator@V?$basic_string@DU?$char_traits@D@std@@V?$allocator@D@2@@std@@@std@@@std@@YAXPAV?$basic_string@DU?$char_traits@D@std@@V?$allocator@D@2@@0@0AAV?$allocator@V?$basic_string@DU?$char_traits@D@std@@V?$allocator@D@2@@std@@@0@@Z 00402b40 f i basicApp.obj
 0001:00001b80       ??$_Allocate@U_Node@?$_List_nod@V?$Vec2@M@cinder@@V?$allocator@V?$Vec2@M@cinder@@@std@@@std@@@std@@YAPAU_Node@?$_List_nod@V?$Vec2@M@cinder@@V?$allocator@V?$Vec2@M@cinder@@@std@@@0@IPAU120@@Z 00402b80 f i basicApp.obj
 0001:00001bd0       ??$_Construct@V?$Vec2@M@cinder@@V12@@std@@YAXPAV?$Vec2@M@cinder@@ABV12@@Z 00402bd0 f i basicApp.obj
 0001:00001c20       ??0bad_alloc@std@@QAE@ABV01@@Z 00402c20 f i basicApp.obj
 0001:00001c50       ??$copy_s@U?$char_traits@D@std@@@_Traits_helper@std@@YAPADPADIPBDIU_Secure_char_traits_tag@1@@Z 00402c50 f i basicApp.obj
 0001:00001c70       ??$_Destroy_range@V?$allocator@VTouch@TouchEvent@app@cinder@@@std@@@std@@YAXPAVTouch@TouchEvent@app@cinder@@0AAV?$allocator@VTouch@TouchEvent@app@cinder@@@0@U_Nonscalar_ptr_iterator_tag@0@@Z 00402c70 f i basicApp.obj
 0001:00001ca0       ??$move_s@U?$char_traits@D@std@@@_Traits_helper@std@@YAPADPADIPBDIU_Secure_char_traits_tag@1@@Z 00402ca0 f i basicApp.obj
 0001:00001cc0       ??$_Destroy_range@V?$allocator@V?$basic_string@DU?$char_traits@D@std@@V?$allocator@D@2@@std@@@std@@@std@@YAXPAV?$basic_string@DU?$char_traits@D@std@@V?$allocator@D@2@@0@0AAV?$allocator@V?$basic_string@DU?$char_traits@D@std@@V?$allocator@D@2@@std@@@0@U_Nonscalar_ptr_iterator_tag@0@@Z 00402cc0 f i basicApp.obj
 0001:00001cf0       ?destroy@?$allocator@V?$basic_string@DU?$char_traits@D@std@@V?$allocator@D@2@@std@@@std@@QAEXPAV?$basic_string@DU?$char_traits@D@std@@V?$allocator@D@2@@2@@Z 00402cf0 f i basicApp.obj
 0001:00001d10       ??$_Destroy@V?$basic_string@DU?$char_traits@D@std@@V?$allocator@D@2@@std@@@std@@YAXPAV?$basic_string@DU?$char_traits@D@std@@V?$allocator@D@2@@0@@Z 00402d10 f i basicApp.obj
 0001:00001d20       ??_G?$basic_string@DU?$char_traits@D@std@@V?$allocator@D@2@@std@@QAEPAXI@Z 00402d20 f i basicApp.obj
 0001:00001d50       ??0RendererGl@app@cinder@@QAE@XZ 00402d50 f   cinder:Renderer.obj
 0001:00001d90       ??0RendererGl@app@cinder@@QAE@H@Z 00402d90 f   cinder:Renderer.obj
 0001:00001dd0       ?setAntiAliasing@RendererGl@app@cinder@@QAEXH@Z 00402dd0 f   cinder:Renderer.obj
 0001:00001df0       ??1RendererGl@app@cinder@@UAE@XZ 00402df0 f   cinder:Renderer.obj
 0001:00001e30       ?setup@RendererGl@app@cinder@@UAEXPAVApp@23@PAUHWND__@@PAUHDC__@@@Z 00402e30 f   cinder:Renderer.obj
 0001:00001ef0       ?kill@RendererGl@app@cinder@@UAEXXZ 00402ef0 f   cinder:Renderer.obj
 0001:00001f10       ?prepareToggleFullScreen@RendererGl@app@cinder@@UAEXXZ 00402f10 f   cinder:Renderer.obj
 0001:00001f30       ?finishToggleFullScreen@RendererGl@app@cinder@@UAEXXZ 00402f30 f   cinder:Renderer.obj
 0001:00001f50       ?startDraw@RendererGl@app@cinder@@UAEXXZ 00402f50 f   cinder:Renderer.obj
 0001:00001f70       ?finishDraw@RendererGl@app@cinder@@UAEXXZ 00402f70 f   cinder:Renderer.obj
 0001:00001f90       ?defaultResize@RendererGl@app@cinder@@UAEXXZ 00402f90 f   cinder:Renderer.obj
 0001:00001fb0       ?copyWindowSurface@RendererGl@app@cinder@@UAE?AV?$SurfaceT@E@3@ABV?$AreaT@J@3@@Z 00402fb0 f   cinder:Renderer.obj
 0001:000020d0       ??0Renderer2d@app@cinder@@QAE@_N@Z 004030d0 f   cinder:Renderer.obj
 0001:00002100       ?setup@Renderer2d@app@cinder@@UAEXPAVApp@23@PAUHWND__@@PAUHDC__@@@Z 00403100 f   cinder:Renderer.obj
 0001:000021b0       ?kill@Renderer2d@app@cinder@@UAEXXZ 004031b0 f   cinder:Renderer.obj
 0001:000021d0       ?getDc@Renderer2d@app@cinder@@UAEPAUHDC__@@XZ 004031d0 f   cinder:Renderer.obj
 0001:000021f0       ?prepareToggleFullScreen@Renderer2d@app@cinder@@UAEXXZ 004031f0 f   cinder:Renderer.obj
 0001:00002210       ?finishToggleFullScreen@Renderer2d@app@cinder@@UAEXXZ 00403210 f   cinder:Renderer.obj
 0001:00002230       ?startDraw@Renderer2d@app@cinder@@UAEXXZ 00403230 f   cinder:Renderer.obj
 0001:00002250       ?finishDraw@Renderer2d@app@cinder@@UAEXXZ 00403250 f   cinder:Renderer.obj
 0001:00002270       ?defaultResize@Renderer2d@app@cinder@@UAEXXZ 00403270 f   cinder:Renderer.obj
 0001:00002290       ?copyWindowSurface@Renderer2d@app@cinder@@UAE?AV?$SurfaceT@E@3@ABV?$AreaT@J@3@@Z 00403290 f   cinder:Renderer.obj
 0001:000022d0       ?getDc@Renderer@app@cinder@@UAEPAUHDC__@@XZ 004032d0 f i cinder:Renderer.obj
 0001:000022f0       ??_ERendererGl@app@cinder@@UAEPAXI@Z 004032f0 f i cinder:Renderer.obj
 0001:000022f0       ??_GRendererGl@app@cinder@@UAEPAXI@Z 004032f0 f i cinder:Renderer.obj
 0001:00002320       ??0Renderer@app@cinder@@QAE@XZ 00403320 f i cinder:Renderer.obj
 0001:00002340       ??_GRenderer@app@cinder@@UAEPAXI@Z 00403340 f i cinder:Renderer.obj
 0001:00002340       ??_ERenderer@app@cinder@@UAEPAXI@Z 00403340 f i cinder:Renderer.obj
 0001:00002370       ??1Renderer@app@cinder@@UAE@XZ 00403370 f i cinder:Renderer.obj
 0001:00002390       ??1shared_count@detail@boost@@QAE@XZ 00403390 f i cinder:Renderer.obj
 0001:000023b0       ?release@sp_counted_base@detail@boost@@QAEXXZ 004033b0 f i cinder:Renderer.obj
 0001:000023e0       ?weak_release@sp_counted_base@detail@boost@@QAEXXZ 004033e0 f i cinder:Renderer.obj
 0001:00002410       ??0shared_count@detail@boost@@QAE@ABV012@@Z 00403410 f i cinder:Renderer.obj
 0001:00002440       ?add_ref_copy@sp_counted_base@detail@boost@@QAEXXZ 00403440 f i cinder:Renderer.obj
 0001:00002460       ?getHwnd@RendererGl@app@cinder@@UAEPAUHWND__@@XZ 00403460 f i cinder:Renderer.obj
 0001:00002460       ?getDataType@ImageIo@cinder@@QBE?AW4DataType@12@XZ 00403460 f i cinder:Texture.obj
 0001:00002460       ?getHwnd@Renderer2d@app@cinder@@UAEPAUHWND__@@XZ 00403460 f i cinder:Renderer.obj
 0001:00002480       ??_ERenderer2d@app@cinder@@UAEPAXI@Z 00403480 f i cinder:Renderer.obj
 0001:00002480       ??_GRenderer2d@app@cinder@@UAEPAXI@Z 00403480 f i cinder:Renderer.obj
 0001:000024b0       ??1Renderer2d@app@cinder@@UAE@XZ 004034b0 f i cinder:Renderer.obj
 0001:000024d0       ?getWidth@?$AreaT@J@cinder@@QBEJXZ 004034d0 f i cinder:Renderer.obj
 0001:000024f0       ?getHeight@?$AreaT@J@cinder@@QBEJXZ 004034f0 f i cinder:Renderer.obj
 0001:00002510       ??0AppBasic@app@cinder@@QAE@XZ 00403510 f   cinder:AppBasic.obj
 0001:000025e0       ??1AppBasic@app@cinder@@UAE@XZ 004035e0 f   cinder:AppBasic.obj
 0001:000026e0       ?executeLaunch@AppBasic@app@cinder@@SAXPAV123@PAVRenderer@23@PBD@Z 004036e0 f   cinder:AppBasic.obj
 0001:00002870       ?launch@AppBasic@app@cinder@@UAEXPBDHQBQAD@Z 00403870 f   cinder:AppBasic.obj
 0001:000029d0       ?getWindowWidth@AppBasic@app@cinder@@UBEHXZ 004039d0 f   cinder:AppBasic.obj
 0001:000029f0       ?getWindowHeight@AppBasic@app@cinder@@UBEHXZ 004039f0 f   cinder:AppBasic.obj
 0001:00002a10       ?setWindowWidth@AppBasic@app@cinder@@UAEXH@Z 00403a10 f   cinder:AppBasic.obj
 0001:00002a40       ?setWindowHeight@AppBasic@app@cinder@@UAEXH@Z 00403a40 f   cinder:AppBasic.obj
 0001:00002a70       ?setWindowSize@AppBasic@app@cinder@@UAEXHH@Z 00403a70 f   cinder:AppBasic.obj
 0001:00002aa0       ?getFrameRate@AppBasic@app@cinder@@UBEMXZ 00403aa0 f   cinder:AppBasic.obj
 0001:00002ac0       ?setFrameRate@AppBasic@app@cinder@@UAEXM@Z 00403ac0 f   cinder:AppBasic.obj
 0001:00002b00       ?isFullScreen@AppBasic@app@cinder@@UBE_NXZ 00403b00 f   cinder:AppBasic.obj
 0001:00002b20       ?setFullScreen@AppBasic@app@cinder@@UAEX_N@Z 00403b20 f   cinder:AppBasic.obj
 0001:00002b60       ?getMousePos@AppBasic@app@cinder@@QBE?AV?$Vec2@H@3@XZ 00403b60 f   cinder:AppBasic.obj
 0001:00002b90       ?getAppPath@AppBasic@app@cinder@@UAE?AV?$basic_string@DU?$char_traits@D@std@@V?$allocator@D@2@@std@@XZ 00403b90 f   cinder:AppBasic.obj
 0001:00002bc0       ?hideCursor@AppBasic@app@cinder@@QAEXXZ 00403bc0 f   cinder:AppBasic.obj
 0001:00002bd0       ?showCursor@AppBasic@app@cinder@@QAEXXZ 00403bd0 f   cinder:AppBasic.obj
 0001:00002be0       ?quit@AppBasic@app@cinder@@UAEXXZ 00403be0 f   cinder:AppBasic.obj
 0001:00002c10       ?getDisplay@AppBasic@app@cinder@@QAEABVDisplay@3@XZ 00403c10 f   cinder:AppBasic.obj
 0001:00002ca0       ?privateResize__@AppBasic@app@cinder@@UAEXABVResizeEvent@23@@Z 00403ca0 f   cinder:AppBasic.obj
 0001:00002cc0       ?privateTouchesBegan__@AppBasic@app@cinder@@QAEXABVTouchEvent@23@@Z 00403cc0 f   cinder:AppBasic.obj
 0001:00002dc0       ?privateTouchesMoved__@AppBasic@app@cinder@@QAEXABVTouchEvent@23@@Z 00403dc0 f   cinder:AppBasic.obj
 0001:00002ec0       ?privateTouchesEnded__@AppBasic@app@cinder@@QAEXABVTouchEvent@23@@Z 00403ec0 f   cinder:AppBasic.obj
 0001:00002fc0       ??0Settings@AppBasic@app@cinder@@QAE@XZ 00403fc0 f   cinder:AppBasic.obj
 0001:00003070       ?setShouldQuit@Settings@AppBasic@app@cinder@@QAEX_N@Z 00404070 f   cinder:AppBasic.obj
 0001:00003090       ?setFullScreenSize@Settings@AppBasic@app@cinder@@QAEXHH@Z 00404090 f   cinder:AppBasic.obj
 0001:000030b0       ?setFullScreen@Settings@AppBasic@app@cinder@@QAEX_N@Z 004040b0 f   cinder:AppBasic.obj
 0001:000030d0       ?setResizable@Settings@AppBasic@app@cinder@@QAEX_N@Z 004040d0 f   cinder:AppBasic.obj
 0001:000030f0       ?setDisplay@Settings@AppBasic@app@cinder@@QAEXV?$shared_ptr@VDisplay@cinder@@@boost@@@Z 004040f0 f   cinder:AppBasic.obj
 0001:00003150       ?finishToggleFullScreen@Renderer@app@cinder@@UAEXXZ 00404150 f i cinder:Renderer.obj
 0001:00003150       ?prepareToggleFullScreen@Renderer@app@cinder@@UAEXXZ 00404150 f i cinder:Renderer.obj
 0001:00003150       ?startDraw@Renderer@app@cinder@@UAEXXZ 00404150 f i cinder:Renderer.obj
 0001:00003150       ?prepareToggleFullScreen@AppImplMswRenderer@app@cinder@@UAEXXZ 00404150 f i cinder:AppImplMswRendererGl.obj
 0001:00003150       ?draw@App@app@cinder@@UAEXXZ 00404150 f i cinder:AppBasic.obj
 0001:00003150       ?finalize@ImageTarget@cinder@@UAEXXZ 00404150 f i cinder:Surface.obj
 0001:00003150       ?finishDraw@Renderer@app@cinder@@UAEXXZ 00404150 f i cinder:Renderer.obj
 0001:00003150       ?update@App@app@cinder@@UAEXXZ 00404150 f i basicApp.obj
 0001:00003150       ?setup@App@app@cinder@@UAEXXZ 00404150 f i basicApp.obj
 0001:00003150       ?shutdown@App@app@cinder@@UAEXXZ 00404150 f i basicApp.obj
 0001:00003150       ?kill@AppImplMswRendererGdi@app@cinder@@UAEXXZ 00404150 f i cinder:AppImplMswRendererGdi.obj
 0001:00003150       ?finishToggleFullScreen@AppImplMswRenderer@app@cinder@@UAEXXZ 00404150 f i cinder:AppImplMswRendererGl.obj
 0001:00003150       ?reset@?$char_separator@DU?$char_traits@D@std@@@boost@@QAEXXZ 00404150 f i cinder:Utilities.obj
 0001:00003150       ?kill@Renderer@app@cinder@@UAEXXZ 00404150 f i cinder:Renderer.obj
 0001:00003150       ??1noncopyable@noncopyable_@boost@@IAE@XZ 00404150 f i cinder:Text.obj
 0001:00003150       ??1_Container_base_aux@std@@QAE@XZ 00404150 f i basicApp.obj
 0001:00003150       ?defaultResize@Renderer@app@cinder@@UAEXXZ 00404150 f i cinder:Renderer.obj
 0001:00003150       ?toggleFullScreen@AppImplMsw@app@cinder@@UAEXXZ 00404150 f i cinder:AppImplMsw.obj
 0001:00003160       ?mouseWheel@App@app@cinder@@UAEXVMouseEvent@23@@Z 00404160 f i basicApp.obj
 0001:00003160       ?mouseUp@App@app@cinder@@UAEXVMouseEvent@23@@Z 00404160 f i basicApp.obj
 0001:00003160       ?mouseMove@App@app@cinder@@UAEXVMouseEvent@23@@Z 00404160 f i basicApp.obj
 0001:00003160       ?mouseDown@App@app@cinder@@UAEXVMouseEvent@23@@Z 00404160 f i basicApp.obj
 0001:00003160       ?mouseDrag@App@app@cinder@@UAEXVMouseEvent@23@@Z 00404160 f i cinder:AppBasic.obj
 0001:00003180       ??_EAppBasic@app@cinder@@UAEPAXI@Z 00404180 f i cinder:AppBasic.obj
 0001:00003180       ??_GAppBasic@app@cinder@@UAEPAXI@Z 00404180 f i cinder:AppBasic.obj
 0001:000031b0       ??1Settings@AppBasic@app@cinder@@UAE@XZ 004041b0 f i cinder:AppBasic.obj
 0001:000031d0       ??1Settings@App@app@cinder@@MAE@XZ 004041d0 f i cinder:AppBasic.obj
 0001:000031f0       ??_ESettings@App@app@cinder@@MAEPAXI@Z 004041f0 f i cinder:AppBasic.obj
 0001:000031f0       ??_GSettings@App@app@cinder@@MAEPAXI@Z 004041f0 f i cinder:AppBasic.obj
 0001:00003220       ?isPrepared@Settings@App@app@cinder@@QBE_NXZ 00404220 f i cinder:AppBasic.obj
 0001:00003240       ?setTitle@Settings@App@app@cinder@@QAEXABV?$basic_string@DU?$char_traits@D@std@@V?$allocator@D@2@@std@@@Z 00404240 f i cinder:AppBasic.obj
 0001:00003260       ?getFrameRate@AppImplMsw@app@cinder@@QBEMXZ 00404260 f i cinder:AppBasic.obj
 0001:00003280       ?isFullScreen@Settings@App@app@cinder@@QBE_NXZ 00404280 f i cinder:AppImplMswBasic.obj
 0001:00003280       ?isFullScreen@AppImplMsw@app@cinder@@QBE_NXZ 00404280 f i cinder:AppBasic.obj
 0001:000032a0       ?getDisplay@AppImplMswBasic@app@cinder@@QAEPAVDisplay@3@XZ 004042a0 f i cinder:AppBasic.obj
 0001:000032c0       ??0TouchEvent@app@cinder@@QAE@ABV012@@Z 004042c0 f i cinder:AppBasic.obj
 0001:00003330       ??_ETouchEvent@app@cinder@@UAEPAXI@Z 00404330 f i cinder:AppBasic.obj
 0001:00003330       ??_GTouchEvent@app@cinder@@UAEPAXI@Z 00404330 f i cinder:AppBasic.obj
 0001:00003360       ??0Event@app@cinder@@QAE@ABV012@@Z 00404360 f i cinder:AppBasic.obj
 0001:00003380       ??_ESettings@AppBasic@app@cinder@@UAEPAXI@Z 00404380 f i cinder:AppBasic.obj
 0001:00003380       ??_GSettings@AppBasic@app@cinder@@UAEPAXI@Z 00404380 f i cinder:AppBasic.obj
 0001:000033b0       ??4?$basic_string@DU?$char_traits@D@std@@V?$allocator@D@2@@std@@QAEAAV01@ABV01@@Z 004043b0 f i cinder:AppBasic.obj
 0001:000033d0       ??0?$basic_string@_WU?$char_traits@_W@std@@V?$allocator@_W@2@@std@@QAE@PB_W@Z 004043d0 f i cinder:AppBasic.obj
 0001:00003410       ??1?$basic_string@_WU?$char_traits@_W@std@@V?$allocator@_W@2@@std@@QAE@XZ 00404410 f i cinder:AppBasic.obj
 0001:00003430       ??0?$vector@V?$basic_string@DU?$char_traits@D@std@@V?$allocator@D@2@@std@@V?$allocator@V?$basic_string@DU?$char_traits@D@std@@V?$allocator@D@2@@std@@@2@@std@@QAE@XZ 00404430 f i cinder:AppBasic.obj
 0001:000034a0       ??A?$vector@V?$basic_string@DU?$char_traits@D@std@@V?$allocator@D@2@@std@@V?$allocator@V?$basic_string@DU?$char_traits@D@std@@V?$allocator@D@2@@std@@@2@@std@@QAEAAV?$basic_string@DU?$char_traits@D@std@@V?$allocator@D@2@@1@I@Z 004044a0 f i cinder:AppBasic.obj
 0001:000034d0       ?size@?$vector@V?$basic_string@DU?$char_traits@D@std@@V?$allocator@D@2@@std@@V?$allocator@V?$basic_string@DU?$char_traits@D@std@@V?$allocator@D@2@@std@@@2@@std@@QBEIXZ 004044d0 f i cinder:AppBasic.obj
 0001:000034f0       ?push_back@?$vector@V?$basic_string@DU?$char_traits@D@std@@V?$allocator@D@2@@std@@V?$allocator@V?$basic_string@DU?$char_traits@D@std@@V?$allocator@D@2@@std@@@2@@std@@QAEXABV?$basic_string@DU?$char_traits@D@std@@V?$allocator@D@2@@2@@Z 004044f0 f i cinder:AppBasic.obj
 0001:00003570       ??0?$vector@VTouch@TouchEvent@app@cinder@@V?$allocator@VTouch@TouchEvent@app@cinder@@@std@@@std@@QAE@XZ 00404570 f i cinder:AppBasic.obj
 0001:000035e0       ??0?$vector@VTouch@TouchEvent@app@cinder@@V?$allocator@VTouch@TouchEvent@app@cinder@@@std@@@std@@QAE@ABV01@@Z 004045e0 f i cinder:AppBasic.obj
 0001:000036e0       ?begin@?$vector@V?$basic_string@DU?$char_traits@D@std@@V?$allocator@D@2@@std@@V?$allocator@V?$basic_string@DU?$char_traits@D@std@@V?$allocator@D@2@@std@@@2@@std@@QBE?AV?$_Vector_const_iterator@V?$basic_string@DU?$char_traits@D@std@@V?$allocator@D@2@@std@@V?$allocator@V?$basic_string@DU?$char_traits@D@std@@V?$allocator@D@2@@std@@@2@@2@XZ 004046e0 f i cinder:App.obj
 0001:000036e0       ?begin@?$vector@VTouch@TouchEvent@app@cinder@@V?$allocator@VTouch@TouchEvent@app@cinder@@@std@@@std@@QBE?AV?$_Vector_const_iterator@VTouch@TouchEvent@app@cinder@@V?$allocator@VTouch@TouchEvent@app@cinder@@@std@@@2@XZ 004046e0 f i cinder:AppBasic.obj
 0001:000036e0       ?begin@?$vector@VPath2d@cinder@@V?$allocator@VPath2d@cinder@@@std@@@std@@QBE?AV?$_Vector_const_iterator@VPath2d@cinder@@V?$allocator@VPath2d@cinder@@@std@@@2@XZ 004046e0 f i cinder:gl.obj
 0001:00003710       ?end@?$vector@V?$basic_string@DU?$char_traits@D@std@@V?$allocator@D@2@@std@@V?$allocator@V?$basic_string@DU?$char_traits@D@std@@V?$allocator@D@2@@std@@@2@@std@@QBE?AV?$_Vector_const_iterator@V?$basic_string@DU?$char_traits@D@std@@V?$allocator@D@2@@std@@V?$allocator@V?$basic_string@DU?$char_traits@D@std@@V?$allocator@D@2@@std@@@2@@2@XZ 00404710 f i cinder:App.obj
 0001:00003710       ?end@?$vector@VTouch@TouchEvent@app@cinder@@V?$allocator@VTouch@TouchEvent@app@cinder@@@std@@@std@@QBE?AV?$_Vector_const_iterator@VTouch@TouchEvent@app@cinder@@V?$allocator@VTouch@TouchEvent@app@cinder@@@std@@@2@XZ 00404710 f i cinder:AppBasic.obj
 0001:00003710       ?end@?$vector@VPath2d@cinder@@V?$allocator@VPath2d@cinder@@@std@@@std@@QBE?AV?$_Vector_const_iterator@VPath2d@cinder@@V?$allocator@VPath2d@cinder@@@std@@@2@XZ 00404710 f i cinder:gl.obj
 0001:00003740       ?assign@?$basic_string@DU?$char_traits@D@std@@V?$allocator@D@2@@std@@QAEAAV12@ABV12@@Z 00404740 f i cinder:AppBasic.obj
 0001:00003770       ?assign@?$basic_string@_WU?$char_traits@_W@std@@V?$allocator@_W@2@@std@@QAEAAV12@PB_W@Z 00404770 f i cinder:AppBasic.obj
 0001:000037a0       ?length@?$char_traits@_W@std@@SAIPB_W@Z 004047a0 f i cinder:AppBasic.obj
 0001:000037e0       ?_Tidy@?$basic_string@_WU?$char_traits@_W@std@@V?$allocator@_W@2@@std@@IAEX_NI@Z 004047e0 f i cinder:AppBasic.obj
 0001:00003860       ?capacity@?$vector@V?$basic_string@DU?$char_traits@D@std@@V?$allocator@D@2@@std@@V?$allocator@V?$basic_string@DU?$char_traits@D@std@@V?$allocator@D@2@@std@@@2@@std@@QBEIXZ 00404860 f i cinder:AppBasic.obj
 0001:000038a0       ?insert@?$vector@V?$basic_string@DU?$char_traits@D@std@@V?$allocator@D@2@@std@@V?$allocator@V?$basic_string@DU?$char_traits@D@std@@V?$allocator@D@2@@std@@@2@@std@@QAE?AV?$_Vector_iterator@V?$basic_string@DU?$char_traits@D@std@@V?$allocator@D@2@@std@@V?$allocator@V?$basic_string@DU?$char_traits@D@std@@V?$allocator@D@2@@std@@@2@@2@V?$_Vector_const_iterator@V?$basic_string@DU?$char_traits@D@std@@V?$allocator@D@2@@std@@V?$allocator@V?$basic_string@DU?$char_traits@D@std@@V?$allocator@D@2@@std@@@2@@2@ABV?$basic_string@DU?$char_traits@D@std@@V?$allocator@D@2@@2@@Z 004048a0 f i cinder:AppBasic.obj
 0001:00003920       ?_Buy@?$vector@V?$basic_string@DU?$char_traits@D@std@@V?$allocator@D@2@@std@@V?$allocator@V?$basic_string@DU?$char_traits@D@std@@V?$allocator@D@2@@std@@@2@@std@@IAE_NI@Z 00404920 f i cinder:AppBasic.obj
 0001:000039a0       ?_Ufill@?$vector@V?$basic_string@DU?$char_traits@D@std@@V?$allocator@D@2@@std@@V?$allocator@V?$basic_string@DU?$char_traits@D@std@@V?$allocator@D@2@@std@@@2@@std@@IAEPAV?$basic_string@DU?$char_traits@D@std@@V?$allocator@D@2@@2@PAV32@IABV32@@Z 004049a0 f i cinder:AppBasic.obj
 0001:000039e0       ?size@?$vector@VTouch@TouchEvent@app@cinder@@V?$allocator@VTouch@TouchEvent@app@cinder@@@std@@@std@@QBEIXZ 004049e0 f i cinder:AppBasic.obj
 0001:00003a00       ?assign@?$basic_string@_WU?$char_traits@_W@std@@V?$allocator@_W@2@@std@@QAEAAV12@PB_WI@Z 00404a00 f i cinder:AppBasic.obj
 0001:00003a90       ?assign@?$basic_string@_WU?$char_traits@_W@std@@V?$allocator@_W@2@@std@@QAEAAV12@ABV12@II@Z 00404a90 f i cinder:AppBasic.obj
 0001:00003b50       ?_Myptr@?$basic_string@_WU?$char_traits@_W@std@@V?$allocator@_W@2@@std@@IAEPA_WXZ 00404b50 f i cinder:AppBasic.obj
 0001:00003b50       ?_Myptr@?$basic_string@_WU?$char_traits@_W@std@@V?$allocator@_W@2@@std@@IBEPB_WXZ 00404b50 f i cinder:AppBasic.obj
 0001:00003b80       ?erase@?$basic_string@_WU?$char_traits@_W@std@@V?$allocator@_W@2@@std@@QAEAAV12@II@Z 00404b80 f i cinder:AppBasic.obj
 0001:00003c20       ?_Eos@?$basic_string@_WU?$char_traits@_W@std@@V?$allocator@_W@2@@std@@IAEXI@Z 00404c20 f i cinder:AppBasic.obj
 0001:00003c60       ?assign@?$char_traits@_W@std@@SAXAA_WAB_W@Z 00404c60 f i cinder:AppBasic.obj
 0001:00003c80       ?_Grow@?$basic_string@_WU?$char_traits@_W@std@@V?$allocator@_W@2@@std@@IAE_NI_N@Z 00404c80 f i cinder:AppBasic.obj
 0001:00003d20       ?max_size@?$vector@V?$basic_string@DU?$char_traits@D@std@@V?$allocator@D@2@@std@@V?$allocator@V?$basic_string@DU?$char_traits@D@std@@V?$allocator@D@2@@std@@@2@@std@@QBEIXZ 00404d20 f i cinder:AppBasic.obj
 0001:00003d40       ?_Insert_n@?$vector@V?$basic_string@DU?$char_traits@D@std@@V?$allocator@D@2@@std@@V?$allocator@V?$basic_string@DU?$char_traits@D@std@@V?$allocator@D@2@@std@@@2@@std@@IAEXV?$_Vector_const_iterator@V?$basic_string@DU?$char_traits@D@std@@V?$allocator@D@2@@std@@V?$allocator@V?$basic_string@DU?$char_traits@D@std@@V?$allocator@D@2@@std@@@2@@2@IABV?$basic_string@DU?$char_traits@D@std@@V?$allocator@D@2@@2@@Z 00404d40 f i cinder:AppBasic.obj
 0001:000040f0       ?allocate@?$allocator@U_Node@?$_Tree_nod@V?$_Tmap_traits@KV?$Vec2@M@cinder@@U?$less@K@std@@V?$allocator@U?$pair@$$CBKV?$Vec2@M@cinder@@@std@@@4@$0A@@std@@@std@@@std@@QAEPAU_Node@?$_Tree_nod@V?$_Tmap_traits@KV?$Vec2@M@cinder@@U?$less@K@std@@V?$allocator@U?$pair@$$CBKV?$Vec2@M@cinder@@@std@@@4@$0A@@std@@@2@I@Z 004050f0 f i cinder:AppImplMswBasic.obj
 0001:000040f0       ?allocate@?$allocator@V?$basic_string@DU?$char_traits@D@std@@V?$allocator@D@2@@std@@@std@@QAEPAV?$basic_string@DU?$char_traits@D@std@@V?$allocator@D@2@@2@I@Z 004050f0 f i cinder:AppBasic.obj
 0001:00004110       ?max_size@?$vector@U?$pair@KV?$function@$$A6A_NVResizeEvent@app@cinder@@@Z@boost@@@std@@V?$allocator@U?$pair@KV?$function@$$A6A_NVResizeEvent@app@cinder@@@Z@boost@@@std@@@2@@std@@QBEIXZ 00405110 f i cinder:App.obj
 0001:00004110       ?max_size@?$vector@VTouch@TouchEvent@app@cinder@@V?$allocator@VTouch@TouchEvent@app@cinder@@@std@@@std@@QBEIXZ 00405110 f i cinder:AppBasic.obj
 0001:00004110       ?max_size@?$vector@U?$pair@KV?$function@$$A6A_NVMouseEvent@app@cinder@@@Z@boost@@@std@@V?$allocator@U?$pair@KV?$function@$$A6A_NVMouseEvent@app@cinder@@@Z@boost@@@std@@@2@@std@@QBEIXZ 00405110 f i cinder:App.obj
 0001:00004110       ?max_size@?$vector@U?$pair@KV?$function@$$A6A_NVFileDropEvent@app@cinder@@@Z@boost@@@std@@V?$allocator@U?$pair@KV?$function@$$A6A_NVFileDropEvent@app@cinder@@@Z@boost@@@std@@@2@@std@@QBEIXZ 00405110 f i cinder:App.obj
 0001:00004110       ?max_size@?$vector@U?$pair@KV?$function@$$A6A_NVTouchEvent@app@cinder@@@Z@boost@@@std@@V?$allocator@U?$pair@KV?$function@$$A6A_NVTouchEvent@app@cinder@@@Z@boost@@@std@@@2@@std@@QBEIXZ 00405110 f i cinder:AppBasic.obj
 0001:00004110       ?max_size@?$vector@U?$pair@KV?$function@$$A6A_NVKeyEvent@app@cinder@@@Z@boost@@@std@@V?$allocator@U?$pair@KV?$function@$$A6A_NVKeyEvent@app@cinder@@@Z@boost@@@std@@@2@@std@@QBEIXZ 00405110 f i cinder:App.obj
 0001:00004130       ??G?$_Vector_const_iterator@V?$basic_string@DU?$char_traits@D@std@@V?$allocator@D@2@@std@@V?$allocator@V?$basic_string@DU?$char_traits@D@std@@V?$allocator@D@2@@std@@@2@@std@@QBEHABV01@@Z 00405130 f i cinder:AppBasic.obj
 0001:00004180       ??H?$_Vector_iterator@V?$basic_string@DU?$char_traits@D@std@@V?$allocator@D@2@@std@@V?$allocator@V?$basic_string@DU?$char_traits@D@std@@V?$allocator@D@2@@std@@@2@@std@@QBE?AV01@H@Z 00405180 f i cinder:AppBasic.obj
 0001:000041c0       ?max_size@?$basic_string@_WU?$char_traits@_W@std@@V?$allocator@_W@2@@std@@QBEIXZ 004051c0 f i cinder:AppBasic.obj
 0001:00004200       ?_Copy@?$basic_string@_WU?$char_traits@_W@std@@V?$allocator@_W@2@@std@@IAEXII@Z 00405200 f i cinder:AppBasic.obj
 0001:00004380       ?_Inside@?$basic_string@_WU?$char_traits@_W@std@@V?$allocator@_W@2@@std@@IAE_NPB_W@Z 00405380 f i cinder:AppBasic.obj
 0001:000043c0       ?max_size@?$allocator@V?$basic_string@DU?$char_traits@D@std@@V?$allocator@D@2@@std@@@std@@QBEIXZ 004053c0 f i cinder:AppBasic.obj
 0001:000043f0       ?max_size@?$allocator@U?$pair@KV?$function@$$A6A_NVMouseEvent@app@cinder@@@Z@boost@@@std@@@std@@QBEIXZ 004053f0 f i cinder:App.obj
 0001:000043f0       ?max_size@?$allocator@VTouch@TouchEvent@app@cinder@@@std@@QBEIXZ 004053f0 f i cinder:AppBasic.obj
 0001:000043f0       ?max_size@?$allocator@U?$pair@KV?$function@$$A6A_NVFileDropEvent@app@cinder@@@Z@boost@@@std@@@std@@QBEIXZ 004053f0 f i cinder:App.obj
 0001:000043f0       ?max_size@?$allocator@U?$pair@KV?$function@$$A6A_NVResizeEvent@app@cinder@@@Z@boost@@@std@@@std@@QBEIXZ 004053f0 f i cinder:App.obj
 0001:000043f0       ?max_size@?$allocator@U?$pair@KV?$function@$$A6A_NVKeyEvent@app@cinder@@@Z@boost@@@std@@@std@@QBEIXZ 004053f0 f i cinder:App.obj
 0001:000043f0       ?max_size@?$allocator@U?$pair@KV?$function@$$A6A_NVTouchEvent@app@cinder@@@Z@boost@@@std@@@std@@QBEIXZ 004053f0 f i cinder:AppBasic.obj
 0001:00004420       ??Y?$_Vector_iterator@V?$basic_string@DU?$char_traits@D@std@@V?$allocator@D@2@@std@@V?$allocator@V?$basic_string@DU?$char_traits@D@std@@V?$allocator@D@2@@std@@@2@@std@@QAEAAV01@H@Z 00405420 f i cinder:AppBasic.obj
 0001:00004440       ??Y?$_Vector_const_iterator@V?$basic_string@DU?$char_traits@D@std@@V?$allocator@D@2@@std@@V?$allocator@V?$basic_string@DU?$char_traits@D@std@@V?$allocator@D@2@@std@@@2@@std@@QAEAAV01@H@Z 00405440 f i cinder:AppBasic.obj
 0001:000044c0       ?max_size@?$allocator@_W@std@@QBEIXZ 004054c0 f i cinder:AppBasic.obj
 0001:000044c0       ?max_size@?$allocator@G@std@@QBEIXZ 004054c0 f i cinder:Font.obj
 0001:000044f0       ??R?$function1@_NVTouchEvent@app@cinder@@@boost@@QBE_NVTouchEvent@app@cinder@@@Z 004054f0 f i cinder:AppBasic.obj
 0001:000045c0       ??0bad_function_call@boost@@QAE@XZ 004055c0 f i cinder:AppBasic.obj
 0001:00004640       ??0runtime_error@std@@QAE@ABV?$basic_string@DU?$char_traits@D@std@@V?$allocator@D@2@@1@@Z 00405640 f i cinder:AppBasic.obj
 0001:000046b0       ??1runtime_error@std@@UAE@XZ 004056b0 f i cinder:AppBasic.obj
 0001:000046e0       ??_Gruntime_error@std@@UAEPAXI@Z 004056e0 f i cinder:AppBasic.obj
 0001:000046e0       ??_Eruntime_error@std@@UAEPAXI@Z 004056e0 f i cinder:AppBasic.obj
 0001:00004710       ??_Ebad_function_call@boost@@UAEPAXI@Z 00405710 f i cinder:AppBasic.obj
 0001:00004710       ??_Gbad_function_call@boost@@UAEPAXI@Z 00405710 f i cinder:AppBasic.obj
 0001:00004740       ??1bad_function_call@boost@@UAE@XZ 00405740 f i cinder:AppBasic.obj
 0001:00004760       ??$copy_s@U?$char_traits@_W@std@@@_Traits_helper@std@@YAPA_WPA_WIPB_WI@Z 00405760 f i cinder:AppBasic.obj
 0001:00004790       ??$_Ucopy@V?$_Vector_const_iterator@VTouch@TouchEvent@app@cinder@@V?$allocator@VTouch@TouchEvent@app@cinder@@@std@@@std@@@?$vector@VTouch@TouchEvent@app@cinder@@V?$allocator@VTouch@TouchEvent@app@cinder@@@std@@@std@@IAEPAVTouch@TouchEvent@app@cinder@@V?$_Vector_const_iterator@VTouch@TouchEvent@app@cinder@@V?$allocator@VTouch@TouchEvent@app@cinder@@@std@@@1@0PAV2345@@Z 00405790 f i cinder:AppBasic.obj
 0001:000047c0       ??$unchecked_uninitialized_fill_n@PAV?$basic_string@DU?$char_traits@D@std@@V?$allocator@D@2@@std@@IV12@V?$allocator@V?$basic_string@DU?$char_traits@D@std@@V?$allocator@D@2@@std@@@2@@stdext@@YAXPAV?$basic_string@DU?$char_traits@D@std@@V?$allocator@D@2@@std@@IABV12@AAV?$allocator@V?$basic_string@DU?$char_traits@D@std@@V?$allocator@D@2@@std@@@2@@Z 004057c0 f i cinder:AppBasic.obj
 0001:00004810       ??$move_s@U?$char_traits@_W@std@@@_Traits_helper@std@@YAPA_WPA_WIPB_WI@Z 00405810 f i cinder:AppBasic.obj
 0001:00004840       ??$_Umove@PAV?$basic_string@DU?$char_traits@D@std@@V?$allocator@D@2@@std@@@?$vector@V?$basic_string@DU?$char_traits@D@std@@V?$allocator@D@2@@std@@V?$allocator@V?$basic_string@DU?$char_traits@D@std@@V?$allocator@D@2@@std@@@2@@std@@IAEPAV?$basic_string@DU?$char_traits@D@std@@V?$allocator@D@2@@1@PAV21@00@Z 00405840 f i cinder:AppBasic.obj
 0001:00004870       ??$fill@PAV?$basic_string@DU?$char_traits@D@std@@V?$allocator@D@2@@std@@V12@@std@@YAXPAV?$basic_string@DU?$char_traits@D@std@@V?$allocator@D@2@@0@0ABV10@@Z 00405870 f i cinder:AppBasic.obj
 0001:000048a0       ??$_Unchecked_move_backward@PAV?$basic_string@DU?$char_traits@D@std@@V?$allocator@D@2@@std@@PAV12@@stdext@@YAPAV?$basic_string@DU?$char_traits@D@std@@V?$allocator@D@2@@std@@PAV12@00@Z 004058a0 f i cinder:AppBasic.obj
 0001:00004910       ??$_Allocate@U_Node@?$_Tree_nod@V?$_Tmap_traits@KV?$Vec2@M@cinder@@U?$less@K@std@@V?$allocator@U?$pair@$$CBKV?$Vec2@M@cinder@@@std@@@4@$0A@@std@@@std@@@std@@YAPAU_Node@?$_Tree_nod@V?$_Tmap_traits@KV?$Vec2@M@cinder@@U?$less@K@std@@V?$allocator@U?$pair@$$CBKV?$Vec2@M@cinder@@@std@@@4@$0A@@std@@@0@IPAU120@@Z 00405910 f i cinder:AppImplMswBasic.obj
 0001:00004910       ??$_Allocate@V?$basic_string@DU?$char_traits@D@std@@V?$allocator@D@2@@std@@@std@@YAPAV?$basic_string@DU?$char_traits@D@std@@V?$allocator@D@2@@0@IPAV10@@Z 00405910 f i cinder:AppBasic.obj
 0001:00004960       ??0?$allocator@U?$pair@$$CBV?$basic_string@DU?$char_traits@D@std@@V?$allocator@D@2@@std@@PBU_GUID@@@std@@@std@@QAE@ABV01@@Z 00405960 f i cinder:ImageTargetFileWic.obj
 0001:00004960       ??$?0H@?$allocator@V_Aux_cont@std@@@std@@QAE@ABV?$allocator@H@1@@Z 00405960 f i cinder:VBO.obj
 0001:00004960       ??0?$allocator@W4SegmentType@Path2d@cinder@@@std@@QAE@ABV01@@Z 00405960 f i cinder:Path2D.obj
 0001:00004960       ??0?$allocator@U?$pair@$$CBKV?$Vec2@M@cinder@@@std@@@std@@QAE@ABV01@@Z 00405960 f i cinder:AppImplMswBasic.obj
 0001:00004960       ??$?0VPath2d@cinder@@@?$allocator@V_Aux_cont@std@@@std@@QAE@ABV?$allocator@VPath2d@cinder@@@1@@Z 00405960 f i cinder:Font.obj
 0001:00004960       ??$?0VTouch@TouchEvent@app@cinder@@@?$allocator@V_Aux_cont@std@@@std@@QAE@ABV?$allocator@VTouch@TouchEvent@app@cinder@@@1@@Z 00405960 f i cinder:AppBasic.obj
 0001:00004960       ??$?0U?$pair@$$CBV?$basic_string@DU?$char_traits@D@std@@V?$allocator@D@2@@std@@_N@std@@@?$allocator@V_Aux_cont@std@@@std@@QAE@ABV?$allocator@U?$pair@$$CBV?$basic_string@DU?$char_traits@D@std@@V?$allocator@D@2@@std@@_N@std@@@1@@Z 00405960 f i cinder:gl.obj
 0001:00004960       ??0?$allocator@U?$pair@$$CBV?$basic_string@DU?$char_traits@D@std@@V?$allocator@D@2@@std@@V?$multimap@JP6A?AV?$shared_ptr@VImageSource@cinder@@@boost@@V?$shared_ptr@VDataSource@cinder@@@2@VOptions@ImageSource@cinder@@@ZU?$less@J@std@@V?$allocator@U?$pair@$$CBJP6A?AV?$shared_ptr@VImageSource@cinder@@@boost@@V?$shared_ptr@VDataSource@cinder@@@2@VOptions@ImageSource@cinder@@@Z@std@@@8@@2@@std@@@std@@QAE@ABV01@@Z 00405960 f i cinder:ImageIo.obj
 0001:00004960       ??$?0U?$pair@$$CBV?$basic_string@DU?$char_traits@D@std@@V?$allocator@D@2@@std@@V?$multimap@JP6A?AV?$shared_ptr@VImageSource@cinder@@@boost@@V?$shared_ptr@VDataSource@cinder@@@2@VOptions@ImageSource@cinder@@@ZU?$less@J@std@@V?$allocator@U?$pair@$$CBJP6A?AV?$shared_ptr@VImageSource@cinder@@@boost@@V?$shared_ptr@VDataSource@cinder@@@2@VOptions@ImageSource@cinder@@@Z@std@@@8@@2@@std@@@?$allocator@V_Aux_cont@std@@@std@@QAE@ABV?$allocator@U?$pair@$$CBV?$basic_string@DU?$char_traits@D@std@@V?$allocator@D@2@@std@@V?$multimap@JP6A?AV?$shared_ptr@VImageSource@cinder@@@boost@@V?$shared_ptr@VDataSource@cinder@@@2@VOptions@ImageSource@cinder@@@ZU?$less@J@std@@V?$allocator@U?$pair@$$CBJP6A?AV?$shared_ptr@VImageSource@cinder@@@boost@@V?$shared_ptr@VDataSource@cinder@@@2@VOptions@ImageSource@cinder@@@Z@std@@@8@@2@@std@@@1@@Z 00405960 f i cinder:ImageIo.obj
 0001:00004960       ??$?0U?$pair@$$CBV?$basic_string@DU?$char_traits@D@std@@V?$allocator@D@2@@std@@V?$multimap@JU?$pair@P6A?AV?$shared_ptr@VImageTarget@cinder@@@boost@@V?$shared_ptr@VDataTarget@cinder@@@2@V?$shared_ptr@VImageSource@cinder@@@2@VOptions@ImageTarget@cinder@@ABV?$basic_string@DU?$char_traits@D@std@@V?$allocator@D@2@@std@@@ZV89@@std@@U?$less@J@2@V?$allocator@U?$pair@$$CBJU?$pair@P6A?AV?$shared_ptr@VImageTarget@cinder@@@boost@@V?$shared_ptr@VDataTarget@cinder@@@2@V?$shared_ptr@VImageSource@cinder@@@2@VOptions@ImageTarget@cinder@@ABV?$basic_string@DU?$char_traits@D@std@@V?$allocator@D@2@@std@@@ZV89@@std@@@std@@@2@@2@@std@@@?$allocator@PAU_Node@?$_Tree_nod@V?$_Tmap_traits@V?$basic_string@DU?$char_traits@D@std@@V?$allocator@D@2@@std@@V?$multimap@JU?$pair@P6A?AV?$shared_ptr@VImageTarget@cinder@@@boost@@V?$shared_ptr@VDataTarget@cinder@@@2@V?$shared_ptr@VImageSource@cinder@@@2@VOptions@ImageTarget@cinder@@ABV?$basic_string@DU?$char_traits@D@std@@V?$allocator@D@2@@std@@@ZV89@@std@@U?$less@J@2@V?$allocator@U?$pair@$$CBJU?$pair@P6A?AV?$shared_ptr@VImageTarget@cinder@@@boost@@V?$shared_ptr@VDataTarget@cinder@@@2@V?$shared_ptr@VImageSource@cinder@@@2@VOptions@ImageTarget@cinder@@ABV?$basic_string@DU?$char_traits@D@std@@V?$allocator@D@2@@std@@@ZV89@@std@@@std@@@2@@2@U?$less@V?$basic_string@DU?$char_traits@D@std@@V?$allocator@D@2@@std@@@2@V?$allocator@U?$pair@$$CBV?$basic_string@DU?$char_traits@D@std@@V?$allocator@D@2@@std@@V?$multimap@JU?$pair@P6A?AV?$shared_ptr@VImageTarget@cinder@@@boost@@V?$shared_ptr@VDataTarget@cinder@@@2@V?$shared_ptr@VImageSource@cinder@@@2@VOptions@ImageTarget@cinder@@ABV?$basic_string@DU?$char_traits@D@std@@V?$allocator@D@2@@std@@@ZV89@@std@@U?$less@J@2@V?$allocator@U?$pair@$$CBJU?$pair@P6A?AV?$shared_ptr@VImageTarget@cinder@@@boost@@V?$shared_ptr@VDataTarget@cinder@@@2@V?$shared_ptr@VImageSource@cinder@@@2@VOptions@ImageTarget@cinder@@ABV?$basic_string@DU?$char_traits@D@std@@V?$allocator@D@2@@std@@@ZV89@@std@@@std@@@2@@2@@std@@@2@$0A@@std@@@std@@@std@@QAE@ABV?$allocator@U?$pair@$$CBV?$basic_string@DU?$char_traits@D@std@@V?$allocator@D@2@@std@@V?$multimap@JU?$pair@P6A?AV?$shared_ptr@VImageTarget@cinder@@@boost@@V?$shared_ptr@VDataTarget@cinder@@@2@V?$shared_ptr@VImageSource@cinder@@@2@VOptions@ImageTarget@cinder@@ABV?$basic_string@DU?$char_traits@D@std@@V?$allocator@D@2@@std@@@ZV89@@std@@U?$less@J@2@V?$allocator@U?$pair@$$CBJU?$pair@P6A?AV?$shared_ptr@VImageTarget@cinder@@@boost@@V?$shared_ptr@VDataTarget@cinder@@@2@V?$shared_ptr@VImageSource@cinder@@@2@VOptions@ImageTarget@cinder@@ABV?$basic_string@DU?$char_traits@D@std@@V?$allocator@D@2@@std@@@ZV89@@std@@@std@@@2@@2@@std@@@1@@Z 00405960 f i cinder:ImageIo.obj
 0001:00004960       ??$?0U?$pair@W4CustomAttr@Layout@VboMesh@gl@cinder@@I@std@@@?$allocator@V_Aux_cont@std@@@std@@QAE@ABV?$allocator@U?$pair@W4CustomAttr@Layout@VboMesh@gl@cinder@@I@std@@@1@@Z 00405960 f i cinder:VBO.obj
 0001:00004960       ??$?0U?$pair@GG@std@@@?$allocator@V_Aux_cont@std@@@std@@QAE@ABV?$allocator@U?$pair@GG@std@@@1@@Z 00405960 f i cinder:Font.obj
 0001:00004960       ??$?0U?$pair@$$CBJP6A?AV?$shared_ptr@VImageSource@cinder@@@boost@@V?$shared_ptr@VDataSource@cinder@@@2@VOptions@ImageSource@cinder@@@Z@std@@@?$allocator@V_Aux_cont@std@@@std@@QAE@ABV?$allocator@U?$pair@$$CBJP6A?AV?$shared_ptr@VImageSource@cinder@@@boost@@V?$shared_ptr@VDataSource@cinder@@@2@VOptions@ImageSource@cinder@@@Z@std@@@1@@Z 00405960 f i cinder:ImageIo.obj
 0001:00004960       ??0?$allocator@U?$pair@KV?$function@$$A6A_NVKeyEvent@app@cinder@@@Z@boost@@@std@@@std@@QAE@ABV01@@Z 00405960 f i cinder:App.obj
 0001:00004960       ??$?0U?$pair@$$CBKV?$Vec2@M@cinder@@@std@@@?$allocator@V_Aux_cont@std@@@std@@QAE@ABV?$allocator@U?$pair@$$CBKV?$Vec2@M@cinder@@@std@@@1@@Z 00405960 f i cinder:AppImplMswBasic.obj
 0001:00004960       ??0?$allocator@U?$pair@GG@std@@@std@@QAE@ABV01@@Z 00405960 f i cinder:Font.obj
 0001:00004960       ??0?$allocator@V?$shared_ptr@VDisplay@cinder@@@boost@@@std@@QAE@ABV01@@Z 00405960 f i cinder:Display.obj
 0001:00004960       ??$?0URun@cinder@@@?$allocator@V_Aux_cont@std@@@std@@QAE@ABV?$allocator@URun@cinder@@@1@@Z 00405960 f i cinder:Text.obj
 0001:00004960       ??$?0V?$basic_string@DU?$char_traits@D@std@@V?$allocator@D@2@@std@@@?$allocator@V_Aux_cont@std@@@std@@QAE@ABV?$allocator@V?$basic_string@DU?$char_traits@D@std@@V?$allocator@D@2@@std@@@1@@Z 00405960 f i cinder:AppBasic.obj
 0001:00004960       ??$?0U?$pair@$$CBV?$basic_string@DU?$char_traits@D@std@@V?$allocator@D@2@@std@@V?$multimap@JU?$pair@P6A?AV?$shared_ptr@VImageTarget@cinder@@@boost@@V?$shared_ptr@VDataTarget@cinder@@@2@V?$shared_ptr@VImageSource@cinder@@@2@VOptions@ImageTarget@cinder@@ABV?$basic_string@DU?$char_traits@D@std@@V?$allocator@D@2@@std@@@ZV89@@std@@U?$less@J@2@V?$allocator@U?$pair@$$CBJU?$pair@P6A?AV?$shared_ptr@VImageTarget@cinder@@@boost@@V?$shared_ptr@VDataTarget@cinder@@@2@V?$shared_ptr@VImageSource@cinder@@@2@VOptions@ImageTarget@cinder@@ABV?$basic_string@DU?$char_traits@D@std@@V?$allocator@D@2@@std@@@ZV89@@std@@@std@@@2@@2@@std@@@?$allocator@U_Node@?$_Tree_nod@V?$_Tmap_traits@V?$basic_string@DU?$char_traits@D@std@@V?$allocator@D@2@@std@@V?$multimap@JU?$pair@P6A?AV?$shared_ptr@VImageTarget@cinder@@@boost@@V?$shared_ptr@VDataTarget@cinder@@@2@V?$shared_ptr@VImageSource@cinder@@@2@VOptions@ImageTarget@cinder@@ABV?$basic_string@DU?$char_traits@D@std@@V?$allocator@D@2@@std@@@ZV89@@std@@U?$less@J@2@V?$allocator@U?$pair@$$CBJU?$pair@P6A?AV?$shared_ptr@VImageTarget@cinder@@@boost@@V?$shared_ptr@VDataTarget@cinder@@@2@V?$shared_ptr@VImageSource@cinder@@@2@VOptions@ImageTarget@cinder@@ABV?$basic_string@DU?$char_traits@D@std@@V?$allocator@D@2@@std@@@ZV89@@std@@@std@@@2@@2@U?$less@V?$basic_string@DU?$char_traits@D@std@@V?$allocator@D@2@@std@@@2@V?$allocator@U?$pair@$$CBV?$basic_string@DU?$char_traits@D@std@@V?$allocator@D@2@@std@@V?$multimap@JU?$pair@P6A?AV?$shared_ptr@VImageTarget@cinder@@@boost@@V?$shared_ptr@VDataTarget@cinder@@@2@V?$shared_ptr@VImageSource@cinder@@@2@VOptions@ImageTarget@cinder@@ABV?$basic_string@DU?$char_traits@D@std@@V?$allocator@D@2@@std@@@ZV89@@std@@U?$less@J@2@V?$allocator@U?$pair@$$CBJU?$pair@P6A?AV?$shared_ptr@VImageTarget@cinder@@@boost@@V?$shared_ptr@VDataTarget@cinder@@@2@V?$shared_ptr@VImageSource@cinder@@@2@VOptions@ImageTarget@cinder@@ABV?$basic_string@DU?$char_traits@D@std@@V?$allocator@D@2@@std@@@ZV89@@std@@@std@@@2@@2@@std@@@2@$0A@@std@@@std@@@std@@QAE@ABV?$allocator@U?$pair@$$CBV?$basic_string@DU?$char_traits@D@std@@V?$allocator@D@2@@std@@V?$multimap@JU?$pair@P6A?AV?$shared_ptr@VImageTarget@cinder@@@boost@@V?$shared_ptr@VDataTarget@cinder@@@2@V?$shared_ptr@VImageSource@cinder@@@2@VOptions@ImageTarget@cinder@@ABV?$basic_string@DU?$char_traits@D@std@@V?$allocator@D@2@@std@@@ZV89@@std@@U?$less@J@2@V?$allocator@U?$pair@$$CBJU?$pair@P6A?AV?$shared_ptr@VImageTarget@cinder@@@boost@@V?$shared_ptr@VDataTarget@cinder@@@2@V?$shared_ptr@VImageSource@cinder@@@2@VOptions@ImageTarget@cinder@@ABV?$basic_string@DU?$char_traits@D@std@@V?$allocator@D@2@@std@@@ZV89@@std@@@std@@@2@@2@@std@@@1@@Z 00405960 f i cinder:ImageIo.obj
 0001:00004960       ??0?$allocator@U?$pair@$$CBV?$basic_string@DU?$char_traits@D@std@@V?$allocator@D@2@@std@@V?$multimap@JU?$pair@P6A?AV?$shared_ptr@VImageTarget@cinder@@@boost@@V?$shared_ptr@VDataTarget@cinder@@@2@V?$shared_ptr@VImageSource@cinder@@@2@VOptions@ImageTarget@cinder@@ABV?$basic_string@DU?$char_traits@D@std@@V?$allocator@D@2@@std@@@ZV89@@std@@U?$less@J@2@V?$allocator@U?$pair@$$CBJU?$pair@P6A?AV?$shared_ptr@VImageTarget@cinder@@@boost@@V?$shared_ptr@VDataTarget@cinder@@@2@V?$shared_ptr@VImageSource@cinder@@@2@VOptions@ImageTarget@cinder@@ABV?$basic_string@DU?$char_traits@D@std@@V?$allocator@D@2@@std@@@ZV89@@std@@@std@@@2@@2@@std@@@std@@QAE@ABV01@@Z 00405960 f i cinder:ImageIo.obj
 0001:00004960       ??$?0U?$pair@GV?$Vec2@M@cinder@@@std@@@?$allocator@V_Aux_cont@std@@@std@@QAE@ABV?$allocator@U?$pair@GV?$Vec2@M@cinder@@@std@@@1@@Z 00405960 f i cinder:Text.obj
 0001:00004960       ??0?$allocator@V?$shared_ptr@VLine@cinder@@@boost@@@std@@QAE@ABV01@@Z 00405960 f i cinder:Text.obj
 0001:00004960       ??$?0U?$pair@KV?$function@$$A6A_NVResizeEvent@app@cinder@@@Z@boost@@@std@@@?$allocator@V_Aux_cont@std@@@std@@QAE@ABV?$allocator@U?$pair@KV?$function@$$A6A_NVResizeEvent@app@cinder@@@Z@boost@@@std@@@1@@Z 00405960 f i cinder:App.obj
 0001:00004960       ??$?0U?$pair@$$CBJP6A?AV?$shared_ptr@VImageSource@cinder@@@boost@@V?$shared_ptr@VDataSource@cinder@@@2@VOptions@ImageSource@cinder@@@Z@std@@@?$allocator@PAU_Node@?$_Tree_nod@V?$_Tmap_traits@JP6A?AV?$shared_ptr@VImageSource@cinder@@@boost@@V?$shared_ptr@VDataSource@cinder@@@2@VOptions@ImageSource@cinder@@@ZU?$less@J@std@@V?$allocator@U?$pair@$$CBJP6A?AV?$shared_ptr@VImageSource@cinder@@@boost@@V?$shared_ptr@VDataSource@cinder@@@2@VOptions@ImageSource@cinder@@@Z@std@@@8@$0A@@std@@@std@@@std@@QAE@ABV?$allocator@U?$pair@$$CBJP6A?AV?$shared_ptr@VImageSource@cinder@@@boost@@V?$shared_ptr@VDataSource@cinder@@@2@VOptions@ImageSource@cinder@@@Z@std@@@1@@Z 00405960 f i cinder:ImageIo.obj
 0001:00004960       ??0?$allocator@D@std@@QAE@ABV01@@Z 00405960 f i basicApp.obj
 0001:00004960       ??0?$allocator@U?$pair@$$CBJU?$pair@P6A?AV?$shared_ptr@VImageTarget@cinder@@@boost@@V?$shared_ptr@VDataTarget@cinder@@@2@V?$shared_ptr@VImageSource@cinder@@@2@VOptions@ImageTarget@cinder@@ABV?$basic_string@DU?$char_traits@D@std@@V?$allocator@D@2@@std@@@ZV89@@std@@@std@@@std@@QAE@ABV01@@Z 00405960 f i cinder:ImageIo.obj
 0001:00004960       ??0?$allocator@G@std@@QAE@ABV01@@Z 00405960 f i cinder:Font.obj
 0001:00004960       ??$?0V?$shared_ptr@VLine@cinder@@@boost@@@?$allocator@V_Aux_cont@std@@@std@@QAE@ABV?$allocator@V?$shared_ptr@VLine@cinder@@@boost@@@1@@Z 00405960 f i cinder:Text.obj
 0001:00004960       ??0?$allocator@H@std@@QAE@ABV01@@Z 00405960 f i cinder:VBO.obj
 0001:00004960       ??0?$allocator@U?$pair@KV?$function@$$A6A_NVTouchEvent@app@cinder@@@Z@boost@@@std@@@std@@QAE@ABV01@@Z 00405960 f i cinder:AppBasic.obj
 0001:00004960       ??$?0V?$shared_ptr@VLine@cinder@@@boost@@@?$allocator@PAV?$shared_ptr@VLine@cinder@@@boost@@@std@@QAE@ABV?$allocator@V?$shared_ptr@VLine@cinder@@@boost@@@1@@Z 00405960 f i cinder:Text.obj
 0001:00004960       ??$?0V?$shared_ptr@VDisplay@cinder@@@boost@@@?$allocator@V_Aux_cont@std@@@std@@QAE@ABV?$allocator@V?$shared_ptr@VDisplay@cinder@@@boost@@@1@@Z 00405960 f i cinder:Display.obj
 0001:00004960       ??$?0U?$pair@$$CBV?$basic_string@DU?$char_traits@D@std@@V?$allocator@D@2@@std@@V?$multimap@JU?$pair@P6A?AV?$shared_ptr@VImageTarget@cinder@@@boost@@V?$shared_ptr@VDataTarget@cinder@@@2@V?$shared_ptr@VImageSource@cinder@@@2@VOptions@ImageTarget@cinder@@ABV?$basic_string@DU?$char_traits@D@std@@V?$allocator@D@2@@std@@@ZV89@@std@@U?$less@J@2@V?$allocator@U?$pair@$$CBJU?$pair@P6A?AV?$shared_ptr@VImageTarget@cinder@@@boost@@V?$shared_ptr@VDataTarget@cinder@@@2@V?$shared_ptr@VImageSource@cinder@@@2@VOptions@ImageTarget@cinder@@ABV?$basic_string@DU?$char_traits@D@std@@V?$allocator@D@2@@std@@@ZV89@@std@@@std@@@2@@2@@std@@@?$allocator@V_Aux_cont@std@@@std@@QAE@ABV?$allocator@U?$pair@$$CBV?$basic_string@DU?$char_traits@D@std@@V?$allocator@D@2@@std@@V?$multimap@JU?$pair@P6A?AV?$shared_ptr@VImageTarget@cinder@@@boost@@V?$shared_ptr@VDataTarget@cinder@@@2@V?$shared_ptr@VImageSource@cinder@@@2@VOptions@ImageTarget@cinder@@ABV?$basic_string@DU?$char_traits@D@std@@V?$allocator@D@2@@std@@@ZV89@@std@@U?$less@J@2@V?$allocator@U?$pair@$$CBJU?$pair@P6A?AV?$shared_ptr@VImageTarget@cinder@@@boost@@V?$shared_ptr@VDataTarget@cinder@@@2@V?$shared_ptr@VImageSource@cinder@@@2@VOptions@ImageTarget@cinder@@ABV?$basic_string@DU?$char_traits@D@std@@V?$allocator@D@2@@std@@@ZV89@@std@@@std@@@2@@2@@std@@@1@@Z 00405960 f i cinder:ImageIo.obj
 0001:00004960       ??$?0U?$pair@KV?$function@$$A6A_NVMouseEvent@app@cinder@@@Z@boost@@@std@@@?$allocator@V_Aux_cont@std@@@std@@QAE@ABV?$allocator@U?$pair@KV?$function@$$A6A_NVMouseEvent@app@cinder@@@Z@boost@@@std@@@1@@Z 00405960 f i cinder:App.obj
 0001:00004960       ??$?0D@?$allocator@V_Aux_cont@std@@@std@@QAE@ABV?$allocator@D@1@@Z 00405960 f i cinder:Utilities.obj
 0001:00004960       ??$?0U?$pair@$$CBV?$basic_string@DU?$char_traits@D@std@@V?$allocator@D@2@@std@@_N@std@@@?$allocator@U_Node@?$_Tree_nod@V?$_Tmap_traits@V?$basic_string@DU?$char_traits@D@std@@V?$allocator@D@2@@std@@_NU?$less@V?$basic_string@DU?$char_traits@D@std@@V?$allocator@D@2@@std@@@2@V?$allocator@U?$pair@$$CBV?$basic_string@DU?$char_traits@D@std@@V?$allocator@D@2@@std@@_N@std@@@2@$0A@@std@@@std@@@std@@QAE@ABV?$allocator@U?$pair@$$CBV?$basic_string@DU?$char_traits@D@std@@V?$allocator@D@2@@std@@_N@std@@@1@@Z 00405960 f i cinder:gl.obj
 0001:00004960       ??0?$allocator@U?$pair@$$CBV?$basic_string@DU?$char_traits@D@std@@V?$allocator@D@2@@std@@_N@std@@@std@@QAE@ABV01@@Z 00405960 f i cinder:gl.obj
 0001:00004960       ??$?0I@?$allocator@V_Aux_cont@std@@@std@@QAE@ABV?$allocator@I@1@@Z 00405960 f i cinder:VBO.obj
 0001:00004960       ??$?0U?$pair@$$CBKV?$Vec2@M@cinder@@@std@@@?$allocator@PAU_Node@?$_Tree_nod@V?$_Tmap_traits@KV?$Vec2@M@cinder@@U?$less@K@std@@V?$allocator@U?$pair@$$CBKV?$Vec2@M@cinder@@@std@@@4@$0A@@std@@@std@@@std@@QAE@ABV?$allocator@U?$pair@$$CBKV?$Vec2@M@cinder@@@std@@@1@@Z 00405960 f i cinder:AppImplMswBasic.obj
 0001:00004960       ??0?$allocator@V?$Vec2@M@cinder@@@std@@QAE@ABV01@@Z 00405960 f i basicApp.obj
 0001:00004960       ??$?0V?$Vec2@M@cinder@@@?$allocator@V_Aux_cont@std@@@std@@QAE@ABV?$allocator@V?$Vec2@M@cinder@@@1@@Z 00405960 f i basicApp.obj
 0001:00004960       ??0?$allocator@VPath2d@cinder@@@std@@QAE@ABV01@@Z 00405960 f i cinder:Font.obj
 0001:00004960       ??0?$allocator@U?$pair@GV?$Vec2@M@cinder@@@std@@@std@@QAE@ABV01@@Z 00405960 f i cinder:Text.obj
 0001:00004960       ??$?0U?$pair@$$CBV?$basic_string@DU?$char_traits@D@std@@V?$allocator@D@2@@std@@PBU_GUID@@@std@@@?$allocator@U_Node@?$_Tree_nod@V?$_Tmap_traits@V?$basic_string@DU?$char_traits@D@std@@V?$allocator@D@2@@std@@PBU_GUID@@U?$less@V?$basic_string@DU?$char_traits@D@std@@V?$allocator@D@2@@std@@@2@V?$allocator@U?$pair@$$CBV?$basic_string@DU?$char_traits@D@std@@V?$allocator@D@2@@std@@PBU_GUID@@@std@@@2@$0A@@std@@@std@@@std@@QAE@ABV?$allocator@U?$pair@$$CBV?$basic_string@DU?$char_traits@D@std@@V?$allocator@D@2@@std@@PBU_GUID@@@std@@@1@@Z 00405960 f i cinder:ImageTargetFileWic.obj
 0001:00004960       ??$?0U?$pair@$$CBV?$basic_string@DU?$char_traits@D@std@@V?$allocator@D@2@@std@@_N@std@@@?$allocator@PAU_Node@?$_Tree_nod@V?$_Tmap_traits@V?$basic_string@DU?$char_traits@D@std@@V?$allocator@D@2@@std@@_NU?$less@V?$basic_string@DU?$char_traits@D@std@@V?$allocator@D@2@@std@@@2@V?$allocator@U?$pair@$$CBV?$basic_string@DU?$char_traits@D@std@@V?$allocator@D@2@@std@@_N@std@@@2@$0A@@std@@@std@@@std@@QAE@ABV?$allocator@U?$pair@$$CBV?$basic_string@DU?$char_traits@D@std@@V?$allocator@D@2@@std@@_N@std@@@1@@Z 00405960 f i cinder:gl.obj
 0001:00004960       ??$?0U?$pair@$$CBJU?$pair@P6A?AV?$shared_ptr@VImageTarget@cinder@@@boost@@V?$shared_ptr@VDataTarget@cinder@@@2@V?$shared_ptr@VImageSource@cinder@@@2@VOptions@ImageTarget@cinder@@ABV?$basic_string@DU?$char_traits@D@std@@V?$allocator@D@2@@std@@@ZV89@@std@@@std@@@?$allocator@U_Node@?$_Tree_nod@V?$_Tmap_traits@JU?$pair@P6A?AV?$shared_ptr@VImageTarget@cinder@@@boost@@V?$shared_ptr@VDataTarget@cinder@@@2@V?$shared_ptr@VImageSource@cinder@@@2@VOptions@ImageTarget@cinder@@ABV?$basic_string@DU?$char_traits@D@std@@V?$allocator@D@2@@std@@@ZV89@@std@@U?$less@J@2@V?$allocator@U?$pair@$$CBJU?$pair@P6A?AV?$shared_ptr@VImageTarget@cinder@@@boost@@V?$shared_ptr@VDataTarget@cinder@@@2@V?$shared_ptr@VImageSource@cinder@@@2@VOptions@ImageTarget@cinder@@ABV?$basic_string@DU?$char_traits@D@std@@V?$allocator@D@2@@std@@@ZV89@@std@@@std@@@2@$00@std@@@std@@@std@@QAE@ABV?$allocator@U?$pair@$$CBJU?$pair@P6A?AV?$shared_ptr@VImageTarget@cinder@@@boost@@V?$shared_ptr@VDataTarget@cinder@@@2@V?$shared_ptr@VImageSource@cinder@@@2@VOptions@ImageTarget@cinder@@ABV?$basic_string@DU?$char_traits@D@std@@V?$allocator@D@2@@std@@@ZV89@@std@@@std@@@1@@Z 00405960 f i cinder:ImageIo.obj
 0001:00004960       ??$?0U?$pair@$$CBJP6A?AV?$shared_ptr@VImageSource@cinder@@@boost@@V?$shared_ptr@VDataSource@cinder@@@2@VOptions@ImageSource@cinder@@@Z@std@@@?$allocator@PAU_Node@?$_Tree_nod@V?$_Tmap_traits@JP6A?AV?$shared_ptr@VImageSource@cinder@@@boost@@V?$shared_ptr@VDataSource@cinder@@@2@VOptions@ImageSource@cinder@@@ZU?$less@J@std@@V?$allocator@U?$pair@$$CBJP6A?AV?$shared_ptr@VImageSource@cinder@@@boost@@V?$shared_ptr@VDataSource@cinder@@@2@VOptions@ImageSource@cinder@@@Z@std@@@8@$00@std@@@std@@@std@@QAE@ABV?$allocator@U?$pair@$$CBJP6A?AV?$shared_ptr@VImageSource@cinder@@@boost@@V?$shared_ptr@VDataSource@cinder@@@2@VOptions@ImageSource@cinder@@@Z@std@@@1@@Z 00405960 f i cinder:ImageIo.obj
 0001:00004960       ??$?0U?$pair@$$CBKV?$Vec2@M@cinder@@@std@@@?$allocator@U_Node@?$_Tree_nod@V?$_Tmap_traits@KV?$Vec2@M@cinder@@U?$less@K@std@@V?$allocator@U?$pair@$$CBKV?$Vec2@M@cinder@@@std@@@4@$0A@@std@@@std@@@std@@QAE@ABV?$allocator@U?$pair@$$CBKV?$Vec2@M@cinder@@@std@@@1@@Z 00405960 f i cinder:AppImplMswBasic.obj
 0001:00004960       ??$?0U?$pair@$$CBV?$basic_string@DU?$char_traits@D@std@@V?$allocator@D@2@@std@@PBU_GUID@@@std@@@?$allocator@PAU_Node@?$_Tree_nod@V?$_Tmap_traits@V?$basic_string@DU?$char_traits@D@std@@V?$allocator@D@2@@std@@PBU_GUID@@U?$less@V?$basic_string@DU?$char_traits@D@std@@V?$allocator@D@2@@std@@@2@V?$allocator@U?$pair@$$CBV?$basic_string@DU?$char_traits@D@std@@V?$allocator@D@2@@std@@PBU_GUID@@@std@@@2@$0A@@std@@@std@@@std@@QAE@ABV?$allocator@U?$pair@$$CBV?$basic_string@DU?$char_traits@D@std@@V?$allocator@D@2@@std@@PBU_GUID@@@std@@@1@@Z 00405960 f i cinder:ImageTargetFileWic.obj
 0001:00004960       ??$?0U?$pair@$$CBV?$basic_string@DU?$char_traits@D@std@@V?$allocator@D@2@@std@@V?$multimap@JP6A?AV?$shared_ptr@VImageSource@cinder@@@boost@@V?$shared_ptr@VDataSource@cinder@@@2@VOptions@ImageSource@cinder@@@ZU?$less@J@std@@V?$allocator@U?$pair@$$CBJP6A?AV?$shared_ptr@VImageSource@cinder@@@boost@@V?$shared_ptr@VDataSource@cinder@@@2@VOptions@ImageSource@cinder@@@Z@std@@@8@@2@@std@@@?$allocator@PAU_Node@?$_Tree_nod@V?$_Tmap_traits@V?$basic_string@DU?$char_traits@D@std@@V?$allocator@D@2@@std@@V?$multimap@JP6A?AV?$shared_ptr@VImageSource@cinder@@@boost@@V?$shared_ptr@VDataSource@cinder@@@2@VOptions@ImageSource@cinder@@@ZU?$less@J@std@@V?$allocator@U?$pair@$$CBJP6A?AV?$shared_ptr@VImageSource@cinder@@@boost@@V?$shared_ptr@VDataSource@cinder@@@2@VOptions@ImageSource@cinder@@@Z@std@@@8@@2@U?$less@V?$basic_string@DU?$char_traits@D@std@@V?$allocator@D@2@@std@@@2@V?$allocator@U?$pair@$$CBV?$basic_string@DU?$char_traits@D@std@@V?$allocator@D@2@@std@@V?$multimap@JP6A?AV?$shared_ptr@VImageSource@cinder@@@boost@@V?$shared_ptr@VDataSource@cinder@@@2@VOptions@ImageSource@cinder@@@ZU?$less@J@std@@V?$allocator@U?$pair@$$CBJP6A?AV?$shared_ptr@VImageSource@cinder@@@boost@@V?$shared_ptr@VDataSource@cinder@@@2@VOptions@ImageSource@cinder@@@Z@std@@@8@@2@@std@@@2@$0A@@std@@@std@@@std@@QAE@ABV?$allocator@U?$pair@$$CBV?$basic_string@DU?$char_traits@D@std@@V?$allocator@D@2@@std@@V?$multimap@JP6A?AV?$shared_ptr@VImageSource@cinder@@@boost@@V?$shared_ptr@VDataSource@cinder@@@2@VOptions@ImageSource@cinder@@@ZU?$less@J@std@@V?$allocator@U?$pair@$$CBJP6A?AV?$shared_ptr@VImageSource@cinder@@@boost@@V?$shared_ptr@VDataSource@cinder@@@2@VOptions@ImageSource@cinder@@@Z@std@@@8@@2@@std@@@1@@Z 00405960 f i cinder:ImageIo.obj
 0001:00004960       ??0?$allocator@U?$pair@KV?$function@$$A6A_NVFileDropEvent@app@cinder@@@Z@boost@@@std@@@std@@QAE@ABV01@@Z 00405960 f i cinder:App.obj
 0001:00004960       ??$?0V?$Vec2@M@cinder@@@?$allocator@PAU_Node@?$_List_nod@V?$Vec2@M@cinder@@V?$allocator@V?$Vec2@M@cinder@@@std@@@std@@@std@@QAE@ABV?$allocator@V?$Vec2@M@cinder@@@1@@Z 00405960 f i basicApp.obj
 0001:00004960       ??$?0U?$pair@$$CBV?$basic_string@DU?$char_traits@D@std@@V?$allocator@D@2@@std@@V?$multimap@JP6A?AV?$shared_ptr@VImageSource@cinder@@@boost@@V?$shared_ptr@VDataSource@cinder@@@2@VOptions@ImageSource@cinder@@@ZU?$less@J@std@@V?$allocator@U?$pair@$$CBJP6A?AV?$shared_ptr@VImageSource@cinder@@@boost@@V?$shared_ptr@VDataSource@cinder@@@2@VOptions@ImageSource@cinder@@@Z@std@@@8@@2@@std@@@?$allocator@U_Node@?$_Tree_nod@V?$_Tmap_traits@V?$basic_string@DU?$char_traits@D@std@@V?$allocator@D@2@@std@@V?$multimap@JP6A?AV?$shared_ptr@VImageSource@cinder@@@boost@@V?$shared_ptr@VDataSource@cinder@@@2@VOptions@ImageSource@cinder@@@ZU?$less@J@std@@V?$allocator@U?$pair@$$CBJP6A?AV?$shared_ptr@VImageSource@cinder@@@boost@@V?$shared_ptr@VDataSource@cinder@@@2@VOptions@ImageSource@cinder@@@Z@std@@@8@@2@U?$less@V?$basic_string@DU?$char_traits@D@std@@V?$allocator@D@2@@std@@@2@V?$allocator@U?$pair@$$CBV?$basic_string@DU?$char_traits@D@std@@V?$allocator@D@2@@std@@V?$multimap@JP6A?AV?$shared_ptr@VImageSource@cinder@@@boost@@V?$shared_ptr@VDataSource@cinder@@@2@VOptions@ImageSource@cinder@@@ZU?$less@J@std@@V?$allocator@U?$pair@$$CBJP6A?AV?$shared_ptr@VImageSource@cinder@@@boost@@V?$shared_ptr@VDataSource@cinder@@@2@VOptions@ImageSource@cinder@@@Z@std@@@8@@2@@std@@@2@$0A@@std@@@std@@@std@@QAE@ABV?$allocator@U?$pair@$$CBV?$basic_string@DU?$char_traits@D@std@@V?$allocator@D@2@@std@@V?$multimap@JP6A?AV?$shared_ptr@VImageSource@cinder@@@boost@@V?$shared_ptr@VDataSource@cinder@@@2@VOptions@ImageSource@cinder@@@ZU?$less@J@std@@V?$allocator@U?$pair@$$CBJP6A?AV?$shared_ptr@VImageSource@cinder@@@boost@@V?$shared_ptr@VDataSource@cinder@@@2@VOptions@ImageSource@cinder@@@Z@std@@@8@@2@@std@@@1@@Z 00405960 f i cinder:ImageIo.obj
 0001:00004960       ??0?$allocator@I@std@@QAE@ABV01@@Z 00405960 f i cinder:VBO.obj
 0001:00004960       ??0?$allocator@U?$pair@KV?$function@$$A6A_NVResizeEvent@app@cinder@@@Z@boost@@@std@@@std@@QAE@ABV01@@Z 00405960 f i cinder:App.obj
 0001:00004960       ??$?0W4SegmentType@Path2d@cinder@@@?$allocator@V_Aux_cont@std@@@std@@QAE@ABV?$allocator@W4SegmentType@Path2d@cinder@@@1@@Z 00405960 f i cinder:Path2D.obj
 0001:00004960       ??$?0V?$Vec2@M@cinder@@@?$allocator@U_Node@?$_List_nod@V?$Vec2@M@cinder@@V?$allocator@V?$Vec2@M@cinder@@@std@@@std@@@std@@QAE@ABV?$allocator@V?$Vec2@M@cinder@@@1@@Z 00405960 f i basicApp.obj
 0001:00004960       ??0?$allocator@VTouch@TouchEvent@app@cinder@@@std@@QAE@ABV01@@Z 00405960 f i cinder:AppBasic.obj
 0001:00004960       ??0?$allocator@U?$pair@$$CBJP6A?AV?$shared_ptr@VImageSource@cinder@@@boost@@V?$shared_ptr@VDataSource@cinder@@@2@VOptions@ImageSource@cinder@@@Z@std@@@std@@QAE@ABV01@@Z 00405960 f i cinder:ImageIo.obj
 0001:00004960       ??0?$allocator@_W@std@@QAE@ABV01@@Z 00405960 f i cinder:AppBasic.obj
 0001:00004960       ??$?0G@?$allocator@V_Aux_cont@std@@@std@@QAE@ABV?$allocator@G@1@@Z 00405960 f i cinder:Font.obj
 0001:00004960       ??0?$allocator@URun@cinder@@@std@@QAE@ABV01@@Z 00405960 f i cinder:Text.obj
 0001:00004960       ??$?0U?$pair@$$CBJP6A?AV?$shared_ptr@VImageSource@cinder@@@boost@@V?$shared_ptr@VDataSource@cinder@@@2@VOptions@ImageSource@cinder@@@Z@std@@@?$allocator@U_Node@?$_Tree_nod@V?$_Tmap_traits@JP6A?AV?$shared_ptr@VImageSource@cinder@@@boost@@V?$shared_ptr@VDataSource@cinder@@@2@VOptions@ImageSource@cinder@@@ZU?$less@J@std@@V?$allocator@U?$pair@$$CBJP6A?AV?$shared_ptr@VImageSource@cinder@@@boost@@V?$shared_ptr@VDataSource@cinder@@@2@VOptions@ImageSource@cinder@@@Z@std@@@8@$0A@@std@@@std@@@std@@QAE@ABV?$allocator@U?$pair@$$CBJP6A?AV?$shared_ptr@VImageSource@cinder@@@boost@@V?$shared_ptr@VDataSource@cinder@@@2@VOptions@ImageSource@cinder@@@Z@std@@@1@@Z 00405960 f i cinder:ImageIo.obj
 0001:00004960       ??$?0U?$pair@KV?$function@$$A6A_NVFileDropEvent@app@cinder@@@Z@boost@@@std@@@?$allocator@V_Aux_cont@std@@@std@@QAE@ABV?$allocator@U?$pair@KV?$function@$$A6A_NVFileDropEvent@app@cinder@@@Z@boost@@@std@@@1@@Z 00405960 f i cinder:App.obj
 0001:00004960       ??0?$allocator@U?$pair@KV?$function@$$A6A_NVMouseEvent@app@cinder@@@Z@boost@@@std@@@std@@QAE@ABV01@@Z 00405960 f i cinder:App.obj
 0001:00004960       ??0?$allocator@U?$pair@W4CustomAttr@Layout@VboMesh@gl@cinder@@I@std@@@std@@QAE@ABV01@@Z 00405960 f i cinder:VBO.obj
 0001:00004960       ??$?0U?$pair@KV?$function@$$A6A_NVKeyEvent@app@cinder@@@Z@boost@@@std@@@?$allocator@V_Aux_cont@std@@@std@@QAE@ABV?$allocator@U?$pair@KV?$function@$$A6A_NVKeyEvent@app@cinder@@@Z@boost@@@std@@@1@@Z 00405960 f i cinder:App.obj
 0001:00004960       ??$?0U?$pair@$$CBJU?$pair@P6A?AV?$shared_ptr@VImageTarget@cinder@@@boost@@V?$shared_ptr@VDataTarget@cinder@@@2@V?$shared_ptr@VImageSource@cinder@@@2@VOptions@ImageTarget@cinder@@ABV?$basic_string@DU?$char_traits@D@std@@V?$allocator@D@2@@std@@@ZV89@@std@@@std@@@?$allocator@PAU_Node@?$_Tree_nod@V?$_Tmap_traits@JU?$pair@P6A?AV?$shared_ptr@VImageTarget@cinder@@@boost@@V?$shared_ptr@VDataTarget@cinder@@@2@V?$shared_ptr@VImageSource@cinder@@@2@VOptions@ImageTarget@cinder@@ABV?$basic_string@DU?$char_traits@D@std@@V?$allocator@D@2@@std@@@ZV89@@std@@U?$less@J@2@V?$allocator@U?$pair@$$CBJU?$pair@P6A?AV?$shared_ptr@VImageTarget@cinder@@@boost@@V?$shared_ptr@VDataTarget@cinder@@@2@V?$shared_ptr@VImageSource@cinder@@@2@VOptions@ImageTarget@cinder@@ABV?$basic_string@DU?$char_traits@D@std@@V?$allocator@D@2@@std@@@ZV89@@std@@@std@@@2@$00@std@@@std@@@std@@QAE@ABV?$allocator@U?$pair@$$CBJU?$pair@P6A?AV?$shared_ptr@VImageTarget@cinder@@@boost@@V?$shared_ptr@VDataTarget@cinder@@@2@V?$shared_ptr@VImageSource@cinder@@@2@VOptions@ImageTarget@cinder@@ABV?$basic_string@DU?$char_traits@D@std@@V?$allocator@D@2@@std@@@ZV89@@std@@@std@@@1@@Z 00405960 f i cinder:ImageIo.obj
 0001:00004960       ??$?0U?$pair@HVTexture@gl@cinder@@@std@@@?$allocator@V_Aux_cont@std@@@std@@QAE@ABV?$allocator@U?$pair@HVTexture@gl@cinder@@@std@@@1@@Z 00405960 f i cinder:Texture.obj
 0001:00004960       ??$?0_W@?$allocator@V_Aux_cont@std@@@std@@QAE@ABV?$allocator@_W@1@@Z 00405960 f i cinder:Utilities.obj
 0001:00004960       ??0?$allocator@U?$pair@HVTexture@gl@cinder@@@std@@@std@@QAE@ABV01@@Z 00405960 f i cinder:Texture.obj
 0001:00004960       ??$?0U?$pair@$$CBJU?$pair@P6A?AV?$shared_ptr@VImageTarget@cinder@@@boost@@V?$shared_ptr@VDataTarget@cinder@@@2@V?$shared_ptr@VImageSource@cinder@@@2@VOptions@ImageTarget@cinder@@ABV?$basic_string@DU?$char_traits@D@std@@V?$allocator@D@2@@std@@@ZV89@@std@@@std@@@?$allocator@V_Aux_cont@std@@@std@@QAE@ABV?$allocator@U?$pair@$$CBJU?$pair@P6A?AV?$shared_ptr@VImageTarget@cinder@@@boost@@V?$shared_ptr@VDataTarget@cinder@@@2@V?$shared_ptr@VImageSource@cinder@@@2@VOptions@ImageTarget@cinder@@ABV?$basic_string@DU?$char_traits@D@std@@V?$allocator@D@2@@std@@@ZV89@@std@@@std@@@1@@Z 00405960 f i cinder:ImageIo.obj
 0001:00004960       ??0?$allocator@V?$basic_string@DU?$char_traits@D@std@@V?$allocator@D@2@@std@@@std@@QAE@ABV01@@Z 00405960 f i cinder:AppBasic.obj
 0001:00004960       ??$?0U?$pair@$$CBV?$basic_string@DU?$char_traits@D@std@@V?$allocator@D@2@@std@@PBU_GUID@@@std@@@?$allocator@V_Aux_cont@std@@@std@@QAE@ABV?$allocator@U?$pair@$$CBV?$basic_string@DU?$char_traits@D@std@@V?$allocator@D@2@@std@@PBU_GUID@@@std@@@1@@Z 00405960 f i cinder:ImageTargetFileWic.obj
 0001:00004960       ??$?0U?$pair@KV?$function@$$A6A_NVTouchEvent@app@cinder@@@Z@boost@@@std@@@?$allocator@V_Aux_cont@std@@@std@@QAE@ABV?$allocator@U?$pair@KV?$function@$$A6A_NVTouchEvent@app@cinder@@@Z@boost@@@std@@@1@@Z 00405960 f i cinder:AppBasic.obj
 0001:00004960       ??$?0U?$pair@$$CBJP6A?AV?$shared_ptr@VImageSource@cinder@@@boost@@V?$shared_ptr@VDataSource@cinder@@@2@VOptions@ImageSource@cinder@@@Z@std@@@?$allocator@U_Node@?$_Tree_nod@V?$_Tmap_traits@JP6A?AV?$shared_ptr@VImageSource@cinder@@@boost@@V?$shared_ptr@VDataSource@cinder@@@2@VOptions@ImageSource@cinder@@@ZU?$less@J@std@@V?$allocator@U?$pair@$$CBJP6A?AV?$shared_ptr@VImageSource@cinder@@@boost@@V?$shared_ptr@VDataSource@cinder@@@2@VOptions@ImageSource@cinder@@@Z@std@@@8@$00@std@@@std@@@std@@QAE@ABV?$allocator@U?$pair@$$CBJP6A?AV?$shared_ptr@VImageSource@cinder@@@boost@@V?$shared_ptr@VDataSource@cinder@@@2@VOptions@ImageSource@cinder@@@Z@std@@@1@@Z 00405960 f i cinder:ImageIo.obj
 0001:00004970       ??$throw_exception@Vbad_function_call@boost@@@boost@@YAXABVbad_function_call@0@@Z 00405970 f i cinder:AppBasic.obj
 0001:00004a20       ??0runtime_error@std@@QAE@ABV01@@Z 00405a20 f i cinder:AppBasic.obj
 0001:00004a90       ??0exception@boost@@QAE@ABV01@@Z 00405a90 f i cinder:AppBasic.obj
 0001:00004ae0       ??0clone_base@exception_detail@boost@@QAE@ABV012@@Z 00405ae0 f i cinder:AppBasic.obj
 0001:00004b00       ??_Gclone_base@exception_detail@boost@@UAEPAXI@Z 00405b00 f i cinder:AppBasic.obj
 0001:00004b00       ??_Eclone_base@exception_detail@boost@@UAEPAXI@Z 00405b00 f i cinder:AppBasic.obj
 0001:00004b30       ??1clone_base@exception_detail@boost@@UAE@XZ 00405b30 f i cinder:AppBasic.obj
 0001:00004b50       ??0?$refcount_ptr@Uerror_info_container@exception_detail@boost@@@exception_detail@boost@@QAE@ABV012@@Z 00405b50 f i cinder:AppBasic.obj
 0001:00004b80       ?add_ref@?$refcount_ptr@Uerror_info_container@exception_detail@boost@@@exception_detail@boost@@AAEXXZ 00405b80 f i cinder:AppBasic.obj
 0001:00004bb0       ??$copy_s@U?$char_traits@_W@std@@@_Traits_helper@std@@YAPA_WPA_WIPB_WIU_Secure_char_traits_tag@1@@Z 00405bb0 f i cinder:AppBasic.obj
 0001:00004bd0       ?_Copy_s@?$char_traits@_W@std@@SAPA_WPA_WIPB_WI@Z 00405bd0 f i cinder:AppBasic.obj
 0001:00004bf0       _wmemcpy_s                 00405bf0 f i cinder:AppBasic.obj
 0001:00004c20       ??$unchecked_uninitialized_copy@V?$_Vector_const_iterator@VTouch@TouchEvent@app@cinder@@V?$allocator@VTouch@TouchEvent@app@cinder@@@std@@@std@@PAVTouch@TouchEvent@app@cinder@@V?$allocator@VTouch@TouchEvent@app@cinder@@@2@@stdext@@YAPAVTouch@TouchEvent@app@cinder@@V?$_Vector_const_iterator@VTouch@TouchEvent@app@cinder@@V?$allocator@VTouch@TouchEvent@app@cinder@@@std@@@std@@0PAV1234@AAV?$allocator@VTouch@TouchEvent@app@cinder@@@6@@Z 00405c20 f i cinder:AppBasic.obj
 0001:00004c80       ??$_Uninit_fill_n@PAV?$basic_string@DU?$char_traits@D@std@@V?$allocator@D@2@@std@@IV12@V?$allocator@V?$basic_string@DU?$char_traits@D@std@@V?$allocator@D@2@@std@@@2@@std@@YAXPAV?$basic_string@DU?$char_traits@D@std@@V?$allocator@D@2@@0@IABV10@AAV?$allocator@V?$basic_string@DU?$char_traits@D@std@@V?$allocator@D@2@@std@@@0@U_Nonscalar_ptr_iterator_tag@0@U_Range_checked_iterator_tag@0@@Z 00405c80 f i cinder:AppBasic.obj
 0001:00004d40       ??$move_s@U?$char_traits@_W@std@@@_Traits_helper@std@@YAPA_WPA_WIPB_WIU_Secure_char_traits_tag@1@@Z 00405d40 f i cinder:AppBasic.obj
 0001:00004d60       ?_Move_s@?$char_traits@_W@std@@SAPA_WPA_WIPB_WI@Z 00405d60 f i cinder:AppBasic.obj
 0001:00004d80       _wmemmove_s                00405d80 f i cinder:AppBasic.obj
 0001:00004db0       ??$_Unchecked_uninitialized_move@PAV?$basic_string@DU?$char_traits@D@std@@V?$allocator@D@2@@std@@PAV12@V?$allocator@V?$basic_string@DU?$char_traits@D@std@@V?$allocator@D@2@@std@@@2@@stdext@@YAPAV?$basic_string@DU?$char_traits@D@std@@V?$allocator@D@2@@std@@PAV12@00AAV?$allocator@V?$basic_string@DU?$char_traits@D@std@@V?$allocator@D@2@@std@@@2@@Z 00405db0 f i cinder:AppBasic.obj
 0001:00004e00       ??$_Fill@PAV?$basic_string@DU?$char_traits@D@std@@V?$allocator@D@2@@std@@V12@@std@@YAXPAV?$basic_string@DU?$char_traits@D@std@@V?$allocator@D@2@@0@0ABV10@@Z 00405e00 f i cinder:AppBasic.obj
 0001:00004e30       ??$_Move_backward_opt@PAV?$basic_string@DU?$char_traits@D@std@@V?$allocator@D@2@@std@@PAV12@@std@@YAPAV?$basic_string@DU?$char_traits@D@std@@V?$allocator@D@2@@0@PAV10@00Urandom_access_iterator_tag@0@U_Swap_move_tag@0@U_Range_checked_iterator_tag@0@@Z 00405e30 f i cinder:AppBasic.obj
 0001:00004e90       ??0?$clone_impl@U?$error_info_injector@Vbad_function_call@boost@@@exception_detail@boost@@@exception_detail@boost@@QAE@ABV012@@Z 00405e90 f i cinder:AppBasic.obj
 0001:00004f00       ??0?$error_info_injector@Vbad_function_call@boost@@@exception_detail@boost@@QAE@ABU012@@Z 00405f00 f i cinder:AppBasic.obj
 0001:00004f90       ??0bad_function_call@boost@@QAE@ABV01@@Z 00405f90 f i cinder:AppBasic.obj
 0001:00004fc0       ??_E?$clone_impl@U?$error_info_injector@Vbad_function_call@boost@@@exception_detail@boost@@@exception_detail@boost@@UAEPAXI@Z 00405fc0 f i cinder:AppBasic.obj
 0001:00004fc0       ??_G?$clone_impl@U?$error_info_injector@Vbad_function_call@boost@@@exception_detail@boost@@@exception_detail@boost@@UAEPAXI@Z 00405fc0 f i cinder:AppBasic.obj
 0001:00004ff0       ??_E?$error_info_injector@Vbad_function_call@boost@@@exception_detail@boost@@UAEPAXI@Z 00405ff0 f i cinder:AppBasic.obj
 0001:00004ff0       ??_G?$error_info_injector@Vbad_function_call@boost@@@exception_detail@boost@@UAEPAXI@Z 00405ff0 f i cinder:AppBasic.obj
 0001:00005020       ?construct@?$allocator@V?$basic_string@DU?$char_traits@D@std@@V?$allocator@D@2@@std@@@std@@QAEXPAV?$basic_string@DU?$char_traits@D@std@@V?$allocator@D@2@@2@ABV32@@Z 00406020 f i cinder:AppBasic.obj
 0001:00005040       ??1?$error_info_injector@Vbad_function_call@boost@@@exception_detail@boost@@UAE@XZ 00406040 f i cinder:AppBasic.obj
 0001:00005080       ??1exception@boost@@MAE@XZ 00406080 f i cinder:AppBasic.obj
 0001:000050a0       ??1?$refcount_ptr@Uerror_info_container@exception_detail@boost@@@exception_detail@boost@@QAE@XZ 004060a0 f i cinder:AppBasic.obj
 0001:000050c0       ?release@?$refcount_ptr@Uerror_info_container@exception_detail@boost@@@exception_detail@boost@@AAEXXZ 004060c0 f i cinder:AppBasic.obj
 0001:00005100       ??1?$clone_impl@U?$error_info_injector@Vbad_function_call@boost@@@exception_detail@boost@@@exception_detail@boost@@UAE@XZ 00406100 f i cinder:AppBasic.obj
 0001:00005140       ?clone@?$clone_impl@U?$error_info_injector@Vbad_function_call@boost@@@exception_detail@boost@@@exception_detail@boost@@EBEPBVclone_base@23@XZ 00406140 f i cinder:AppBasic.obj
 0001:000051e0       ?rethrow@?$clone_impl@U?$error_info_injector@Vbad_function_call@boost@@@exception_detail@boost@@@exception_detail@boost@@EBEXXZ 004061e0 f i cinder:AppBasic.obj
 0001:00005210       ??$enable_error_info@Vbad_function_call@boost@@@boost@@YA?AU?$error_info_injector@Vbad_function_call@boost@@@exception_detail@0@ABVbad_function_call@0@@Z 00406210 f i cinder:AppBasic.obj
 0001:00005240       ??$enable_current_exception@U?$error_info_injector@Vbad_function_call@boost@@@exception_detail@boost@@@boost@@YA?AV?$clone_impl@U?$error_info_injector@Vbad_function_call@boost@@@exception_detail@boost@@@exception_detail@0@ABU?$error_info_injector@Vbad_function_call@boost@@@20@@Z 00406240 f i cinder:AppBasic.obj
 0001:00005270       ??$_Move_cat@PAD@std@@YA?AU_Undefined_move_tag@0@ABQAD@Z 00406270 f i cinder:Stream.obj
 0001:00005270       ??$_Ptr_cat@PAV?$shared_ptr@VDisplay@cinder@@@boost@@PAV12@@std@@YA?AU_Nonscalar_ptr_iterator_tag@0@AAPAV?$shared_ptr@VDisplay@cinder@@@boost@@0@Z 00406270 f i cinder:Display.obj
 0001:00005270       ??$_Ptr_cat@PAU?$pair@KV?$function@$$A6A_NVMouseEvent@app@cinder@@@Z@boost@@@std@@PAU12@@std@@YA?AU_Nonscalar_ptr_iterator_tag@0@AAPAU?$pair@KV?$function@$$A6A_NVMouseEvent@app@cinder@@@Z@boost@@@0@0@Z 00406270 f i cinder:App.obj
 0001:00005270       ??$_Char_traits_cat@U?$traits_extension@U?$char_traits@D@std@@@tokenizer_detail@boost@@@std@@YA?AU_Unsecure_char_traits_tag@0@XZ 00406270 f i cinder:Utilities.obj
 0001:00005270       ??$_Ptr_cat@PAU?$pair@KV?$function@$$A6A_NVResizeEvent@app@cinder@@@Z@boost@@@std@@PAU12@@std@@YA?AU_Nonscalar_ptr_iterator_tag@0@AAPAU?$pair@KV?$function@$$A6A_NVResizeEvent@app@cinder@@@Z@boost@@@0@0@Z 00406270 f i cinder:App.obj
 0001:00005270       ??$_Char_traits_cat@U?$char_traits@D@std@@@std@@YA?AU_Secure_char_traits_tag@0@XZ 00406270 f i basicApp.obj
 0001:00005270       ??$_Ptr_cat@V?$_Vector_const_iterator@U?$pair@GV?$Vec2@M@cinder@@@std@@V?$allocator@U?$pair@GV?$Vec2@M@cinder@@@std@@@2@@std@@PAU?$pair@GV?$Vec2@M@cinder@@@2@@std@@YA?AU_Nonscalar_ptr_iterator_tag@0@AAV?$_Vector_const_iterator@U?$pair@GV?$Vec2@M@cinder@@@std@@V?$allocator@U?$pair@GV?$Vec2@M@cinder@@@std@@@2@@0@AAPAU?$pair@GV?$Vec2@M@cinder@@@0@@Z 00406270 f i cinder:Text.obj
 0001:00005270       ??$_Ptr_cat@PAU?$pair@KV?$function@$$A6A_NVTouchEvent@app@cinder@@@Z@boost@@@std@@PAU12@@std@@YA?AU_Nonscalar_ptr_iterator_tag@0@AAPAU?$pair@KV?$function@$$A6A_NVTouchEvent@app@cinder@@@Z@boost@@@0@0@Z 00406270 f i cinder:AppBasic.obj
 0001:00005270       ??$_Move_cat@PAG@std@@YA?AU_Undefined_move_tag@0@ABQAG@Z 00406270 f i cinder:Font.obj
 0001:00005270       ??$_Ptr_cat@V?$_Vector_const_iterator@V?$Vec2@M@cinder@@V?$allocator@V?$Vec2@M@cinder@@@std@@@std@@PAV?$Vec2@M@cinder@@@std@@YA?AU_Nonscalar_ptr_iterator_tag@0@AAV?$_Vector_const_iterator@V?$Vec2@M@cinder@@V?$allocator@V?$Vec2@M@cinder@@@std@@@0@AAPAV?$Vec2@M@cinder@@@Z 00406270 f i cinder:Path2D.obj
 0001:00005270       ??$_Ptr_cat@PAVPath2d@cinder@@PAV12@@std@@YA?AU_Nonscalar_ptr_iterator_tag@0@AAPAVPath2d@cinder@@0@Z 00406270 f i cinder:Font.obj
 0001:00005270       ??$_Ptr_cat@V?$_Vector_const_iterator@GV?$allocator@G@std@@@std@@PAG@std@@YA?AU_Scalar_ptr_iterator_tag@0@AAV?$_Vector_const_iterator@GV?$allocator@G@std@@@0@AAPAG@Z 00406270 f i cinder:Font.obj
 0001:00005270       ??$_Ptr_cat@PAW4SegmentType@Path2d@cinder@@PAW4123@@std@@YA?AU_Nonscalar_ptr_iterator_tag@0@AAPAW4SegmentType@Path2d@cinder@@0@Z 00406270 f i cinder:Path2D.obj
 0001:00005270       ??$_Ptr_cat@PAU?$pair@W4CustomAttr@Layout@VboMesh@gl@cinder@@I@std@@PAU12@@std@@YA?AU_Nonscalar_ptr_iterator_tag@0@AAPAU?$pair@W4CustomAttr@Layout@VboMesh@gl@cinder@@I@0@0@Z 00406270 f i cinder:VBO.obj
 0001:00005270       ??$_Move_cat@PAU?$pair@GG@std@@@std@@YA?AU_Undefined_move_tag@0@ABQAU?$pair@GG@0@@Z 00406270 f i cinder:Font.obj
 0001:00005270       ??$_Ptr_cat@PAU?$pair@GG@std@@PAU12@@std@@YA?AU_Nonscalar_ptr_iterator_tag@0@AAPAU?$pair@GG@0@0@Z 00406270 f i cinder:Font.obj
 0001:00005270       ??$_Ptr_cat@PAVTouch@TouchEvent@app@cinder@@PAV1234@@std@@YA?AU_Nonscalar_ptr_iterator_tag@0@AAPAVTouch@TouchEvent@app@cinder@@0@Z 00406270 f i basicApp.obj
 0001:00005270       ??$_Ptr_cat@PAV?$basic_string@DU?$char_traits@D@std@@V?$allocator@D@2@@std@@PAV12@@std@@YA?AU_Nonscalar_ptr_iterator_tag@0@AAPAV?$basic_string@DU?$char_traits@D@std@@V?$allocator@D@2@@0@0@Z 00406270 f i basicApp.obj
 0001:00005270       ??$_Move_cat@PAURun@cinder@@@std@@YA?AU_Undefined_move_tag@0@ABQAURun@cinder@@@Z 00406270 f i cinder:Text.obj
 0001:00005270       ??$_Ptr_cat@PAHPAH@std@@YA?AU_Scalar_ptr_iterator_tag@0@AAPAH0@Z 00406270 f i cinder:VBO.obj
 0001:00005270       ??$_Move_cat@PAVPath2d@cinder@@@std@@YA?AU_Undefined_move_tag@0@ABQAVPath2d@cinder@@@Z 00406270 f i cinder:Shape2d.obj
 0001:00005270       ??$_Move_cat@PAU?$pair@GV?$Vec2@M@cinder@@@std@@@std@@YA?AU_Undefined_move_tag@0@ABQAU?$pair@GV?$Vec2@M@cinder@@@0@@Z 00406270 f i cinder:Text.obj
 0001:00005270       ??$_Move_cat@PAU?$pair@HVTexture@gl@cinder@@@std@@@std@@YA?AU_Undefined_move_tag@0@ABQAU?$pair@HVTexture@gl@cinder@@@0@@Z 00406270 f i cinder:Texture.obj
 0001:00005270       ??$_Move_cat@PAVTouch@TouchEvent@app@cinder@@@std@@YA?AU_Undefined_move_tag@0@ABQAVTouch@TouchEvent@app@cinder@@@Z 00406270 f i cinder:AppImplMswBasic.obj
 0001:00005270       ??$_Char_traits_cat@U?$char_traits@_W@std@@@std@@YA?AU_Secure_char_traits_tag@0@XZ 00406270 f i cinder:AppBasic.obj
 0001:00005270       ??$_Ptr_cat@PADPAD@std@@YA?AU_Scalar_ptr_iterator_tag@0@AAPAD0@Z 00406270 f i cinder:Utilities.obj
 0001:00005270       ??$_Ptr_cat@PAV?$Vec2@M@cinder@@PAV12@@std@@YA?AU_Nonscalar_ptr_iterator_tag@0@AAPAV?$Vec2@M@cinder@@0@Z 00406270 f i cinder:gl.obj
 0001:00005270       ??$_Ptr_cat@PAIPAI@std@@YA?AU_Scalar_ptr_iterator_tag@0@AAPAI0@Z 00406270 f i cinder:VBO.obj
 0001:00005270       ??$_Ptr_cat@PA_WPA_W@std@@YA?AU_Scalar_ptr_iterator_tag@0@AAPA_W0@Z 00406270 f i cinder:Utilities.obj
 0001:00005270       ??$_Move_cat@PAV?$Vec2@M@cinder@@@std@@YA?AU_Undefined_move_tag@0@ABQAV?$Vec2@M@cinder@@@Z 00406270 f i cinder:Path2D.obj
 0001:00005270       ??$_Ptr_cat@V?$_Vector_const_iterator@VPath2d@cinder@@V?$allocator@VPath2d@cinder@@@std@@@std@@PAVPath2d@cinder@@@std@@YA?AU_Nonscalar_ptr_iterator_tag@0@AAV?$_Vector_const_iterator@VPath2d@cinder@@V?$allocator@VPath2d@cinder@@@std@@@0@AAPAVPath2d@cinder@@@Z 00406270 f i cinder:Font.obj
 0001:00005270       ??$_Ptr_cat@PAPAV?$shared_ptr@VLine@cinder@@@boost@@PAPAV12@@std@@YA?AU_Scalar_ptr_iterator_tag@0@AAPAPAV?$shared_ptr@VLine@cinder@@@boost@@0@Z 00406270 f i cinder:Text.obj
 0001:00005270       ??$_Ptr_cat@V?$_Vector_const_iterator@W4SegmentType@Path2d@cinder@@V?$allocator@W4SegmentType@Path2d@cinder@@@std@@@std@@PAW4SegmentType@Path2d@cinder@@@std@@YA?AU_Nonscalar_ptr_iterator_tag@0@AAV?$_Vector_const_iterator@W4SegmentType@Path2d@cinder@@V?$allocator@W4SegmentType@Path2d@cinder@@@std@@@0@AAPAW4SegmentType@Path2d@cinder@@@Z 00406270 f i cinder:Font.obj
 0001:00005270       ??$_Move_cat@PAI@std@@YA?AU_Undefined_move_tag@0@ABQAI@Z 00406270 f i cinder:VBO.obj
 0001:00005270       ??$_Ptr_cat@PAU?$pair@KV?$function@$$A6A_NVKeyEvent@app@cinder@@@Z@boost@@@std@@PAU12@@std@@YA?AU_Nonscalar_ptr_iterator_tag@0@AAPAU?$pair@KV?$function@$$A6A_NVKeyEvent@app@cinder@@@Z@boost@@@0@0@Z 00406270 f i cinder:App.obj
 0001:00005270       ??$_Ptr_cat@PAU?$pair@GV?$Vec2@M@cinder@@@std@@PAU12@@std@@YA?AU_Nonscalar_ptr_iterator_tag@0@AAPAU?$pair@GV?$Vec2@M@cinder@@@0@0@Z 00406270 f i cinder:Text.obj
 0001:00005270       ??$_Ptr_cat@PAU?$pair@KV?$function@$$A6A_NVFileDropEvent@app@cinder@@@Z@boost@@@std@@PAU12@@std@@YA?AU_Nonscalar_ptr_iterator_tag@0@AAPAU?$pair@KV?$function@$$A6A_NVFileDropEvent@app@cinder@@@Z@boost@@@0@0@Z 00406270 f i cinder:App.obj
 0001:00005270       ??$_Ptr_cat@V?$_Vector_const_iterator@V?$basic_string@DU?$char_traits@D@std@@V?$allocator@D@2@@std@@V?$allocator@V?$basic_string@DU?$char_traits@D@std@@V?$allocator@D@2@@std@@@2@@std@@PAV?$basic_string@DU?$char_traits@D@std@@V?$allocator@D@2@@2@@std@@YA?AU_Nonscalar_ptr_iterator_tag@0@AAV?$_Vector_const_iterator@V?$basic_string@DU?$char_traits@D@std@@V?$allocator@D@2@@std@@V?$allocator@V?$basic_string@DU?$char_traits@D@std@@V?$allocator@D@2@@std@@@2@@0@AAPAV?$basic_string@DU?$char_traits@D@std@@V?$allocator@D@2@@0@@Z 00406270 f i cinder:App.obj
 0001:00005270       ??$_Ptr_cat@PAU?$pair@HVTexture@gl@cinder@@@std@@PAU12@@std@@YA?AU_Nonscalar_ptr_iterator_tag@0@AAPAU?$pair@HVTexture@gl@cinder@@@0@0@Z 00406270 f i cinder:Texture.obj
 0001:00005270       ??$_Ptr_cat@PAURun@cinder@@PAU12@@std@@YA?AU_Nonscalar_ptr_iterator_tag@0@AAPAURun@cinder@@0@Z 00406270 f i cinder:Text.obj
 0001:00005270       ??$_Ptr_cat@V?$_Vector_const_iterator@VTouch@TouchEvent@app@cinder@@V?$allocator@VTouch@TouchEvent@app@cinder@@@std@@@std@@PAVTouch@TouchEvent@app@cinder@@@std@@YA?AU_Nonscalar_ptr_iterator_tag@0@AAV?$_Vector_const_iterator@VTouch@TouchEvent@app@cinder@@V?$allocator@VTouch@TouchEvent@app@cinder@@@std@@@0@AAPAVTouch@TouchEvent@app@cinder@@@Z 00406270 f i cinder:AppBasic.obj
 0001:00005270       ??$_Ptr_cat@PAGPAG@std@@YA?AU_Scalar_ptr_iterator_tag@0@AAPAG0@Z 00406270 f i cinder:Font.obj
 0001:00005270       ??$_Move_cat@PAV?$shared_ptr@VDisplay@cinder@@@boost@@@std@@YA?AU_Undefined_move_tag@0@ABQAV?$shared_ptr@VDisplay@cinder@@@boost@@@Z 00406270 f i cinder:Display.obj
 0001:00005270       ??$_Move_cat@PAW4SegmentType@Path2d@cinder@@@std@@YA?AU_Undefined_move_tag@0@ABQAW4SegmentType@Path2d@cinder@@@Z 00406270 f i cinder:Path2D.obj
 0001:00005270       ??$_Move_cat@PAV?$basic_string@DU?$char_traits@D@std@@V?$allocator@D@2@@std@@@std@@YA?AU_Swap_move_tag@0@ABQAV?$basic_string@DU?$char_traits@D@std@@V?$allocator@D@2@@0@@Z 00406270 f i cinder:AppBasic.obj
 0001:00005280       ??$_Uninit_copy@PAVTouch@TouchEvent@app@cinder@@PAV1234@V?$allocator@VTouch@TouchEvent@app@cinder@@@std@@@std@@YAPAVTouch@TouchEvent@app@cinder@@PAV1234@00AAV?$allocator@VTouch@TouchEvent@app@cinder@@@0@U_Nonscalar_ptr_iterator_tag@0@U_Range_checked_iterator_tag@0@@Z 00406280 f i cinder:AppImplMswBasic.obj
 0001:00005280       ??$_Uninit_copy@PBVTouch@TouchEvent@app@cinder@@PAV1234@V?$allocator@VTouch@TouchEvent@app@cinder@@@std@@@std@@YAPAVTouch@TouchEvent@app@cinder@@PBV1234@0PAV1234@AAV?$allocator@VTouch@TouchEvent@app@cinder@@@0@U_Nonscalar_ptr_iterator_tag@0@U_Range_checked_iterator_tag@0@@Z 00406280 f i cinder:AppBasic.obj
 0001:00005340       ??$_Uninit_move@PAV?$basic_string@DU?$char_traits@D@std@@V?$allocator@D@2@@std@@PAV12@V?$allocator@V?$basic_string@DU?$char_traits@D@std@@V?$allocator@D@2@@std@@@2@@std@@YAPAV?$basic_string@DU?$char_traits@D@std@@V?$allocator@D@2@@0@PAV10@00AAV?$allocator@V?$basic_string@DU?$char_traits@D@std@@V?$allocator@D@2@@std@@@0@U_Swap_move_tag@0@U_Range_checked_iterator_tag@0@@Z 00406340 f i cinder:AppBasic.obj
 0001:00005440       ??0?$basic_string@DU?$char_traits@D@std@@V?$allocator@D@2@@std@@QAE@XZ 00406440 f i cinder:AppBasic.obj
 0001:00005470       ??$_Move_backward_opt@PAV?$basic_string@DU?$char_traits@D@std@@V?$allocator@D@2@@std@@PAV12@Uforward_iterator_tag@2@@std@@YAPAV?$basic_string@DU?$char_traits@D@std@@V?$allocator@D@2@@0@PAV10@00Uforward_iterator_tag@0@U_Swap_move_tag@0@U_Range_checked_iterator_tag@0@@Z 00406470 f i cinder:AppBasic.obj
 0001:000054b0       ??$_Construct@V?$basic_string@DU?$char_traits@D@std@@V?$allocator@D@2@@std@@V12@@std@@YAXPAV?$basic_string@DU?$char_traits@D@std@@V?$allocator@D@2@@0@ABV10@@Z 004064b0 f i cinder:AppBasic.obj
 0001:00005530       ?has_trivial_copy_and_destroy@function_base@boost@@QBE_NXZ 00406530 f i cinder:AppBasic.obj
 0001:00005550       ?construct@?$allocator@VTouch@TouchEvent@app@cinder@@@std@@QAEXPAVTouch@TouchEvent@app@cinder@@ABV3456@@Z 00406550 f i cinder:AppBasic.obj
 0001:00005570       ??0?$error_info_injector@Vbad_function_call@boost@@@exception_detail@boost@@QAE@ABVbad_function_call@2@@Z 00406570 f i cinder:AppBasic.obj
 0001:000055f0       ??0exception@boost@@IAE@XZ 004065f0 f i cinder:AppBasic.obj
 0001:00005630       ??0?$clone_impl@U?$error_info_injector@Vbad_function_call@boost@@@exception_detail@boost@@@exception_detail@boost@@QAE@ABU?$error_info_injector@Vbad_function_call@boost@@@12@@Z 00406630 f i cinder:AppBasic.obj
 0001:00005700       ?copy_boost_exception@exception_detail@boost@@YAXPAVexception@2@PBV32@@Z 00406700 f i cinder:AppBasic.obj
 0001:000057d0       ??4?$refcount_ptr@Uerror_info_container@exception_detail@boost@@@exception_detail@boost@@QAEAAV012@ABV012@@Z 004067d0 f i cinder:AppBasic.obj
 0001:000057f0       ?adopt@?$refcount_ptr@Uerror_info_container@exception_detail@boost@@@exception_detail@boost@@QAEXPAUerror_info_container@23@@Z 004067f0 f i cinder:AppBasic.obj
 0001:00005820       ??0clone_base@exception_detail@boost@@QAE@XZ 00406820 f i cinder:AppBasic.obj
 0001:00005840       ??$swap@DU?$char_traits@D@std@@V?$allocator@D@2@@std@@YAXAAV?$basic_string@DU?$char_traits@D@std@@V?$allocator@D@2@@0@0@Z 00406840 f i cinder:AppBasic.obj
 0001:00005860       ??$_Construct@VTouch@TouchEvent@app@cinder@@V1234@@std@@YAXPAVTouch@TouchEvent@app@cinder@@ABV1234@@Z 00406860 f i cinder:AppBasic.obj
 0001:000058e0       ?swap@?$basic_string@DU?$char_traits@D@std@@V?$allocator@D@2@@std@@QAEXAAV12@@Z 004068e0 f i cinder:AppBasic.obj
 0001:00005a30       ??$?8DD@std@@YA_NABV?$allocator@D@0@0@Z 00406a30 f i cinder:AppBasic.obj
 0001:00005a40       ??_E?$error_info_injector@Vbad_function_call@boost@@@exception_detail@boost@@WCI@AEPAXI@Z 00406a40 f i cinder:AppBasic.obj
 0001:00005a50       ??_E?$clone_impl@U?$error_info_injector@Vbad_function_call@boost@@@exception_detail@boost@@@exception_detail@boost@@WDM@AEPAXI@Z 00406a50 f i cinder:AppBasic.obj
 0001:00005a60       ??_E?$clone_impl@U?$error_info_injector@Vbad_function_call@boost@@@exception_detail@boost@@@exception_detail@boost@@WCI@AEPAXI@Z 00406a60 f i cinder:AppBasic.obj
 0001:00005a70       ??0App@app@cinder@@QAE@XZ  00406a70 f   cinder:App.obj
 0001:00005bb0       ??1App@app@cinder@@UAE@XZ  00406bb0 f   cinder:App.obj
 0001:00005cb0       ?privateMouseDown__@App@app@cinder@@QAEXABVMouseEvent@23@@Z 00406cb0 f   cinder:App.obj
 0001:00005da0       ?privateMouseUp__@App@app@cinder@@QAEXABVMouseEvent@23@@Z 00406da0 f   cinder:App.obj
 0001:00005e90       ?privateMouseWheel__@App@app@cinder@@QAEXABVMouseEvent@23@@Z 00406e90 f   cinder:App.obj
 0001:00005f90       ?privateMouseMove__@App@app@cinder@@QAEXABVMouseEvent@23@@Z 00406f90 f   cinder:App.obj
 0001:00006090       ?privateMouseDrag__@App@app@cinder@@QAEXABVMouseEvent@23@@Z 00407090 f   cinder:App.obj
 0001:00006190       ?privateKeyDown__@App@app@cinder@@QAEXABVKeyEvent@23@@Z 00407190 f   cinder:App.obj
 0001:00006290       ?privateKeyUp__@App@app@cinder@@QAEXABVKeyEvent@23@@Z 00407290 f   cinder:App.obj
 0001:00006390       ?privateResize__@App@app@cinder@@UAEXABVResizeEvent@23@@Z 00407390 f   cinder:App.obj
 0001:000064a0       ?privateFileDrop__@App@app@cinder@@QAEXABVFileDropEvent@23@@Z 004074a0 f   cinder:App.obj
 0001:000065a0       ?privateSetup__@App@app@cinder@@UAEXXZ 004075a0 f   cinder:App.obj
 0001:000065c0       ?privateUpdate__@App@app@cinder@@UAEXXZ 004075c0 f   cinder:App.obj
 0001:00006660       ?privateDraw__@App@app@cinder@@UAEXXZ 00407660 f   cinder:App.obj
 0001:00006680       ?privateShutdown__@App@app@cinder@@UAEXXZ 00407680 f   cinder:App.obj
 0001:000066a0       ?loadResource@App@app@cinder@@SA?AV?$shared_ptr@VDataSource@cinder@@@boost@@ABV?$basic_string@DU?$char_traits@D@std@@V?$allocator@D@2@@std@@H0@Z 004076a0 f   cinder:App.obj
 0001:00006750       ?loadResource@App@app@cinder@@SA?AV?$shared_ptr@VDataSourceBuffer@cinder@@@boost@@HABV?$basic_string@DU?$char_traits@D@std@@V?$allocator@D@2@@std@@@Z 00407750 f   cinder:App.obj
 0001:000067f0       ?getOpenFilePath@App@app@cinder@@QAE?AV?$basic_string@DU?$char_traits@D@std@@V?$allocator@D@2@@std@@ABV45@V?$vector@V?$basic_string@DU?$char_traits@D@std@@V?$allocator@D@2@@std@@V?$allocator@V?$basic_string@DU?$char_traits@D@std@@V?$allocator@D@2@@std@@@2@@5@@Z 004077f0 f   cinder:App.obj
 0001:00006880       ?getFolderPath@App@app@cinder@@QAE?AV?$basic_string@DU?$char_traits@D@std@@V?$allocator@D@2@@std@@ABV45@@Z 00407880 f   cinder:App.obj
 0001:000068c0       ?getSaveFilePath@App@app@cinder@@QAE?AV?$basic_string@DU?$char_traits@D@std@@V?$allocator@D@2@@std@@ABV45@V?$vector@V?$basic_string@DU?$char_traits@D@std@@V?$allocator@D@2@@std@@V?$allocator@V?$basic_string@DU?$char_traits@D@std@@V?$allocator@D@2@@std@@@2@@5@@Z 004078c0 f   cinder:App.obj
 0001:00006950       ?console@App@app@cinder@@QAEAAV?$basic_ostream@DU?$char_traits@D@std@@@std@@XZ 00407950 f   cinder:App.obj
 0001:00006a20       ?copyWindowSurface@App@app@cinder@@QAE?AV?$SurfaceT@E@3@XZ 00407a20 f   cinder:App.obj
 0001:00006a70       ?copyWindowSurface@App@app@cinder@@QAE?AV?$SurfaceT@E@3@ABV?$AreaT@J@3@@Z 00407a70 f   cinder:App.obj
 0001:00006ad0       ?restoreWindowContext@App@app@cinder@@QAEXXZ 00407ad0 f   cinder:App.obj
 0001:00006ae0       ?prepareLaunch@App@app@cinder@@KAXXZ 00407ae0 f   cinder:App.obj
 0001:00006af0       ?executeLaunch@App@app@cinder@@KAXPAV123@PAVRenderer@23@PBDHQBQAD@Z 00407af0 f   cinder:App.obj
 0001:00006b90       ?cleanupLaunch@App@app@cinder@@KAXXZ 00407b90 f   cinder:App.obj
 0001:00006ba0       ??0Settings@App@app@cinder@@IAE@XZ 00407ba0 f   cinder:App.obj
 0001:00006c00       ?setWindowSize@Settings@App@app@cinder@@QAEXHH@Z 00407c00 f   cinder:App.obj
 0001:00006c20       ?setFrameRate@Settings@App@app@cinder@@QAEXM@Z 00407c20 f   cinder:App.obj
 0001:00006c40       ?enablePowerManagement@Settings@App@app@cinder@@QAEX_N@Z 00407c40 f   cinder:App.obj
 0001:00006c60       ??0ResourceLoadExc@app@cinder@@QAE@HABV?$basic_string@DU?$char_traits@D@std@@V?$allocator@D@2@@std@@@Z 00407c60 f   cinder:App.obj
 0001:00006ce0       ??0ResourceLoadExc@app@cinder@@QAE@ABV?$basic_string@DU?$char_traits@D@std@@V?$allocator@D@2@@std@@H0@Z 00407ce0 f   cinder:App.obj
 0001:00006d70       ??_EApp@app@cinder@@UAEPAXI@Z 00407d70 f i cinder:App.obj
 0001:00006d70       ??_GApp@app@cinder@@UAEPAXI@Z 00407d70 f i cinder:App.obj
 0001:00006da0       ??0?$CallbackMgr@$$A6A_NVKeyEvent@app@cinder@@@Z@cinder@@QAE@XZ 00407da0 f i cinder:App.obj
 0001:00006da0       ??0?$CallbackMgr@$$A6A_NVResizeEvent@app@cinder@@@Z@cinder@@QAE@XZ 00407da0 f i cinder:App.obj
 0001:00006da0       ??0?$CallbackMgr@$$A6A_NVFileDropEvent@app@cinder@@@Z@cinder@@QAE@XZ 00407da0 f i cinder:App.obj
 0001:00006da0       ??0?$CallbackMgr@$$A6A_NVTouchEvent@app@cinder@@@Z@cinder@@QAE@XZ 00407da0 f i cinder:AppBasic.obj
 0001:00006da0       ??0?$CallbackMgr@$$A6A_NVMouseEvent@app@cinder@@@Z@cinder@@QAE@XZ 00407da0 f i cinder:App.obj
 0001:00006dc0       ??1?$CallbackMgr@$$A6A_NVResizeEvent@app@cinder@@@Z@cinder@@QAE@XZ 00407dc0 f i cinder:App.obj
 0001:00006dc0       ??1?$CallbackMgr@$$A6A_NVMouseEvent@app@cinder@@@Z@cinder@@QAE@XZ 00407dc0 f i cinder:App.obj
 0001:00006dc0       ??1?$CallbackMgr@$$A6A_NVTouchEvent@app@cinder@@@Z@cinder@@QAE@XZ 00407dc0 f i cinder:AppBasic.obj
 0001:00006dc0       ??1?$CallbackMgr@$$A6A_NVFileDropEvent@app@cinder@@@Z@cinder@@QAE@XZ 00407dc0 f i cinder:App.obj
 0001:00006dc0       ??1?$CallbackMgr@$$A6A_NVKeyEvent@app@cinder@@@Z@cinder@@QAE@XZ 00407dc0 f i cinder:App.obj
 0001:00006de0       ??0MouseEvent@app@cinder@@QAE@ABV012@@Z 00407de0 f i cinder:App.obj
 0001:00006e50       ??0KeyEvent@app@cinder@@QAE@ABV012@@Z 00407e50 f i cinder:App.obj
 0001:00006eb0       ??_EKeyEvent@app@cinder@@UAEPAXI@Z 00407eb0 f i cinder:App.obj
 0001:00006eb0       ??_EMouseEvent@app@cinder@@UAEPAXI@Z 00407eb0 f i cinder:App.obj
 0001:00006eb0       ??_GResizeEvent@app@cinder@@UAEPAXI@Z 00407eb0 f i cinder:App.obj
 0001:00006eb0       ??_EResizeEvent@app@cinder@@UAEPAXI@Z 00407eb0 f i cinder:App.obj
 0001:00006eb0       ??_GMouseEvent@app@cinder@@UAEPAXI@Z 00407eb0 f i cinder:App.obj
 0001:00006eb0       ??_GKeyEvent@app@cinder@@UAEPAXI@Z 00407eb0 f i cinder:App.obj
 0001:00006ee0       ?getRenderer@App@app@cinder@@QBEPAVRenderer@23@XZ 00407ee0 f i cinder:App.obj
 0001:00006f00       ??0ResizeEvent@app@cinder@@QAE@ABV012@@Z 00407f00 f i cinder:App.obj
 0001:00006f70       ??0FileDropEvent@app@cinder@@QAE@ABV012@@Z 00407f70 f i cinder:App.obj
 0001:00007000       ??_GFileDropEvent@app@cinder@@UAEPAXI@Z 00408000 f i cinder:App.obj
 0001:00007000       ??_EFileDropEvent@app@cinder@@UAEPAXI@Z 00408000 f i cinder:App.obj
 0001:00007030       ?getWindowBounds@App@app@cinder@@QBE?AV?$AreaT@J@3@XZ 00408030 f i cinder:App.obj
 0001:00007070       ??1Exception@cinder@@UAE@XZ 00408070 f i cinder:App.obj
 0001:00007090       ??_GException@cinder@@UAEPAXI@Z 00408090 f i cinder:App.obj
 0001:00007090       ??_EException@cinder@@UAEPAXI@Z 00408090 f i cinder:App.obj
 0001:000070c0       ?what@FontInvalidNameExc@cinder@@UBEPBDXZ 004080c0 f i cinder:Font.obj
 0001:000070c0       ?what@ResourceLoadExc@app@cinder@@UBEPBDXZ 004080c0 f i cinder:App.obj
 0001:000070c0       ?what@TextureDataExc@gl@cinder@@UBEPBDXZ 004080c0 f i cinder:Texture.obj
 0001:000070e0       ??0?$AreaT@J@cinder@@QAE@JJJJ@Z 004080e0 f i cinder:App.obj
 0001:00007110       ??0?$vector@V?$basic_string@DU?$char_traits@D@std@@V?$allocator@D@2@@std@@V?$allocator@V?$basic_string@DU?$char_traits@D@std@@V?$allocator@D@2@@std@@@2@@std@@QAE@ABV01@@Z 00408110 f i cinder:App.obj
 0001:00007210       ??0shared_count@detail@boost@@QAE@XZ 00408210 f i cinder:App.obj
 0001:00007210       ??0_Iterator_base_secure@std@@QAE@XZ 00408210 f i cinder:Utilities.obj
 0001:00007210       ??0?$refcount_ptr@Uerror_info_container@exception_detail@boost@@@exception_detail@boost@@QAE@XZ 00408210 f i cinder:AppBasic.obj
 0001:00007210       ??0_Iterator_base_aux@std@@QAE@XZ 00408210 f i basicApp.obj
 0001:00007230       ??7?$shared_ptr@E@boost@@QBE_NXZ 00408230 f i cinder:Font.obj
 0001:00007230       ?empty@function_base@boost@@QBE_NXZ 00408230 f i cinder:AppBasic.obj
 0001:00007230       ??7?$shared_ptr@VIStream@cinder@@@boost@@QBE_NXZ 00408230 f i cinder:Stream.obj
 0001:00007230       ??7?$shared_ptr@VIStreamFile@cinder@@@boost@@QBE_NXZ 00408230 f i cinder:DataSource.obj
 0001:00007230       ??7?$shared_ptr@UInst@ImageIoRegistrar@cinder@@@boost@@QBE_NXZ 00408230 f i cinder:ImageIo.obj
 0001:00007230       ??7?$shared_ptr@V?$basic_dostream@DU?$char_traits@D@std@@@msw@cinder@@@boost@@QBE_NXZ 00408230 f i cinder:App.obj
 0001:00007230       ??7?$shared_ptr@X@boost@@QBE_NXZ 00408230 f i cinder:UrlImplWinInet.obj
 0001:00007230       ??7?$shared_ptr@V?$map@V?$basic_string@DU?$char_traits@D@std@@V?$allocator@D@2@@std@@PBU_GUID@@U?$less@V?$basic_string@DU?$char_traits@D@std@@V?$allocator@D@2@@std@@@2@V?$allocator@U?$pair@$$CBV?$basic_string@DU?$char_traits@D@std@@V?$allocator@D@2@@std@@PBU_GUID@@@std@@@2@@std@@@boost@@QBE_NXZ 00408230 f i cinder:ImageTargetFileWic.obj
 0001:00007230       ??7?$shared_ptr@VOStreamFile@cinder@@@boost@@QBE_NXZ 00408230 f i cinder:DataTarget.obj
 0001:00007250       ?begin@?$CallbackMgr@$$A6A_NVMouseEvent@app@cinder@@@Z@cinder@@QAE?AV?$_Vector_iterator@U?$pair@KV?$function@$$A6A_NVMouseEvent@app@cinder@@@Z@boost@@@std@@V?$allocator@U?$pair@KV?$function@$$A6A_NVMouseEvent@app@cinder@@@Z@boost@@@std@@@2@@std@@XZ 00408250 f i cinder:App.obj
 0001:00007250       ?begin@?$CallbackMgr@$$A6A_NVResizeEvent@app@cinder@@@Z@cinder@@QAE?AV?$_Vector_iterator@U?$pair@KV?$function@$$A6A_NVResizeEvent@app@cinder@@@Z@boost@@@std@@V?$allocator@U?$pair@KV?$function@$$A6A_NVResizeEvent@app@cinder@@@Z@boost@@@std@@@2@@std@@XZ 00408250 f i cinder:App.obj
 0001:00007250       ?begin@?$CallbackMgr@$$A6A_NVKeyEvent@app@cinder@@@Z@cinder@@QAE?AV?$_Vector_iterator@U?$pair@KV?$function@$$A6A_NVKeyEvent@app@cinder@@@Z@boost@@@std@@V?$allocator@U?$pair@KV?$function@$$A6A_NVKeyEvent@app@cinder@@@Z@boost@@@std@@@2@@std@@XZ 00408250 f i cinder:App.obj
 0001:00007250       ?begin@?$CallbackMgr@$$A6A_NVTouchEvent@app@cinder@@@Z@cinder@@QAE?AV?$_Vector_iterator@U?$pair@KV?$function@$$A6A_NVTouchEvent@app@cinder@@@Z@boost@@@std@@V?$allocator@U?$pair@KV?$function@$$A6A_NVTouchEvent@app@cinder@@@Z@boost@@@std@@@2@@std@@XZ 00408250 f i cinder:AppBasic.obj
 0001:00007250       ?begin@?$CallbackMgr@$$A6A_NVFileDropEvent@app@cinder@@@Z@cinder@@QAE?AV?$_Vector_iterator@U?$pair@KV?$function@$$A6A_NVFileDropEvent@app@cinder@@@Z@boost@@@std@@V?$allocator@U?$pair@KV?$function@$$A6A_NVFileDropEvent@app@cinder@@@Z@boost@@@std@@@2@@std@@XZ 00408250 f i cinder:App.obj
 0001:00007270       ??0?$vector@U?$pair@KV?$function@$$A6A_NVFileDropEvent@app@cinder@@@Z@boost@@@std@@V?$allocator@U?$pair@KV?$function@$$A6A_NVFileDropEvent@app@cinder@@@Z@boost@@@std@@@2@@std@@QAE@XZ 00408270 f i cinder:App.obj
 0001:00007270       ??0?$vector@U?$pair@KV?$function@$$A6A_NVResizeEvent@app@cinder@@@Z@boost@@@std@@V?$allocator@U?$pair@KV?$function@$$A6A_NVResizeEvent@app@cinder@@@Z@boost@@@std@@@2@@std@@QAE@XZ 00408270 f i cinder:App.obj
 0001:00007270       ??0?$vector@U?$pair@KV?$function@$$A6A_NVKeyEvent@app@cinder@@@Z@boost@@@std@@V?$allocator@U?$pair@KV?$function@$$A6A_NVKeyEvent@app@cinder@@@Z@boost@@@std@@@2@@std@@QAE@XZ 00408270 f i cinder:App.obj
 0001:00007270       ??0?$vector@U?$pair@KV?$function@$$A6A_NVTouchEvent@app@cinder@@@Z@boost@@@std@@V?$allocator@U?$pair@KV?$function@$$A6A_NVTouchEvent@app@cinder@@@Z@boost@@@std@@@2@@std@@QAE@XZ 00408270 f i cinder:AppBasic.obj
 0001:00007270       ??0?$vector@U?$pair@KV?$function@$$A6A_NVMouseEvent@app@cinder@@@Z@boost@@@std@@V?$allocator@U?$pair@KV?$function@$$A6A_NVMouseEvent@app@cinder@@@Z@boost@@@std@@@2@@std@@QAE@XZ 00408270 f i cinder:App.obj
 0001:000072e0       ??1?$vector@U?$pair@KV?$function@$$A6A_NVResizeEvent@app@cinder@@@Z@boost@@@std@@V?$allocator@U?$pair@KV?$function@$$A6A_NVResizeEvent@app@cinder@@@Z@boost@@@std@@@2@@std@@QAE@XZ 004082e0 f i cinder:App.obj
 0001:000072e0       ??1?$vector@U?$pair@KV?$function@$$A6A_NVKeyEvent@app@cinder@@@Z@boost@@@std@@V?$allocator@U?$pair@KV?$function@$$A6A_NVKeyEvent@app@cinder@@@Z@boost@@@std@@@2@@std@@QAE@XZ 004082e0 f i cinder:App.obj
 0001:000072e0       ??1?$vector@U?$pair@KV?$function@$$A6A_NVTouchEvent@app@cinder@@@Z@boost@@@std@@V?$allocator@U?$pair@KV?$function@$$A6A_NVTouchEvent@app@cinder@@@Z@boost@@@std@@@2@@std@@QAE@XZ 004082e0 f i cinder:AppBasic.obj
 0001:000072e0       ??1?$vector@U?$pair@KV?$function@$$A6A_NVFileDropEvent@app@cinder@@@Z@boost@@@std@@V?$allocator@U?$pair@KV?$function@$$A6A_NVFileDropEvent@app@cinder@@@Z@boost@@@std@@@2@@std@@QAE@XZ 004082e0 f i cinder:App.obj
 0001:000072e0       ??1?$vector@U?$pair@KV?$function@$$A6A_NVMouseEvent@app@cinder@@@Z@boost@@@std@@V?$allocator@U?$pair@KV?$function@$$A6A_NVMouseEvent@app@cinder@@@Z@boost@@@std@@@2@@std@@QAE@XZ 004082e0 f i cinder:App.obj
 0001:00007340       ?end@?$CallbackMgr@$$A6A_NVFileDropEvent@app@cinder@@@Z@cinder@@QAE?AV?$_Vector_iterator@U?$pair@KV?$function@$$A6A_NVFileDropEvent@app@cinder@@@Z@boost@@@std@@V?$allocator@U?$pair@KV?$function@$$A6A_NVFileDropEvent@app@cinder@@@Z@boost@@@std@@@2@@std@@XZ 00408340 f i cinder:App.obj
 0001:00007340       ?end@?$CallbackMgr@$$A6A_NVKeyEvent@app@cinder@@@Z@cinder@@QAE?AV?$_Vector_iterator@U?$pair@KV?$function@$$A6A_NVKeyEvent@app@cinder@@@Z@boost@@@std@@V?$allocator@U?$pair@KV?$function@$$A6A_NVKeyEvent@app@cinder@@@Z@boost@@@std@@@2@@std@@XZ 00408340 f i cinder:App.obj
 0001:00007340       ?end@?$CallbackMgr@$$A6A_NVResizeEvent@app@cinder@@@Z@cinder@@QAE?AV?$_Vector_iterator@U?$pair@KV?$function@$$A6A_NVResizeEvent@app@cinder@@@Z@boost@@@std@@V?$allocator@U?$pair@KV?$function@$$A6A_NVResizeEvent@app@cinder@@@Z@boost@@@std@@@2@@std@@XZ 00408340 f i cinder:App.obj
 0001:00007340       ?end@?$CallbackMgr@$$A6A_NVTouchEvent@app@cinder@@@Z@cinder@@QAE?AV?$_Vector_iterator@U?$pair@KV?$function@$$A6A_NVTouchEvent@app@cinder@@@Z@boost@@@std@@V?$allocator@U?$pair@KV?$function@$$A6A_NVTouchEvent@app@cinder@@@Z@boost@@@std@@@2@@std@@XZ 00408340 f i cinder:AppBasic.obj
 0001:00007340       ?end@?$CallbackMgr@$$A6A_NVMouseEvent@app@cinder@@@Z@cinder@@QAE?AV?$_Vector_iterator@U?$pair@KV?$function@$$A6A_NVMouseEvent@app@cinder@@@Z@boost@@@std@@V?$allocator@U?$pair@KV?$function@$$A6A_NVMouseEvent@app@cinder@@@Z@boost@@@std@@@2@@std@@XZ 00408340 f i cinder:App.obj
 0001:00007360       ??E?$_Vector_iterator@U?$pair@KV?$function@$$A6A_NVResizeEvent@app@cinder@@@Z@boost@@@std@@V?$allocator@U?$pair@KV?$function@$$A6A_NVResizeEvent@app@cinder@@@Z@boost@@@std@@@2@@std@@QAEAAV01@XZ 00408360 f i cinder:App.obj
 0001:00007360       ??E?$_Vector_iterator@U?$pair@KV?$function@$$A6A_NVKeyEvent@app@cinder@@@Z@boost@@@std@@V?$allocator@U?$pair@KV?$function@$$A6A_NVKeyEvent@app@cinder@@@Z@boost@@@std@@@2@@std@@QAEAAV01@XZ 00408360 f i cinder:App.obj
 0001:00007360       ??E?$_Vector_iterator@U?$pair@KV?$function@$$A6A_NVTouchEvent@app@cinder@@@Z@boost@@@std@@V?$allocator@U?$pair@KV?$function@$$A6A_NVTouchEvent@app@cinder@@@Z@boost@@@std@@@2@@std@@QAEAAV01@XZ 00408360 f i cinder:AppBasic.obj
 0001:00007360       ??E?$_Vector_iterator@U?$pair@KV?$function@$$A6A_NVMouseEvent@app@cinder@@@Z@boost@@@std@@V?$allocator@U?$pair@KV?$function@$$A6A_NVMouseEvent@app@cinder@@@Z@boost@@@std@@@2@@std@@QAEAAV01@XZ 00408360 f i cinder:App.obj
 0001:00007360       ??E?$_Vector_iterator@U?$pair@KV?$function@$$A6A_NVFileDropEvent@app@cinder@@@Z@boost@@@std@@V?$allocator@U?$pair@KV?$function@$$A6A_NVFileDropEvent@app@cinder@@@Z@boost@@@std@@@2@@std@@QAEAAV01@XZ 00408360 f i cinder:App.obj
 0001:00007380       ??C?$_Vector_iterator@U?$pair@HVTexture@gl@cinder@@@std@@V?$allocator@U?$pair@HVTexture@gl@cinder@@@std@@@2@@std@@QBEPAU?$pair@HVTexture@gl@cinder@@@1@XZ 00408380 f i cinder:Texture.obj
 0001:00007380       ??C?$_Vector_iterator@U?$pair@KV?$function@$$A6A_NVResizeEvent@app@cinder@@@Z@boost@@@std@@V?$allocator@U?$pair@KV?$function@$$A6A_NVResizeEvent@app@cinder@@@Z@boost@@@std@@@2@@std@@QBEPAU?$pair@KV?$function@$$A6A_NVResizeEvent@app@cinder@@@Z@boost@@@1@XZ 00408380 f i cinder:App.obj
 0001:00007380       ??C?$_Vector_iterator@U?$pair@KV?$function@$$A6A_NVTouchEvent@app@cinder@@@Z@boost@@@std@@V?$allocator@U?$pair@KV?$function@$$A6A_NVTouchEvent@app@cinder@@@Z@boost@@@std@@@2@@std@@QBEPAU?$pair@KV?$function@$$A6A_NVTouchEvent@app@cinder@@@Z@boost@@@1@XZ 00408380 f i cinder:AppBasic.obj
 0001:00007380       ??C?$_Vector_iterator@U?$pair@KV?$function@$$A6A_NVFileDropEvent@app@cinder@@@Z@boost@@@std@@V?$allocator@U?$pair@KV?$function@$$A6A_NVFileDropEvent@app@cinder@@@Z@boost@@@std@@@2@@std@@QBEPAU?$pair@KV?$function@$$A6A_NVFileDropEvent@app@cinder@@@Z@boost@@@1@XZ 00408380 f i cinder:App.obj
 0001:00007380       ??C?$_Vector_iterator@U?$pair@KV?$function@$$A6A_NVKeyEvent@app@cinder@@@Z@boost@@@std@@V?$allocator@U?$pair@KV?$function@$$A6A_NVKeyEvent@app@cinder@@@Z@boost@@@std@@@2@@std@@QBEPAU?$pair@KV?$function@$$A6A_NVKeyEvent@app@cinder@@@Z@boost@@@1@XZ 00408380 f i cinder:App.obj
 0001:00007380       ??C?$_Vector_iterator@U?$pair@KV?$function@$$A6A_NVMouseEvent@app@cinder@@@Z@boost@@@std@@V?$allocator@U?$pair@KV?$function@$$A6A_NVMouseEvent@app@cinder@@@Z@boost@@@std@@@2@@std@@QBEPAU?$pair@KV?$function@$$A6A_NVMouseEvent@app@cinder@@@Z@boost@@@1@XZ 00408380 f i cinder:App.obj
 0001:000073a0       ??0?$basic_dostream@DU?$char_traits@D@std@@@msw@cinder@@QAE@XZ 004083a0 f i cinder:App.obj
 0001:00007470       ??1?$basic_ios@DU?$char_traits@D@std@@@std@@UAE@XZ 00408470 f i cinder:App.obj
 0001:00007490       ??1ios_base@std@@UAE@XZ    00408490 f i cinder:App.obj
 0001:000074b0       ??_Gios_base@std@@UAEPAXI@Z 004084b0 f i cinder:App.obj
 0001:000074b0       ??_Eios_base@std@@UAEPAXI@Z 004084b0 f i cinder:App.obj
 0001:000074e0       ??_E?$basic_ios@DU?$char_traits@D@std@@@std@@UAEPAXI@Z 004084e0 f i cinder:App.obj
 0001:000074e0       ??_G?$basic_ios@DU?$char_traits@D@std@@@std@@UAEPAXI@Z 004084e0 f i cinder:App.obj
 0001:00007510       ??0?$basic_debugbuf@DU?$char_traits@D@std@@@msw@cinder@@QAE@XZ 00408510 f i cinder:App.obj
 0001:00007540       ?uflow@?$basic_streambuf@DU?$char_traits@D@std@@@std@@MAEHXZ 00408540 f i cinder:App.obj
 0001:000075a0       ?to_int_type@?$char_traits@D@std@@SAHABD@Z 004085a0 f i cinder:App.obj
 0001:000075b0       ?eq_int_type@?$char_traits@D@std@@SA_NABH0@Z 004085b0 f i cinder:App.obj
 0001:000075d0       ?eof@?$char_traits@D@std@@SAHXZ 004085d0 f i cinder:App.obj
 0001:000075e0       ?xsgetn@?$basic_streambuf@DU?$char_traits@D@std@@@std@@MAEHPADH@Z 004085e0 f i cinder:App.obj
 0001:00007610       ?_Xsgetn_s@?$basic_streambuf@DU?$char_traits@D@std@@@std@@MAEHPADIH@Z 00408610 f i cinder:App.obj
 0001:00007710       ?to_char_type@?$char_traits@D@std@@SADABH@Z 00408710 f i cinder:App.obj
 0001:00007720       ?xsputn@?$basic_streambuf@DU?$char_traits@D@std@@@std@@MAEHPBDH@Z 00408720 f i cinder:App.obj
 0001:00007810       ?setbuf@?$basic_streambuf@DU?$char_traits@D@std@@@std@@MAEPAV12@PADH@Z 00408810 f i cinder:App.obj
 0001:00007820       ?setWindowHeight@AppImplMsw@app@cinder@@UAEXH@Z 00408820 f i cinder:AppImplMsw.obj
 0001:00007820       ?setWindowWidth@AppImplMsw@app@cinder@@UAEXH@Z 00408820 f i cinder:AppImplMsw.obj
 0001:00007820       ?prepareSettings@AppBasic@app@cinder@@UAEXPAVSettings@123@@Z 00408820 f i basicApp.obj
 0001:00007820       ?imbue@?$basic_streambuf@DU?$char_traits@D@std@@@std@@MAEXABVlocale@2@@Z 00408820 f i cinder:App.obj
 0001:00007820       ?OnOutput@CinderStackWalker@cinder@@UAEXPBD@Z 00408820 f i cinder:Utilities.obj
 0001:00007830       ?sync@?$basic_debugbuf@DU?$char_traits@D@std@@@msw@cinder@@MAEHXZ 00408830 f i cinder:App.obj
 0001:000078e0       ?output_debug_string@?$basic_debugbuf@DU?$char_traits@D@std@@@msw@cinder@@IAEXPBD@Z 004088e0 f i cinder:App.obj
 0001:00007900       ?overflow@?$basic_stringbuf@DU?$char_traits@D@std@@V?$allocator@D@2@@std@@MAEHH@Z 00408900 f i cinder:App.obj
 0001:00007bf0       ?not_eof@?$char_traits@D@std@@SAHABH@Z 00408bf0 f i cinder:App.obj
 0001:00007c20       ?pbackfail@?$basic_stringbuf@DU?$char_traits@D@std@@V?$allocator@D@2@@std@@MAEHH@Z 00408c20 f i cinder:App.obj
 0001:00007d10       ?eq@?$char_traits@D@std@@SA_NABD0@Z 00408d10 f i cinder:App.obj
 0001:00007d30       ?underflow@?$basic_stringbuf@DU?$char_traits@D@std@@V?$allocator@D@2@@std@@MAEHXZ 00408d30 f i cinder:App.obj
 0001:00007e20       ?seekoff@?$basic_stringbuf@DU?$char_traits@D@std@@V?$allocator@D@2@@std@@MAE?AV?$fpos@H@2@JHH@Z 00408e20 f i cinder:App.obj
 0001:00008020       ?seekpos@?$basic_stringbuf@DU?$char_traits@D@std@@V?$allocator@D@2@@std@@MAE?AV?$fpos@H@2@V32@H@Z 00409020 f i cinder:App.obj
 0001:00008180       ??B?$fpos@H@std@@QBEJXZ    00409180 f i cinder:App.obj
 0001:000081a0       ??_E?$basic_debugbuf@DU?$char_traits@D@std@@@msw@cinder@@UAEPAXI@Z 004091a0 f i cinder:App.obj
 0001:000081a0       ??_G?$basic_debugbuf@DU?$char_traits@D@std@@@msw@cinder@@UAEPAXI@Z 004091a0 f i cinder:App.obj
 0001:000081d0       ??1?$basic_debugbuf@DU?$char_traits@D@std@@@msw@cinder@@UAE@XZ 004091d0 f i cinder:App.obj
 0001:00008230       ??1?$basic_stringbuf@DU?$char_traits@D@std@@V?$allocator@D@2@@std@@UAE@XZ 00409230 f i cinder:App.obj
 0001:00008290       ??1?$basic_streambuf@DU?$char_traits@D@std@@@std@@UAE@XZ 00409290 f i cinder:App.obj
 0001:000082e0       ?pbackfail@?$basic_streambuf@DU?$char_traits@D@std@@@std@@MAEHH@Z 004092e0 f i cinder:App.obj
 0001:000082e0       ?overflow@?$basic_streambuf@DU?$char_traits@D@std@@@std@@MAEHH@Z 004092e0 f i cinder:App.obj
 0001:00008300       ?underflow@?$basic_streambuf@DU?$char_traits@D@std@@@std@@MAEHXZ 00409300 f i cinder:App.obj
 0001:00008310       ?seekoff@?$basic_streambuf@DU?$char_traits@D@std@@@std@@MAE?AV?$fpos@H@2@JHH@Z 00409310 f i cinder:App.obj
 0001:00008330       ?seekpos@?$basic_streambuf@DU?$char_traits@D@std@@@std@@MAE?AV?$fpos@H@2@V32@H@Z 00409330 f i cinder:App.obj
 0001:00008350       ?showmanyc@?$basic_streambuf@DU?$char_traits@D@std@@@std@@MAEHXZ 00409350 f i cinder:App.obj
 0001:00008350       ?sync@?$basic_streambuf@DU?$char_traits@D@std@@@std@@MAEHXZ 00409350 f i cinder:App.obj
 0001:00008360       ??_E?$basic_streambuf@DU?$char_traits@D@std@@@std@@UAEPAXI@Z 00409360 f i cinder:App.obj
 0001:00008360       ??_G?$basic_streambuf@DU?$char_traits@D@std@@@std@@UAEPAXI@Z 00409360 f i cinder:App.obj
 0001:00008390       ??_Glocale@std@@QAEPAXI@Z  00409390 f i cinder:App.obj
 0001:000083c0       ??1locale@std@@QAE@XZ      004093c0 f i cinder:App.obj
 0001:00008410       ?_Decref@facet@locale@std@@QAEPAV123@XZ 00409410 f i cinder:App.obj
 0001:00008470       ??_E?$basic_stringbuf@DU?$char_traits@D@std@@V?$allocator@D@2@@std@@UAEPAXI@Z 00409470 f i cinder:App.obj
 0001:00008470       ??_G?$basic_stringbuf@DU?$char_traits@D@std@@V?$allocator@D@2@@std@@UAEPAXI@Z 00409470 f i cinder:App.obj
 0001:000084a0       ??_G?$basic_dostream@DU?$char_traits@D@std@@@msw@cinder@@UAEPAXI@Z 004094a0 f i cinder:App.obj
 0001:000084a0       ??_E?$basic_dostream@DU?$char_traits@D@std@@@msw@cinder@@UAEPAXI@Z 004094a0 f i cinder:App.obj
 0001:000084e0       ??_D?$basic_dostream@DU?$char_traits@D@std@@@msw@cinder@@QAEXXZ 004094e0 f i cinder:App.obj
 0001:00008510       ??1?$basic_dostream@DU?$char_traits@D@std@@@msw@cinder@@UAE@XZ 00409510 f i cinder:App.obj
 0001:000085b0       ??1?$basic_ostream@DU?$char_traits@D@std@@@std@@UAE@XZ 004095b0 f i cinder:App.obj
 0001:000085d0       ??_G?$basic_ostream@DU?$char_traits@D@std@@@std@@UAEPAXI@Z 004095d0 f i cinder:App.obj
 0001:000085d0       ??_E?$basic_ostream@DU?$char_traits@D@std@@@std@@UAEPAXI@Z 004095d0 f i cinder:App.obj
 0001:00008610       ??_D?$basic_ostream@DU?$char_traits@D@std@@@std@@QAEXXZ 00409610 f i cinder:App.obj
 0001:00008640       ??0?$basic_ostream@DU?$char_traits@D@std@@@std@@QAE@PAV?$basic_streambuf@DU?$char_traits@D@std@@@1@_N@Z 00409640 f i cinder:App.obj
 0001:000086e0       ??0?$basic_ios@DU?$char_traits@D@std@@@std@@IAE@XZ 004096e0 f i cinder:App.obj
 0001:00008700       ??0ios_base@std@@IAE@XZ    00409700 f i cinder:App.obj
 0001:00008720       ?eback@?$basic_streambuf@DU?$char_traits@D@std@@@std@@IBEPADXZ 00409720 f i cinder:App.obj
 0001:00008740       ?gptr@?$basic_streambuf@DU?$char_traits@D@std@@@std@@IBEPADXZ 00409740 f i cinder:App.obj
 0001:00008760       ?pbase@?$basic_streambuf@DU?$char_traits@D@std@@@std@@IBEPADXZ 00409760 f i cinder:App.obj
 0001:00008780       ?pptr@?$basic_streambuf@DU?$char_traits@D@std@@@std@@IBEPADXZ 00409780 f i cinder:App.obj
 0001:000087a0       ?egptr@?$basic_streambuf@DU?$char_traits@D@std@@@std@@IBEPADXZ 004097a0 f i cinder:App.obj
 0001:000087c0       ?gbump@?$basic_streambuf@DU?$char_traits@D@std@@@std@@IAEXH@Z 004097c0 f i cinder:App.obj
 0001:00008800       ?setg@?$basic_streambuf@DU?$char_traits@D@std@@@std@@IAEXPAD00@Z 00409800 f i cinder:App.obj
 0001:00008840       ?epptr@?$basic_streambuf@DU?$char_traits@D@std@@@std@@IBEPADXZ 00409840 f i cinder:App.obj
 0001:00008860       ?_Gninc@?$basic_streambuf@DU?$char_traits@D@std@@@std@@IAEPADXZ 00409860 f i cinder:App.obj
 0001:000088b0       ?_Gnavail@?$basic_streambuf@DU?$char_traits@D@std@@@std@@IBEHXZ 004098b0 f i cinder:App.obj
 0001:000088e0       ?pbump@?$basic_streambuf@DU?$char_traits@D@std@@@std@@IAEXH@Z 004098e0 f i cinder:App.obj
 0001:00008920       ?setp@?$basic_streambuf@DU?$char_traits@D@std@@@std@@IAEXPAD0@Z 00409920 f i cinder:App.obj
 0001:00008960       ?setp@?$basic_streambuf@DU?$char_traits@D@std@@@std@@IAEXPAD00@Z 00409960 f i cinder:App.obj
 0001:000089a0       ?_Pninc@?$basic_streambuf@DU?$char_traits@D@std@@@std@@IAEPADXZ 004099a0 f i cinder:App.obj
 0001:000089f0       ?_Pnavail@?$basic_streambuf@DU?$char_traits@D@std@@@std@@IBEHXZ 004099f0 f i cinder:App.obj
 0001:00008a20       ??0?$fpos@H@std@@QAE@J@Z   00409a20 f i cinder:App.obj
 0001:00008a60       ??0?$basic_stringbuf@DU?$char_traits@D@std@@V?$allocator@D@2@@std@@QAE@H@Z 00409a60 f i cinder:App.obj
 0001:00008ae0       ?str@?$basic_stringbuf@DU?$char_traits@D@std@@V?$allocator@D@2@@std@@QBE?AV?$basic_string@DU?$char_traits@D@std@@V?$allocator@D@2@@2@XZ 00409ae0 f i cinder:App.obj
 0001:00008c70       ?str@?$basic_stringbuf@DU?$char_traits@D@std@@V?$allocator@D@2@@std@@QAEXABV?$basic_string@DU?$char_traits@D@std@@V?$allocator@D@2@@2@@Z 00409c70 f i cinder:App.obj
 0001:00008cb0       ?_Tidy@?$basic_stringbuf@DU?$char_traits@D@std@@V?$allocator@D@2@@std@@IAEXXZ 00409cb0 f i cinder:App.obj
 0001:00008d50       ?swap@shared_count@detail@boost@@QAEXAAV123@@Z 00409d50 f i cinder:App.obj
 0001:00008d80       ?_Buy@?$vector@U?$pair@KV?$function@$$A6A_NVFileDropEvent@app@cinder@@@Z@boost@@@std@@V?$allocator@U?$pair@KV?$function@$$A6A_NVFileDropEvent@app@cinder@@@Z@boost@@@std@@@2@@std@@IAE_NI@Z 00409d80 f i cinder:App.obj
 0001:00008d80       ?_Buy@?$vector@U?$pair@KV?$function@$$A6A_NVTouchEvent@app@cinder@@@Z@boost@@@std@@V?$allocator@U?$pair@KV?$function@$$A6A_NVTouchEvent@app@cinder@@@Z@boost@@@std@@@2@@std@@IAE_NI@Z 00409d80 f i cinder:AppBasic.obj
 0001:00008d80       ?_Buy@?$vector@U?$pair@KV?$function@$$A6A_NVResizeEvent@app@cinder@@@Z@boost@@@std@@V?$allocator@U?$pair@KV?$function@$$A6A_NVResizeEvent@app@cinder@@@Z@boost@@@std@@@2@@std@@IAE_NI@Z 00409d80 f i cinder:App.obj
 0001:00008d80       ?_Buy@?$vector@U?$pair@KV?$function@$$A6A_NVKeyEvent@app@cinder@@@Z@boost@@@std@@V?$allocator@U?$pair@KV?$function@$$A6A_NVKeyEvent@app@cinder@@@Z@boost@@@std@@@2@@std@@IAE_NI@Z 00409d80 f i cinder:App.obj
 0001:00008d80       ?_Buy@?$vector@U?$pair@KV?$function@$$A6A_NVMouseEvent@app@cinder@@@Z@boost@@@std@@V?$allocator@U?$pair@KV?$function@$$A6A_NVMouseEvent@app@cinder@@@Z@boost@@@std@@@2@@std@@IAE_NI@Z 00409d80 f i cinder:App.obj
 0001:00008d80       ?_Buy@?$vector@VTouch@TouchEvent@app@cinder@@V?$allocator@VTouch@TouchEvent@app@cinder@@@std@@@std@@IAE_NI@Z 00409d80 f i cinder:AppBasic.obj
 0001:00008e00       ?_Tidy@?$vector@U?$pair@KV?$function@$$A6A_NVTouchEvent@app@cinder@@@Z@boost@@@std@@V?$allocator@U?$pair@KV?$function@$$A6A_NVTouchEvent@app@cinder@@@Z@boost@@@std@@@2@@std@@IAEXXZ 00409e00 f i cinder:AppBasic.obj
 0001:00008e00       ?_Tidy@?$vector@U?$pair@KV?$function@$$A6A_NVKeyEvent@app@cinder@@@Z@boost@@@std@@V?$allocator@U?$pair@KV?$function@$$A6A_NVKeyEvent@app@cinder@@@Z@boost@@@std@@@2@@std@@IAEXXZ 00409e00 f i cinder:App.obj
 0001:00008e00       ?_Tidy@?$vector@U?$pair@KV?$function@$$A6A_NVFileDropEvent@app@cinder@@@Z@boost@@@std@@V?$allocator@U?$pair@KV?$function@$$A6A_NVFileDropEvent@app@cinder@@@Z@boost@@@std@@@2@@std@@IAEXXZ 00409e00 f i cinder:App.obj
 0001:00008e00       ?_Tidy@?$vector@U?$pair@KV?$function@$$A6A_NVMouseEvent@app@cinder@@@Z@boost@@@std@@V?$allocator@U?$pair@KV?$function@$$A6A_NVMouseEvent@app@cinder@@@Z@boost@@@std@@@2@@std@@IAEXXZ 00409e00 f i cinder:App.obj
 0001:00008e00       ?_Tidy@?$vector@U?$pair@KV?$function@$$A6A_NVResizeEvent@app@cinder@@@Z@boost@@@std@@V?$allocator@U?$pair@KV?$function@$$A6A_NVResizeEvent@app@cinder@@@Z@boost@@@std@@@2@@std@@IAEXXZ 00409e00 f i cinder:App.obj
 0001:00008e80       ??D?$_Vector_iterator@VTouch@TouchEvent@app@cinder@@V?$allocator@VTouch@TouchEvent@app@cinder@@@std@@@std@@QBEAAVTouch@TouchEvent@app@cinder@@XZ 00409e80 f i cinder:AppImplMswBasic.obj
 0001:00008e80       ??D?$_Vector_iterator@U?$pair@KV?$function@$$A6A_NVResizeEvent@app@cinder@@@Z@boost@@@std@@V?$allocator@U?$pair@KV?$function@$$A6A_NVResizeEvent@app@cinder@@@Z@boost@@@std@@@2@@std@@QBEAAU?$pair@KV?$function@$$A6A_NVResizeEvent@app@cinder@@@Z@boost@@@1@XZ 00409e80 f i cinder:App.obj
 0001:00008e80       ??C?$_Vector_const_iterator@VPath2d@cinder@@V?$allocator@VPath2d@cinder@@@std@@@std@@QBEPBVPath2d@cinder@@XZ 00409e80 f i cinder:gl.obj
 0001:00008e80       ??D?$_Vector_iterator@VPath2d@cinder@@V?$allocator@VPath2d@cinder@@@std@@@std@@QBEAAVPath2d@cinder@@XZ 00409e80 f i cinder:Shape2d.obj
 0001:00008e80       ??D?$_Vector_iterator@U?$pair@KV?$function@$$A6A_NVFileDropEvent@app@cinder@@@Z@boost@@@std@@V?$allocator@U?$pair@KV?$function@$$A6A_NVFileDropEvent@app@cinder@@@Z@boost@@@std@@@2@@std@@QBEAAU?$pair@KV?$function@$$A6A_NVFileDropEvent@app@cinder@@@Z@boost@@@1@XZ 00409e80 f i cinder:App.obj
 0001:00008e80       ??D?$_Vector_iterator@U?$pair@KV?$function@$$A6A_NVKeyEvent@app@cinder@@@Z@boost@@@std@@V?$allocator@U?$pair@KV?$function@$$A6A_NVKeyEvent@app@cinder@@@Z@boost@@@std@@@2@@std@@QBEAAU?$pair@KV?$function@$$A6A_NVKeyEvent@app@cinder@@@Z@boost@@@1@XZ 00409e80 f i cinder:App.obj
 0001:00008e80       ??D?$_Vector_iterator@U?$pair@KV?$function@$$A6A_NVMouseEvent@app@cinder@@@Z@boost@@@std@@V?$allocator@U?$pair@KV?$function@$$A6A_NVMouseEvent@app@cinder@@@Z@boost@@@std@@@2@@std@@QBEAAU?$pair@KV?$function@$$A6A_NVMouseEvent@app@cinder@@@Z@boost@@@1@XZ 00409e80 f i cinder:App.obj
 0001:00008e80       ??D?$_Vector_iterator@U?$pair@HVTexture@gl@cinder@@@std@@V?$allocator@U?$pair@HVTexture@gl@cinder@@@std@@@2@@std@@QBEAAU?$pair@HVTexture@gl@cinder@@@1@XZ 00409e80 f i cinder:Texture.obj
 0001:00008e80       ??D?$_Vector_iterator@U?$pair@KV?$function@$$A6A_NVTouchEvent@app@cinder@@@Z@boost@@@std@@V?$allocator@U?$pair@KV?$function@$$A6A_NVTouchEvent@app@cinder@@@Z@boost@@@std@@@2@@std@@QBEAAU?$pair@KV?$function@$$A6A_NVTouchEvent@app@cinder@@@Z@boost@@@1@XZ 00409e80 f i cinder:AppBasic.obj
 0001:00008ea0       ??E?$_Vector_const_iterator@U?$pair@KV?$function@$$A6A_NVFileDropEvent@app@cinder@@@Z@boost@@@std@@V?$allocator@U?$pair@KV?$function@$$A6A_NVFileDropEvent@app@cinder@@@Z@boost@@@std@@@2@@std@@QAEAAV01@XZ 00409ea0 f i cinder:App.obj
 0001:00008ea0       ??E?$_Vector_const_iterator@U?$pair@KV?$function@$$A6A_NVResizeEvent@app@cinder@@@Z@boost@@@std@@V?$allocator@U?$pair@KV?$function@$$A6A_NVResizeEvent@app@cinder@@@Z@boost@@@std@@@2@@std@@QAEAAV01@XZ 00409ea0 f i cinder:App.obj
 0001:00008ea0       ??E?$_Vector_const_iterator@U?$pair@KV?$function@$$A6A_NVKeyEvent@app@cinder@@@Z@boost@@@std@@V?$allocator@U?$pair@KV?$function@$$A6A_NVKeyEvent@app@cinder@@@Z@boost@@@std@@@2@@std@@QAEAAV01@XZ 00409ea0 f i cinder:App.obj
 0001:00008ea0       ??E?$_Vector_const_iterator@U?$pair@KV?$function@$$A6A_NVTouchEvent@app@cinder@@@Z@boost@@@std@@V?$allocator@U?$pair@KV?$function@$$A6A_NVTouchEvent@app@cinder@@@Z@boost@@@std@@@2@@std@@QAEAAV01@XZ 00409ea0 f i cinder:AppBasic.obj
 0001:00008ea0       ??E?$_Vector_const_iterator@U?$pair@KV?$function@$$A6A_NVMouseEvent@app@cinder@@@Z@boost@@@std@@V?$allocator@U?$pair@KV?$function@$$A6A_NVMouseEvent@app@cinder@@@Z@boost@@@std@@@2@@std@@QAEAAV01@XZ 00409ea0 f i cinder:App.obj
 0001:00008f00       ??0?$basic_string@DU?$char_traits@D@std@@V?$allocator@D@2@@std@@QAE@PBDI@Z 00409f00 f i cinder:App.obj
 0001:00008f40       ?init@?$basic_ios@DU?$char_traits@D@std@@@std@@IAEXPAV?$basic_streambuf@DU?$char_traits@D@std@@@2@_N@Z 00409f40 f i cinder:App.obj
 0001:00008fb0       ?_Init@ios_base@std@@IAEXXZ 00409fb0 f i cinder:App.obj
 0001:00009050       ??0locale@std@@QAE@XZ      0040a050 f i cinder:App.obj
 0001:00009080       ?_Incref@facet@locale@std@@QAEXXZ 0040a080 f i cinder:App.obj
 0001:000090c0       ?clear@ios_base@std@@QAEXH@Z 0040a0c0 f i cinder:App.obj
 0001:000090e0       ?clear@ios_base@std@@QAEXH_N@Z 0040a0e0 f i cinder:App.obj
 0001:00009270       ??0failure@ios_base@std@@QAE@ABV?$basic_string@DU?$char_traits@D@std@@V?$allocator@D@2@@2@@Z 0040a270 f i cinder:App.obj
 0001:000092a0       ??1failure@ios_base@std@@UAE@XZ 0040a2a0 f i cinder:App.obj
 0001:000092c0       ??_Efailure@ios_base@std@@UAEPAXI@Z 0040a2c0 f i cinder:App.obj
 0001:000092c0       ??_Gfailure@ios_base@std@@UAEPAXI@Z 0040a2c0 f i cinder:App.obj
 0001:000092f0       ??0failure@ios_base@std@@QAE@ABV012@@Z 0040a2f0 f i cinder:App.obj
 0001:00009320       ?setstate@?$basic_ios@DU?$char_traits@D@std@@@std@@QAEXH_N@Z 0040a320 f i cinder:App.obj
 0001:00009350       ?clear@?$basic_ios@DU?$char_traits@D@std@@@std@@QAEXH_N@Z 0040a350 f i cinder:App.obj
 0001:00009390       ??0?$basic_streambuf@DU?$char_traits@D@std@@@std@@IAE@XZ 0040a390 f i cinder:App.obj
 0001:00009430       ?_Init@?$basic_stringbuf@DU?$char_traits@D@std@@V?$allocator@D@2@@std@@IAEXPBDIH@Z 0040a430 f i cinder:App.obj
 0001:00009540       ?_Getstate@?$basic_stringbuf@DU?$char_traits@D@std@@V?$allocator@D@2@@std@@AAEHH@Z 0040a540 f i cinder:App.obj
 0001:000095a0       ?_Destroy@?$vector@U?$pair@KV?$function@$$A6A_NVKeyEvent@app@cinder@@@Z@boost@@@std@@V?$allocator@U?$pair@KV?$function@$$A6A_NVKeyEvent@app@cinder@@@Z@boost@@@std@@@2@@std@@IAEXPAU?$pair@KV?$function@$$A6A_NVKeyEvent@app@cinder@@@Z@boost@@@2@0@Z 0040a5a0 f i cinder:App.obj
 0001:000095a0       ?_Destroy@?$vector@U?$pair@KV?$function@$$A6A_NVTouchEvent@app@cinder@@@Z@boost@@@std@@V?$allocator@U?$pair@KV?$function@$$A6A_NVTouchEvent@app@cinder@@@Z@boost@@@std@@@2@@std@@IAEXPAU?$pair@KV?$function@$$A6A_NVTouchEvent@app@cinder@@@Z@boost@@@2@0@Z 0040a5a0 f i cinder:AppBasic.obj
 0001:000095a0       ?_Destroy@?$vector@U?$pair@KV?$function@$$A6A_NVResizeEvent@app@cinder@@@Z@boost@@@std@@V?$allocator@U?$pair@KV?$function@$$A6A_NVResizeEvent@app@cinder@@@Z@boost@@@std@@@2@@std@@IAEXPAU?$pair@KV?$function@$$A6A_NVResizeEvent@app@cinder@@@Z@boost@@@2@0@Z 0040a5a0 f i cinder:App.obj
 0001:000095a0       ?_Destroy@?$vector@U?$pair@KV?$function@$$A6A_NVMouseEvent@app@cinder@@@Z@boost@@@std@@V?$allocator@U?$pair@KV?$function@$$A6A_NVMouseEvent@app@cinder@@@Z@boost@@@std@@@2@@std@@IAEXPAU?$pair@KV?$function@$$A6A_NVMouseEvent@app@cinder@@@Z@boost@@@2@0@Z 0040a5a0 f i cinder:App.obj
 0001:000095a0       ?_Destroy@?$vector@U?$pair@KV?$function@$$A6A_NVFileDropEvent@app@cinder@@@Z@boost@@@std@@V?$allocator@U?$pair@KV?$function@$$A6A_NVFileDropEvent@app@cinder@@@Z@boost@@@std@@@2@@std@@IAEXPAU?$pair@KV?$function@$$A6A_NVFileDropEvent@app@cinder@@@Z@boost@@@2@0@Z 0040a5a0 f i cinder:App.obj
 0001:000095d0       ?allocate@?$allocator@U?$pair@KV?$function@$$A6A_NVTouchEvent@app@cinder@@@Z@boost@@@std@@@std@@QAEPAU?$pair@KV?$function@$$A6A_NVTouchEvent@app@cinder@@@Z@boost@@@2@I@Z 0040a5d0 f i cinder:AppBasic.obj
 0001:000095d0       ?allocate@?$allocator@U?$pair@KV?$function@$$A6A_NVMouseEvent@app@cinder@@@Z@boost@@@std@@@std@@QAEPAU?$pair@KV?$function@$$A6A_NVMouseEvent@app@cinder@@@Z@boost@@@2@I@Z 0040a5d0 f i cinder:App.obj
 0001:000095d0       ?allocate@?$allocator@VTouch@TouchEvent@app@cinder@@@std@@QAEPAVTouch@TouchEvent@app@cinder@@I@Z 0040a5d0 f i cinder:AppBasic.obj
 0001:000095d0       ?allocate@?$allocator@U?$pair@KV?$function@$$A6A_NVKeyEvent@app@cinder@@@Z@boost@@@std@@@std@@QAEPAU?$pair@KV?$function@$$A6A_NVKeyEvent@app@cinder@@@Z@boost@@@2@I@Z 0040a5d0 f i cinder:App.obj
 0001:000095d0       ?allocate@?$allocator@U?$pair@KV?$function@$$A6A_NVFileDropEvent@app@cinder@@@Z@boost@@@std@@@std@@QAEPAU?$pair@KV?$function@$$A6A_NVFileDropEvent@app@cinder@@@Z@boost@@@2@I@Z 0040a5d0 f i cinder:App.obj
 0001:000095d0       ?allocate@?$allocator@U?$pair@KV?$function@$$A6A_NVResizeEvent@app@cinder@@@Z@boost@@@std@@@std@@QAEPAU?$pair@KV?$function@$$A6A_NVResizeEvent@app@cinder@@@Z@boost@@@2@I@Z 0040a5d0 f i cinder:App.obj
 0001:000095f0       ??D?$_Vector_const_iterator@U?$pair@KV?$function@$$A6A_NVFileDropEvent@app@cinder@@@Z@boost@@@std@@V?$allocator@U?$pair@KV?$function@$$A6A_NVFileDropEvent@app@cinder@@@Z@boost@@@std@@@2@@std@@QBEABU?$pair@KV?$function@$$A6A_NVFileDropEvent@app@cinder@@@Z@boost@@@1@XZ 0040a5f0 f i cinder:App.obj
 0001:000095f0       ??D?$_Vector_const_iterator@VPath2d@cinder@@V?$allocator@VPath2d@cinder@@@std@@@std@@QBEABVPath2d@cinder@@XZ 0040a5f0 f i cinder:gl.obj
 0001:000095f0       ??D?$_Vector_const_iterator@U?$pair@KV?$function@$$A6A_NVKeyEvent@app@cinder@@@Z@boost@@@std@@V?$allocator@U?$pair@KV?$function@$$A6A_NVKeyEvent@app@cinder@@@Z@boost@@@std@@@2@@std@@QBEABU?$pair@KV?$function@$$A6A_NVKeyEvent@app@cinder@@@Z@boost@@@1@XZ 0040a5f0 f i cinder:App.obj
 0001:000095f0       ??D?$_Vector_const_iterator@VTouch@TouchEvent@app@cinder@@V?$allocator@VTouch@TouchEvent@app@cinder@@@std@@@std@@QBEABVTouch@TouchEvent@app@cinder@@XZ 0040a5f0 f i cinder:AppImplMswBasic.obj
 0001:000095f0       ??D?$_Vector_const_iterator@U?$pair@HVTexture@gl@cinder@@@std@@V?$allocator@U?$pair@HVTexture@gl@cinder@@@std@@@2@@std@@QBEABU?$pair@HVTexture@gl@cinder@@@1@XZ 0040a5f0 f i cinder:Texture.obj
 0001:000095f0       ??D?$_Vector_const_iterator@U?$pair@KV?$function@$$A6A_NVTouchEvent@app@cinder@@@Z@boost@@@std@@V?$allocator@U?$pair@KV?$function@$$A6A_NVTouchEvent@app@cinder@@@Z@boost@@@std@@@2@@std@@QBEABU?$pair@KV?$function@$$A6A_NVTouchEvent@app@cinder@@@Z@boost@@@1@XZ 0040a5f0 f i cinder:AppBasic.obj
 0001:000095f0       ??D?$_Vector_const_iterator@U?$pair@KV?$function@$$A6A_NVMouseEvent@app@cinder@@@Z@boost@@@std@@V?$allocator@U?$pair@KV?$function@$$A6A_NVMouseEvent@app@cinder@@@Z@boost@@@std@@@2@@std@@QBEABU?$pair@KV?$function@$$A6A_NVMouseEvent@app@cinder@@@Z@boost@@@1@XZ 0040a5f0 f i cinder:App.obj
 0001:000095f0       ??D?$_Vector_const_iterator@U?$pair@KV?$function@$$A6A_NVResizeEvent@app@cinder@@@Z@boost@@@std@@V?$allocator@U?$pair@KV?$function@$$A6A_NVResizeEvent@app@cinder@@@Z@boost@@@std@@@2@@std@@QBEABU?$pair@KV?$function@$$A6A_NVResizeEvent@app@cinder@@@Z@boost@@@1@XZ 0040a5f0 f i cinder:App.obj
 0001:00009640       ?widen@?$basic_ios@DU?$char_traits@D@std@@@std@@QBEDD@Z 0040a640 f i cinder:App.obj
 0001:000096c0       ?widen@?$ctype@D@std@@QBEDD@Z 0040a6c0 f i cinder:App.obj
 0001:000096e0       ?getloc@ios_base@std@@QBE?AVlocale@2@XZ 0040a6e0 f i cinder:App.obj
 0001:00009720       ??0locale@std@@QAE@ABV01@@Z 0040a720 f i cinder:App.obj
 0001:00009750       ?_Init@?$basic_streambuf@DU?$char_traits@D@std@@@std@@IAEXXZ 0040a750 f i cinder:App.obj
 0001:000097c0       ??$use_facet@V?$ctype@D@std@@@std@@YAABV?$ctype@D@0@ABVlocale@0@@Z 0040a7c0 f i cinder:App.obj
 0001:000098b0       ??Bid@locale@std@@QAEIXZ   0040a8b0 f i cinder:App.obj
 0001:00009900       ?_Register@facet@locale@std@@QAEXXZ 0040a900 f i cinder:App.obj
 0001:00009920       ?_Getfacet@locale@std@@QBEPBVfacet@12@I@Z 0040a920 f i cinder:App.obj
 0001:000099b0       ?_Getcat@?$ctype@D@std@@SAIPAPBVfacet@locale@2@PBV42@@Z 0040a9b0 f i cinder:App.obj
 0001:00009b20       ??0_Locinfo@std@@QAE@ABV?$basic_string@DU?$char_traits@D@std@@V?$allocator@D@2@@1@@Z 0040ab20 f i cinder:App.obj
 0001:00009bc0       ??1_Locinfo@std@@QAE@XZ    0040abc0 f i cinder:App.obj
 0001:00009c60       ?name@locale@std@@QBE?AV?$basic_string@DU?$char_traits@D@std@@V?$allocator@D@2@@2@XZ 0040ac60 f i cinder:App.obj
 0001:00009ca0       ??0?$ctype@D@std@@QAE@ABV_Locinfo@1@I@Z 0040aca0 f i cinder:App.obj
 0001:00009d10       ??0ctype_base@std@@QAE@I@Z 0040ad10 f i cinder:App.obj
 0001:00009d40       ??0facet@locale@std@@IAE@I@Z 0040ad40 f i cinder:App.obj
 0001:00009d70       ??_Efacet@locale@std@@UAEPAXI@Z 0040ad70 f i cinder:App.obj
 0001:00009d70       ??_Gfacet@locale@std@@UAEPAXI@Z 0040ad70 f i cinder:App.obj
 0001:00009da0       ??1facet@locale@std@@UAE@XZ 0040ada0 f i cinder:App.obj
 0001:00009dc0       ??1ctype_base@std@@UAE@XZ  0040adc0 f i cinder:App.obj
 0001:00009de0       ??_Ectype_base@std@@UAEPAXI@Z 0040ade0 f i cinder:App.obj
 0001:00009de0       ??_Gctype_base@std@@UAEPAXI@Z 0040ade0 f i cinder:App.obj
 0001:00009e10       ?_Init@?$ctype@D@std@@IAEXABV_Locinfo@2@@Z 0040ae10 f i cinder:App.obj
 0001:00009e50       ?_Getctype@_Locinfo@std@@QBE?AU_Ctypevec@@XZ 0040ae50 f i cinder:App.obj
 0001:00009ea0       ?do_tolower@?$ctype@D@std@@MBEDD@Z 0040aea0 f i cinder:App.obj
 0001:00009ed0       ?do_tolower@?$ctype@D@std@@MBEPBDPADPBD@Z 0040aed0 f i cinder:App.obj
 0001:00009f10       ?do_toupper@?$ctype@D@std@@MBEDD@Z 0040af10 f i cinder:App.obj
 0001:00009f40       ?do_toupper@?$ctype@D@std@@MBEPBDPADPBD@Z 0040af40 f i cinder:App.obj
 0001:00009f80       ?do_widen@?$ctype@D@std@@MBEDD@Z 0040af80 f i cinder:App.obj
 0001:00009f90       ?do_widen@?$ctype@D@std@@MBEPBDPBD0PAD@Z 0040af90 f i cinder:App.obj
 0001:00009fc0       ?_Do_widen_s@?$ctype@D@std@@MBEPBDPBD0PADI@Z 0040afc0 f i cinder:App.obj
 0001:0000a000       ?do_narrow@?$ctype@D@std@@MBEDDD@Z 0040b000 f i cinder:App.obj
 0001:0000a010       ?do_narrow@?$ctype@D@std@@MBEPBDPBD0DPAD@Z 0040b010 f i cinder:App.obj
 0001:0000a050       ?_Do_narrow_s@?$ctype@D@std@@MBEPBDPBD0DPADI@Z 0040b050 f i cinder:App.obj
 0001:0000a090       ??_G?$ctype@D@std@@MAEPAXI@Z 0040b090 f i cinder:App.obj
 0001:0000a090       ??_E?$ctype@D@std@@MAEPAXI@Z 0040b090 f i cinder:App.obj
 0001:0000a0c0       ??1?$ctype@D@std@@MAE@XZ   0040b0c0 f i cinder:App.obj
 0001:0000a120       ?_Tidy@?$ctype@D@std@@IAEXXZ 0040b120 f i cinder:App.obj
 0001:0000a170       ??R?$function1@_NVMouseEvent@app@cinder@@@boost@@QBE_NVMouseEvent@app@cinder@@@Z 0040b170 f i cinder:App.obj
 0001:0000a240       ??R?$function1@_NVKeyEvent@app@cinder@@@boost@@QBE_NVKeyEvent@app@cinder@@@Z 0040b240 f i cinder:App.obj
 0001:0000a310       ??R?$function1@_NVResizeEvent@app@cinder@@@boost@@QBE_NVResizeEvent@app@cinder@@@Z 0040b310 f i cinder:App.obj
 0001:0000a3e0       ?get_vtable@?$function1@_NVTouchEvent@app@cinder@@@boost@@ABEPAU?$basic_vtable1@_NVTouchEvent@app@cinder@@@function@detail@2@XZ 0040b3e0 f i cinder:AppBasic.obj
 0001:0000a3e0       ?get_vtable@?$function1@_NVResizeEvent@app@cinder@@@boost@@ABEPAU?$basic_vtable1@_NVResizeEvent@app@cinder@@@function@detail@2@XZ 0040b3e0 f i cinder:App.obj
 0001:0000a3e0       ?get_vtable@?$function1@_NVMouseEvent@app@cinder@@@boost@@ABEPAU?$basic_vtable1@_NVMouseEvent@app@cinder@@@function@detail@2@XZ 0040b3e0 f i cinder:App.obj
 0001:0000a3e0       ?get_vtable@?$function1@_NVFileDropEvent@app@cinder@@@boost@@ABEPAU?$basic_vtable1@_NVFileDropEvent@app@cinder@@@function@detail@2@XZ 0040b3e0 f i cinder:App.obj
 0001:0000a3e0       ?get_vtable@?$function1@_NVKeyEvent@app@cinder@@@boost@@ABEPAU?$basic_vtable1@_NVKeyEvent@app@cinder@@@function@detail@2@XZ 0040b3e0 f i cinder:App.obj
 0001:0000a400       ??R?$function1@_NVFileDropEvent@app@cinder@@@boost@@QBE_NVFileDropEvent@app@cinder@@@Z 0040b400 f i cinder:App.obj
 0001:0000a4d0       ??$?0V?$basic_dostream@DU?$char_traits@D@std@@@msw@cinder@@@?$shared_ptr@V?$basic_dostream@DU?$char_traits@D@std@@@msw@cinder@@@boost@@QAE@PAV?$basic_dostream@DU?$char_traits@D@std@@@msw@cinder@@@Z 0040b4d0 f i cinder:App.obj
 0001:0000a550       ??$?0VRenderer@app@cinder@@@?$shared_ptr@VRenderer@app@cinder@@@boost@@QAE@PAVRenderer@app@cinder@@@Z 0040b550 f i cinder:App.obj
 0001:0000a5d0       ??$_Ucopy@V?$_Vector_const_iterator@V?$basic_string@DU?$char_traits@D@std@@V?$allocator@D@2@@std@@V?$allocator@V?$basic_string@DU?$char_traits@D@std@@V?$allocator@D@2@@std@@@2@@std@@@?$vector@V?$basic_string@DU?$char_traits@D@std@@V?$allocator@D@2@@std@@V?$allocator@V?$basic_string@DU?$char_traits@D@std@@V?$allocator@D@2@@std@@@2@@std@@IAEPAV?$basic_string@DU?$char_traits@D@std@@V?$allocator@D@2@@1@V?$_Vector_const_iterator@V?$basic_string@DU?$char_traits@D@std@@V?$allocator@D@2@@std@@V?$allocator@V?$basic_string@DU?$char_traits@D@std@@V?$allocator@D@2@@std@@@2@@1@0PAV21@@Z 0040b5d0 f i cinder:App.obj
 0001:0000a600       ??$_Destroy_range@V?$allocator@U?$pair@KV?$function@$$A6A_NVResizeEvent@app@cinder@@@Z@boost@@@std@@@std@@@std@@YAXPAU?$pair@KV?$function@$$A6A_NVResizeEvent@app@cinder@@@Z@boost@@@0@0AAV?$allocator@U?$pair@KV?$function@$$A6A_NVResizeEvent@app@cinder@@@Z@boost@@@std@@@0@@Z 0040b600 f i cinder:App.obj
 0001:0000a600       ??$_Destroy_range@V?$allocator@U?$pair@KV?$function@$$A6A_NVMouseEvent@app@cinder@@@Z@boost@@@std@@@std@@@std@@YAXPAU?$pair@KV?$function@$$A6A_NVMouseEvent@app@cinder@@@Z@boost@@@0@0AAV?$allocator@U?$pair@KV?$function@$$A6A_NVMouseEvent@app@cinder@@@Z@boost@@@std@@@0@@Z 0040b600 f i cinder:App.obj
 0001:0000a600       ??$_Destroy_range@V?$allocator@U?$pair@KV?$function@$$A6A_NVFileDropEvent@app@cinder@@@Z@boost@@@std@@@std@@@std@@YAXPAU?$pair@KV?$function@$$A6A_NVFileDropEvent@app@cinder@@@Z@boost@@@0@0AAV?$allocator@U?$pair@KV?$function@$$A6A_NVFileDropEvent@app@cinder@@@Z@boost@@@std@@@0@@Z 0040b600 f i cinder:App.obj
 0001:0000a600       ??$_Destroy_range@V?$allocator@U?$pair@KV?$function@$$A6A_NVTouchEvent@app@cinder@@@Z@boost@@@std@@@std@@@std@@YAXPAU?$pair@KV?$function@$$A6A_NVTouchEvent@app@cinder@@@Z@boost@@@0@0AAV?$allocator@U?$pair@KV?$function@$$A6A_NVTouchEvent@app@cinder@@@Z@boost@@@std@@@0@@Z 0040b600 f i cinder:AppBasic.obj
 0001:0000a600       ??$_Destroy_range@V?$allocator@U?$pair@KV?$function@$$A6A_NVKeyEvent@app@cinder@@@Z@boost@@@std@@@std@@@std@@YAXPAU?$pair@KV?$function@$$A6A_NVKeyEvent@app@cinder@@@Z@boost@@@0@0AAV?$allocator@U?$pair@KV?$function@$$A6A_NVKeyEvent@app@cinder@@@Z@boost@@@std@@@0@@Z 0040b600 f i cinder:App.obj
 0001:0000a640       ??$_Allocate@U?$pair@KV?$function@$$A6A_NVTouchEvent@app@cinder@@@Z@boost@@@std@@@std@@YAPAU?$pair@KV?$function@$$A6A_NVTouchEvent@app@cinder@@@Z@boost@@@0@IPAU10@@Z 0040b640 f i cinder:AppBasic.obj
 0001:0000a640       ??$_Allocate@VTouch@TouchEvent@app@cinder@@@std@@YAPAVTouch@TouchEvent@app@cinder@@IPAV1234@@Z 0040b640 f i cinder:AppBasic.obj
 0001:0000a640       ??$_Allocate@U?$pair@KV?$function@$$A6A_NVResizeEvent@app@cinder@@@Z@boost@@@std@@@std@@YAPAU?$pair@KV?$function@$$A6A_NVResizeEvent@app@cinder@@@Z@boost@@@0@IPAU10@@Z 0040b640 f i cinder:App.obj
 0001:0000a640       ??$_Allocate@U?$pair@KV?$function@$$A6A_NVKeyEvent@app@cinder@@@Z@boost@@@std@@@std@@YAPAU?$pair@KV?$function@$$A6A_NVKeyEvent@app@cinder@@@Z@boost@@@0@IPAU10@@Z 0040b640 f i cinder:App.obj
 0001:0000a640       ??$_Allocate@U?$pair@KV?$function@$$A6A_NVFileDropEvent@app@cinder@@@Z@boost@@@std@@@std@@YAPAU?$pair@KV?$function@$$A6A_NVFileDropEvent@app@cinder@@@Z@boost@@@0@IPAU10@@Z 0040b640 f i cinder:App.obj
 0001:0000a640       ??$_Allocate@U?$pair@KV?$function@$$A6A_NVMouseEvent@app@cinder@@@Z@boost@@@std@@@std@@YAPAU?$pair@KV?$function@$$A6A_NVMouseEvent@app@cinder@@@Z@boost@@@0@IPAU10@@Z 0040b640 f i cinder:App.obj
 0001:0000a690       ??$?0V?$basic_dostream@DU?$char_traits@D@std@@@msw@cinder@@@shared_count@detail@boost@@QAE@PAV?$basic_dostream@DU?$char_traits@D@std@@@msw@cinder@@@Z 0040b690 f i cinder:App.obj
 0001:0000a760       ??$?0VRenderer@app@cinder@@@shared_count@detail@boost@@QAE@PAVRenderer@app@cinder@@@Z 0040b760 f i cinder:App.obj
 0001:0000a830       ??$unchecked_uninitialized_copy@V?$_Vector_const_iterator@V?$basic_string@DU?$char_traits@D@std@@V?$allocator@D@2@@std@@V?$allocator@V?$basic_string@DU?$char_traits@D@std@@V?$allocator@D@2@@std@@@2@@std@@PAV?$basic_string@DU?$char_traits@D@std@@V?$allocator@D@2@@2@V?$allocator@V?$basic_string@DU?$char_traits@D@std@@V?$allocator@D@2@@std@@@2@@stdext@@YAPAV?$basic_string@DU?$char_traits@D@std@@V?$allocator@D@2@@std@@V?$_Vector_const_iterator@V?$basic_string@DU?$char_traits@D@std@@V?$allocator@D@2@@std@@V?$allocator@V?$basic_string@DU?$char_traits@D@std@@V?$allocator@D@2@@std@@@2@@2@0PAV12@AAV?$allocator@V?$basic_string@DU?$char_traits@D@std@@V?$allocator@D@2@@std@@@2@@Z 0040b830 f i cinder:App.obj
 0001:0000a890       ??$_Destroy_range@V?$allocator@U?$pair@KV?$function@$$A6A_NVMouseEvent@app@cinder@@@Z@boost@@@std@@@std@@@std@@YAXPAU?$pair@KV?$function@$$A6A_NVMouseEvent@app@cinder@@@Z@boost@@@0@0AAV?$allocator@U?$pair@KV?$function@$$A6A_NVMouseEvent@app@cinder@@@Z@boost@@@std@@@0@U_Nonscalar_ptr_iterator_tag@0@@Z 0040b890 f i cinder:App.obj
 0001:0000a890       ??$_Destroy_range@V?$allocator@U?$pair@KV?$function@$$A6A_NVResizeEvent@app@cinder@@@Z@boost@@@std@@@std@@@std@@YAXPAU?$pair@KV?$function@$$A6A_NVResizeEvent@app@cinder@@@Z@boost@@@0@0AAV?$allocator@U?$pair@KV?$function@$$A6A_NVResizeEvent@app@cinder@@@Z@boost@@@std@@@0@U_Nonscalar_ptr_iterator_tag@0@@Z 0040b890 f i cinder:App.obj
 0001:0000a890       ??$_Destroy_range@V?$allocator@U?$pair@KV?$function@$$A6A_NVKeyEvent@app@cinder@@@Z@boost@@@std@@@std@@@std@@YAXPAU?$pair@KV?$function@$$A6A_NVKeyEvent@app@cinder@@@Z@boost@@@0@0AAV?$allocator@U?$pair@KV?$function@$$A6A_NVKeyEvent@app@cinder@@@Z@boost@@@std@@@0@U_Nonscalar_ptr_iterator_tag@0@@Z 0040b890 f i cinder:App.obj
 0001:0000a890       ??$_Destroy_range@V?$allocator@U?$pair@KV?$function@$$A6A_NVFileDropEvent@app@cinder@@@Z@boost@@@std@@@std@@@std@@YAXPAU?$pair@KV?$function@$$A6A_NVFileDropEvent@app@cinder@@@Z@boost@@@0@0AAV?$allocator@U?$pair@KV?$function@$$A6A_NVFileDropEvent@app@cinder@@@Z@boost@@@std@@@0@U_Nonscalar_ptr_iterator_tag@0@@Z 0040b890 f i cinder:App.obj
 0001:0000a890       ??$_Destroy_range@V?$allocator@U?$pair@KV?$function@$$A6A_NVTouchEvent@app@cinder@@@Z@boost@@@std@@@std@@@std@@YAXPAU?$pair@KV?$function@$$A6A_NVTouchEvent@app@cinder@@@Z@boost@@@0@0AAV?$allocator@U?$pair@KV?$function@$$A6A_NVTouchEvent@app@cinder@@@Z@boost@@@std@@@0@U_Nonscalar_ptr_iterator_tag@0@@Z 0040b890 f i cinder:AppBasic.obj
 0001:0000a8c0       ?destroy@?$allocator@U?$pair@KV?$function@$$A6A_NVFileDropEvent@app@cinder@@@Z@boost@@@std@@@std@@QAEXPAU?$pair@KV?$function@$$A6A_NVFileDropEvent@app@cinder@@@Z@boost@@@2@@Z 0040b8c0 f i cinder:App.obj
 0001:0000a8c0       ?destroy@?$allocator@U?$pair@KV?$function@$$A6A_NVKeyEvent@app@cinder@@@Z@boost@@@std@@@std@@QAEXPAU?$pair@KV?$function@$$A6A_NVKeyEvent@app@cinder@@@Z@boost@@@2@@Z 0040b8c0 f i cinder:App.obj
 0001:0000a8c0       ?destroy@?$allocator@U?$pair@KV?$function@$$A6A_NVResizeEvent@app@cinder@@@Z@boost@@@std@@@std@@QAEXPAU?$pair@KV?$function@$$A6A_NVResizeEvent@app@cinder@@@Z@boost@@@2@@Z 0040b8c0 f i cinder:App.obj
 0001:0000a8c0       ?destroy@?$allocator@U?$pair@KV?$function@$$A6A_NVMouseEvent@app@cinder@@@Z@boost@@@std@@@std@@QAEXPAU?$pair@KV?$function@$$A6A_NVMouseEvent@app@cinder@@@Z@boost@@@2@@Z 0040b8c0 f i cinder:App.obj
 0001:0000a8c0       ?destroy@?$allocator@U?$pair@KV?$function@$$A6A_NVTouchEvent@app@cinder@@@Z@boost@@@std@@@std@@QAEXPAU?$pair@KV?$function@$$A6A_NVTouchEvent@app@cinder@@@Z@boost@@@2@@Z 0040b8c0 f i cinder:AppBasic.obj
 0001:0000a8e0       ??0?$sp_counted_impl_p@V?$basic_dostream@DU?$char_traits@D@std@@@msw@cinder@@@detail@boost@@QAE@PAV?$basic_dostream@DU?$char_traits@D@std@@@msw@cinder@@@Z 0040b8e0 f i cinder:App.obj
 0001:0000a910       ??0sp_counted_base@detail@boost@@QAE@XZ 0040b910 f i cinder:App.obj
 0001:0000a940       ?destroy@sp_counted_base@detail@boost@@UAEXXZ 0040b940 f i cinder:App.obj
 0001:0000a980       ??_Esp_counted_base@detail@boost@@UAEPAXI@Z 0040b980 f i cinder:App.obj
 0001:0000a980       ??_Gsp_counted_base@detail@boost@@UAEPAXI@Z 0040b980 f i cinder:App.obj
 0001:0000a9b0       ??1sp_counted_base@detail@boost@@UAE@XZ 0040b9b0 f i cinder:App.obj
 0001:0000a9d0       ?dispose@?$sp_counted_impl_p@V?$basic_dostream@DU?$char_traits@D@std@@@msw@cinder@@@detail@boost@@UAEXXZ 0040b9d0 f i cinder:App.obj
 0001:0000a9f0       ??0?$sp_counted_impl_p@VRenderer@app@cinder@@@detail@boost@@QAE@PAVRenderer@app@cinder@@@Z 0040b9f0 f i cinder:App.obj
 0001:0000aa20       ?dispose@?$sp_counted_impl_p@VRenderer@app@cinder@@@detail@boost@@UAEXXZ 0040ba20 f i cinder:App.obj
 0001:0000aa20       ?dispose@?$sp_counted_impl_p@VIStreamUrlImplWinInet@cinder@@@detail@boost@@UAEXXZ 0040ba20 f i cinder:Url.obj
 0001:0000aa40       ??$checked_delete@V?$basic_dostream@DU?$char_traits@D@std@@@msw@cinder@@@boost@@YAXPAV?$basic_dostream@DU?$char_traits@D@std@@@msw@cinder@@@Z 0040ba40 f i cinder:App.obj
 0001:0000aa90       ??$_Uninit_copy@PBV?$basic_string@DU?$char_traits@D@std@@V?$allocator@D@2@@std@@PAV12@V?$allocator@V?$basic_string@DU?$char_traits@D@std@@V?$allocator@D@2@@std@@@2@@std@@YAPAV?$basic_string@DU?$char_traits@D@std@@V?$allocator@D@2@@0@PBV10@0PAV10@AAV?$allocator@V?$basic_string@DU?$char_traits@D@std@@V?$allocator@D@2@@std@@@0@U_Nonscalar_ptr_iterator_tag@0@U_Range_checked_iterator_tag@0@@Z 0040ba90 f i cinder:App.obj
 0001:0000ab50       ??$_Destroy@U?$pair@KV?$function@$$A6A_NVTouchEvent@app@cinder@@@Z@boost@@@std@@@std@@YAXPAU?$pair@KV?$function@$$A6A_NVTouchEvent@app@cinder@@@Z@boost@@@0@@Z 0040bb50 f i cinder:AppBasic.obj
 0001:0000ab50       ??$_Destroy@U?$pair@KV?$function@$$A6A_NVMouseEvent@app@cinder@@@Z@boost@@@std@@@std@@YAXPAU?$pair@KV?$function@$$A6A_NVMouseEvent@app@cinder@@@Z@boost@@@0@@Z 0040bb50 f i cinder:App.obj
 0001:0000ab50       ??$_Destroy@U?$pair@KV?$function@$$A6A_NVFileDropEvent@app@cinder@@@Z@boost@@@std@@@std@@YAXPAU?$pair@KV?$function@$$A6A_NVFileDropEvent@app@cinder@@@Z@boost@@@0@@Z 0040bb50 f i cinder:App.obj
 0001:0000ab50       ??$_Destroy@U?$pair@KV?$function@$$A6A_NVResizeEvent@app@cinder@@@Z@boost@@@std@@@std@@YAXPAU?$pair@KV?$function@$$A6A_NVResizeEvent@app@cinder@@@Z@boost@@@0@@Z 0040bb50 f i cinder:App.obj
 0001:0000ab50       ??$_Destroy@U?$pair@KV?$function@$$A6A_NVKeyEvent@app@cinder@@@Z@boost@@@std@@@std@@YAXPAU?$pair@KV?$function@$$A6A_NVKeyEvent@app@cinder@@@Z@boost@@@0@@Z 0040bb50 f i cinder:App.obj
 0001:0000ab60       ??1?$pair@KV?$function@$$A6A_NVResizeEvent@app@cinder@@@Z@boost@@@std@@QAE@XZ 0040bb60 f i cinder:App.obj
 0001:0000ab60       ??1?$pair@KV?$function@$$A6A_NVFileDropEvent@app@cinder@@@Z@boost@@@std@@QAE@XZ 0040bb60 f i cinder:App.obj
 0001:0000ab60       ??1?$pair@KV?$function@$$A6A_NVTouchEvent@app@cinder@@@Z@boost@@@std@@QAE@XZ 0040bb60 f i cinder:AppBasic.obj
 0001:0000ab60       ??1?$pair@KV?$function@$$A6A_NVMouseEvent@app@cinder@@@Z@boost@@@std@@QAE@XZ 0040bb60 f i cinder:App.obj
 0001:0000ab60       ??1?$pair@KV?$function@$$A6A_NVKeyEvent@app@cinder@@@Z@boost@@@std@@QAE@XZ 0040bb60 f i cinder:App.obj
 0001:0000ab80       ??1?$function@$$A6A_NVKeyEvent@app@cinder@@@Z@boost@@QAE@XZ 0040bb80 f i cinder:App.obj
 0001:0000ab80       ??1?$function@$$A6A_NVMouseEvent@app@cinder@@@Z@boost@@QAE@XZ 0040bb80 f i cinder:App.obj
 0001:0000ab80       ??1?$function@$$A6A_NVFileDropEvent@app@cinder@@@Z@boost@@QAE@XZ 0040bb80 f i cinder:App.obj
 0001:0000ab80       ??1?$function@$$A6A_NVResizeEvent@app@cinder@@@Z@boost@@QAE@XZ 0040bb80 f i cinder:App.obj
 0001:0000ab80       ??1?$function@$$A6A_NVTouchEvent@app@cinder@@@Z@boost@@QAE@XZ 0040bb80 f i cinder:AppBasic.obj
 0001:0000aba0       ??1?$function1@_NVResizeEvent@app@cinder@@@boost@@QAE@XZ 0040bba0 f i cinder:App.obj
 0001:0000aba0       ??1?$function1@_NVMouseEvent@app@cinder@@@boost@@QAE@XZ 0040bba0 f i cinder:App.obj
 0001:0000aba0       ??1?$function1@_NVTouchEvent@app@cinder@@@boost@@QAE@XZ 0040bba0 f i cinder:AppBasic.obj
 0001:0000aba0       ??1?$function1@_NVKeyEvent@app@cinder@@@boost@@QAE@XZ 0040bba0 f i cinder:App.obj
 0001:0000aba0       ??1?$function1@_NVFileDropEvent@app@cinder@@@boost@@QAE@XZ 0040bba0 f i cinder:App.obj
 0001:0000abc0       ?clear@?$function1@_NVResizeEvent@app@cinder@@@boost@@QAEXXZ 0040bbc0 f i cinder:App.obj
 0001:0000abc0       ?clear@?$function1@_NVTouchEvent@app@cinder@@@boost@@QAEXXZ 0040bbc0 f i cinder:AppBasic.obj
 0001:0000abc0       ?clear@?$function1@_NVKeyEvent@app@cinder@@@boost@@QAEXXZ 0040bbc0 f i cinder:App.obj
 0001:0000abc0       ?clear@?$function1@_NVMouseEvent@app@cinder@@@boost@@QAEXXZ 0040bbc0 f i cinder:App.obj
 0001:0000abc0       ?clear@?$function1@_NVFileDropEvent@app@cinder@@@boost@@QAEXXZ 0040bbc0 f i cinder:App.obj
 0001:0000ac10       ??_G?$pair@KV?$function@$$A6A_NVTouchEvent@app@cinder@@@Z@boost@@@std@@QAEPAXI@Z 0040bc10 f i cinder:AppBasic.obj
 0001:0000ac10       ??_G?$pair@KV?$function@$$A6A_NVResizeEvent@app@cinder@@@Z@boost@@@std@@QAEPAXI@Z 0040bc10 f i cinder:App.obj
 0001:0000ac10       ??_G?$pair@KV?$function@$$A6A_NVFileDropEvent@app@cinder@@@Z@boost@@@std@@QAEPAXI@Z 0040bc10 f i cinder:App.obj
 0001:0000ac10       ??_G?$pair@KV?$function@$$A6A_NVKeyEvent@app@cinder@@@Z@boost@@@std@@QAEPAXI@Z 0040bc10 f i cinder:App.obj
 0001:0000ac10       ??_G?$pair@KV?$function@$$A6A_NVMouseEvent@app@cinder@@@Z@boost@@@std@@QAEPAXI@Z 0040bc10 f i cinder:App.obj
 0001:0000ac40       ?clear@?$basic_vtable1@_NVMouseEvent@app@cinder@@@function@detail@boost@@QAEXAATfunction_buffer@234@@Z 0040bc40 f i cinder:App.obj
 0001:0000ac40       ?clear@?$basic_vtable1@_NVKeyEvent@app@cinder@@@function@detail@boost@@QAEXAATfunction_buffer@234@@Z 0040bc40 f i cinder:App.obj
 0001:0000ac40       ?clear@?$basic_vtable1@_NVResizeEvent@app@cinder@@@function@detail@boost@@QAEXAATfunction_buffer@234@@Z 0040bc40 f i cinder:App.obj
 0001:0000ac40       ?clear@?$basic_vtable1@_NVFileDropEvent@app@cinder@@@function@detail@boost@@QAEXAATfunction_buffer@234@@Z 0040bc40 f i cinder:App.obj
 0001:0000ac40       ?clear@?$basic_vtable1@_NVTouchEvent@app@cinder@@@function@detail@boost@@QAEXAATfunction_buffer@234@@Z 0040bc40 f i cinder:AppBasic.obj
 0001:0000ac70       ?initializeGlee@gl@cinder@@YAXXZ 0040bc70 f   cinder:gl.obj
 0001:0000afa0       ?isExtensionAvailable@gl@cinder@@YA_NABV?$basic_string@DU?$char_traits@D@std@@V?$allocator@D@2@@std@@@Z 0040bfa0 f   cinder:gl.obj
 0001:0000b150       ?clear@gl@cinder@@YAXABV?$ColorAT@M@2@_N@Z 0040c150 f   cinder:gl.obj
 0001:0000b1b0       ?setModelView@gl@cinder@@YAXABVCamera@2@@Z 0040c1b0 f   cinder:gl.obj
 0001:0000b1d0       ?setProjection@gl@cinder@@YAXABVCamera@2@@Z 0040c1d0 f   cinder:gl.obj
 0001:0000b1f0       ?setMatrices@gl@cinder@@YAXABVCamera@2@@Z 0040c1f0 f   cinder:gl.obj
 0001:0000b210       ?pushModelView@gl@cinder@@YAXXZ 0040c210 f   cinder:gl.obj
 0001:0000b230       ?popModelView@gl@cinder@@YAXXZ 0040c230 f   cinder:gl.obj
 0001:0000b250       ?pushModelView@gl@cinder@@YAXABVCamera@2@@Z 0040c250 f   cinder:gl.obj
 0001:0000b280       ?pushProjection@gl@cinder@@YAXABVCamera@2@@Z 0040c280 f   cinder:gl.obj
 0001:0000b2b0       ?pushMatrices@gl@cinder@@YAXXZ 0040c2b0 f   cinder:gl.obj
 0001:0000b2e0       ?popMatrices@gl@cinder@@YAXXZ 0040c2e0 f   cinder:gl.obj
 0001:0000b310       ?multModelView@gl@cinder@@YAXABV?$Matrix44@M@2@@Z 0040c310 f   cinder:gl.obj
 0001:0000b330       ?multProjection@gl@cinder@@YAXABV?$Matrix44@M@2@@Z 0040c330 f   cinder:gl.obj
 0001:0000b350       ?getModelView@gl@cinder@@YA?AV?$Matrix44@M@2@XZ 0040c350 f   cinder:gl.obj
 0001:0000b380       ?getProjection@gl@cinder@@YA?AV?$Matrix44@M@2@XZ 0040c380 f   cinder:gl.obj
 0001:0000b3b0       ?setMatricesWindowPersp@gl@cinder@@YAXHHMMM_N@Z 0040c3b0 f   cinder:gl.obj
 0001:0000b4c0       ?setMatricesWindow@gl@cinder@@YAXHH_N@Z 0040c4c0 f   cinder:gl.obj
 0001:0000b580       ?getViewport@gl@cinder@@YA?AV?$AreaT@J@2@XZ 0040c580 f   cinder:gl.obj
 0001:0000b5d0       ?setViewport@gl@cinder@@YAXABV?$AreaT@J@2@@Z 0040c5d0 f   cinder:gl.obj
 0001:0000b610       ?translate@gl@cinder@@YAXABV?$Vec2@M@2@@Z 0040c610 f   cinder:gl.obj
 0001:0000b640       ?translate@gl@cinder@@YAXABV?$Vec3@M@2@@Z 0040c640 f   cinder:gl.obj
 0001:0000b670       ?scale@gl@cinder@@YAXABV?$Vec3@M@2@@Z 0040c670 f   cinder:gl.obj
 0001:0000b6a0       ?rotate@gl@cinder@@YAXABV?$Vec3@M@2@@Z 0040c6a0 f   cinder:gl.obj
 0001:0000b710       ?rotate@gl@cinder@@YAXABV?$Quaternion@M@2@@Z 0040c710 f   cinder:gl.obj
 0001:0000b780       ?enableAlphaBlending@gl@cinder@@YAX_N@Z 0040c780 f   cinder:gl.obj
 0001:0000b7c0       ?disableAlphaBlending@gl@cinder@@YAXXZ 0040c7c0 f   cinder:gl.obj
 0001:0000b7d0       ?enableAdditiveBlending@gl@cinder@@YAXXZ 0040c7d0 f   cinder:gl.obj
 0001:0000b7f0       ?enableAlphaTest@gl@cinder@@YAXMH@Z 0040c7f0 f   cinder:gl.obj
 0001:0000b820       ?disableAlphaTest@gl@cinder@@YAXXZ 0040c820 f   cinder:gl.obj
 0001:0000b830       ?enableWireframe@gl@cinder@@YAXXZ 0040c830 f   cinder:gl.obj
 0001:0000b850       ?disableWireframe@gl@cinder@@YAXXZ 0040c850 f   cinder:gl.obj
 0001:0000b870       ?disableDepthRead@gl@cinder@@YAXXZ 0040c870 f   cinder:gl.obj
 0001:0000b880       ?enableDepthRead@gl@cinder@@YAX_N@Z 0040c880 f   cinder:gl.obj
 0001:0000b8b0       ?enableDepthWrite@gl@cinder@@YAX_N@Z 0040c8b0 f   cinder:gl.obj
 0001:0000b8d0       ?disableDepthWrite@gl@cinder@@YAXXZ 0040c8d0 f   cinder:gl.obj
 0001:0000b8e0       ?drawLine@gl@cinder@@YAXABV?$Vec2@M@2@0@Z 0040c8e0 f   cinder:gl.obj
 0001:0000b950       ?drawLine@gl@cinder@@YAXABV?$Vec3@M@2@0@Z 0040c950 f   cinder:gl.obj
 0001:0000b9d0       ?drawCubeImpl@?A0xb93f2996@gl@cinder@@YAXABV?$Vec3@M@3@0_N@Z 0040c9d0 f   cinder:gl.obj
 0001:0000c050       ?drawCube@gl@cinder@@YAXABV?$Vec3@M@2@0@Z 0040d050 f   cinder:gl.obj
 0001:0000c070       ?drawColorCube@gl@cinder@@YAXABV?$Vec3@M@2@0@Z 0040d070 f   cinder:gl.obj
 0001:0000c090       ?drawStrokedCube@gl@cinder@@YAXABV?$Vec3@M@2@0@Z 0040d090 f   cinder:gl.obj
 0001:0000c460       ?drawSphere@gl@cinder@@YAXABV?$Vec3@M@2@MH@Z 0040d460 f   cinder:gl.obj
 0001:0000c900       ?draw@gl@cinder@@YAXABVSphere@2@H@Z 0040d900 f   cinder:gl.obj
 0001:0000c930       ?drawSolidCircle@gl@cinder@@YAXABV?$Vec2@M@2@MH@Z 0040d930 f   cinder:gl.obj
 0001:0000ca80       ?drawStrokedCircle@gl@cinder@@YAXABV?$Vec2@M@2@MH@Z 0040da80 f   cinder:gl.obj
 0001:0000cbb0       ?drawSolidRect@gl@cinder@@YAXABV?$RectT@M@2@_N@Z 0040dbb0 f   cinder:gl.obj
 0001:0000cd70       ?drawStrokedRect@gl@cinder@@YAXABV?$RectT@M@2@@Z 0040dd70 f   cinder:gl.obj
 0001:0000ce10       ?drawCoordinateFrame@gl@cinder@@YAXMMM@Z 0040de10 f   cinder:gl.obj
 0001:0000cf30       ?drawVector@gl@cinder@@YAXABV?$Vec3@M@2@0MM@Z 0040df30 f   cinder:gl.obj
 0001:0000d380       ?drawFrustum@gl@cinder@@YAXABVCamera@2@@Z 0040e380 f   cinder:gl.obj
 0001:0000d650       ?drawTorus@gl@cinder@@YAXMMHH@Z 0040e650 f   cinder:gl.obj
 0001:0000dab0       ?drawCylinder@gl@cinder@@YAXMMMHH@Z 0040eab0 f   cinder:gl.obj
 0001:0000de30       ?draw@gl@cinder@@YAXABV?$PolyLine@V?$Vec2@M@cinder@@@2@@Z 0040ee30 f   cinder:gl.obj
 0001:0000de90       ?draw@gl@cinder@@YAXABV?$PolyLine@V?$Vec3@M@cinder@@@2@@Z 0040ee90 f   cinder:gl.obj
 0001:0000def0       ?draw@gl@cinder@@YAXABVPath2d@2@M@Z 0040eef0 f   cinder:gl.obj
 0001:0000dfa0       ?draw@gl@cinder@@YAXABVShape2d@2@M@Z 0040efa0 f   cinder:gl.obj
 0001:0000e0b0       ?drawSolid@gl@cinder@@YAXABVPath2d@2@M@Z 0040f0b0 f   cinder:gl.obj
 0001:0000e160       ?draw@gl@cinder@@YAXABVTriMesh@2@@Z 0040f160 f   cinder:gl.obj
 0001:0000e300       ?drawRange@gl@cinder@@YAXABVTriMesh@2@II@Z 0040f300 f   cinder:gl.obj
 0001:0000e4b0       ?draw@gl@cinder@@YAXABVVboMesh@12@@Z 0040f4b0 f   cinder:gl.obj
 0001:0000e500       ?drawRange@gl@cinder@@YAXABVVboMesh@12@IIHH@Z 0040f500 f   cinder:gl.obj
 0001:0000e580       ?drawArrays@gl@cinder@@YAXABVVboMesh@12@HH@Z 0040f580 f   cinder:gl.obj
 0001:0000e5c0       ?drawBillboard@gl@cinder@@YAXABV?$Vec3@M@2@ABV?$Vec2@M@2@M00@Z 0040f5c0 f   cinder:gl.obj
 0001:0000e940       ?draw@gl@cinder@@YAXABVTexture@12@@Z 0040f940 f   cinder:gl.obj
 0001:0000e980       ?draw@gl@cinder@@YAXABVTexture@12@ABV?$Vec2@M@2@@Z 0040f980 f   cinder:gl.obj
 0001:0000ea00       ?draw@gl@cinder@@YAXABVTexture@12@ABV?$RectT@M@2@@Z 0040fa00 f   cinder:gl.obj
 0001:0000ea30       ?draw@gl@cinder@@YAXABVTexture@12@ABV?$AreaT@J@2@ABV?$RectT@M@2@@Z 0040fa30 f   cinder:gl.obj
 0001:0000ec00       ?drawStringHelper@?A0xb93f2996@gl@cinder@@YAXABV?$basic_string@DU?$char_traits@D@std@@V?$allocator@D@2@@std@@ABV?$Vec2@M@3@ABV?$ColorAT@M@3@VFont@3@H@Z 0040fc00 f   cinder:gl.obj
 0001:0000ee50       ?drawString@gl@cinder@@YAXABV?$basic_string@DU?$char_traits@D@std@@V?$allocator@D@2@@std@@ABV?$Vec2@M@2@ABV?$ColorAT@M@2@VFont@2@@Z 0040fe50 f   cinder:gl.obj
 0001:0000eed0       ?drawStringCentered@gl@cinder@@YAXABV?$basic_string@DU?$char_traits@D@std@@V?$allocator@D@2@@std@@ABV?$Vec2@M@2@ABV?$ColorAT@M@2@VFont@2@@Z 0040fed0 f   cinder:gl.obj
 0001:0000ef50       ?drawStringRight@gl@cinder@@YAXABV?$basic_string@DU?$char_traits@D@std@@V?$allocator@D@2@@std@@ABV?$Vec2@M@2@ABV?$ColorAT@M@2@VFont@2@@Z 0040ff50 f   cinder:gl.obj
 0001:0000efd0       ??0SaveTextureBindState@gl@cinder@@QAE@H@Z 0040ffd0 f   cinder:gl.obj
 0001:0000f0b0       ??1SaveTextureBindState@gl@cinder@@QAE@XZ 004100b0 f   cinder:gl.obj
 0001:0000f0d0       ??0BoolState@gl@cinder@@QAE@H@Z 004100d0 f   cinder:gl.obj
 0001:0000f100       ??1BoolState@gl@cinder@@QAE@XZ 00410100 f   cinder:gl.obj
 0001:0000f130       ??0ClientBoolState@gl@cinder@@QAE@H@Z 00410130 f   cinder:gl.obj
 0001:0000f160       ??1ClientBoolState@gl@cinder@@QAE@XZ 00410160 f   cinder:gl.obj
 0001:0000f190       ??0SaveColorState@gl@cinder@@QAE@XZ 00410190 f   cinder:gl.obj
 0001:0000f1b0       ??1SaveColorState@gl@cinder@@QAE@XZ 004101b0 f   cinder:gl.obj
 0001:0000f1f0       ??0SaveFramebufferBinding@gl@cinder@@QAE@XZ 004101f0 f   cinder:gl.obj
 0001:0000f210       ??1SaveFramebufferBinding@gl@cinder@@QAE@XZ 00410210 f   cinder:gl.obj
 0001:0000f230       ?getModelViewMatrix@Camera@cinder@@QBEABV?$Matrix44@M@2@XZ 00410230 f i cinder:gl.obj
 0001:0000f250       ?getProjectionMatrix@Camera@cinder@@QBEABV?$Matrix44@M@2@XZ 00410250 f i cinder:gl.obj
 0001:0000f270       ?glMultMatrixf@@YAXABV?$Matrix44@M@cinder@@@Z 00410270 f i cinder:gl.obj
 0001:0000f280       ??1Camera@cinder@@UAE@XZ   00410280 f i cinder:gl.obj
 0001:0000f2a0       ??_GCamera@cinder@@UAEPAXI@Z 004102a0 f i cinder:gl.obj
 0001:0000f2a0       ??_ECamera@cinder@@UAEPAXI@Z 004102a0 f i cinder:gl.obj
 0001:0000f2d0       ?fabs@@YAMM@Z              004102d0 f i cinder:Camera.obj
 0001:0000f2d0       ?abs@?$math@M@cinder@@SAMM@Z 004102d0 f i cinder:gl.obj
 0001:0000f2f0       _fabsf                     004102f0 f i cinder:gl.obj
 0001:0000f310       ?toDegrees@cinder@@YAMM@Z  00410310 f i cinder:gl.obj
 0001:0000f330       _cosf                      00410330 f i cinder:gl.obj
 0001:0000f350       _sinf                      00410350 f i cinder:gl.obj
 0001:0000f370       ?getRadius@Sphere@cinder@@QBEMXZ 00410370 f i cinder:gl.obj
 0001:0000f370       ?getY2@?$RectT@M@cinder@@QBEMXZ 00410370 f i cinder:gl.obj
 0001:0000f390       ?getEyePoint@Camera@cinder@@QBE?AV?$Vec3@M@2@XZ 00410390 f i cinder:gl.obj
 0001:0000f3b0       ?cos@?$math@M@cinder@@SAMM@Z 004103b0 f i cinder:gl.obj
 0001:0000f3b0       ?cos@@YAMM@Z               004103b0 f i cinder:gl.obj
 0001:0000f3d0       ?sin@?$math@M@cinder@@SAMM@Z 004103d0 f i cinder:gl.obj
 0001:0000f3d0       ?sin@@YAMM@Z               004103d0 f i cinder:gl.obj
 0001:0000f3f0       ?getNumSegments@Path2d@cinder@@QBEIXZ 004103f0 f i cinder:gl.obj
 0001:0000f410       ?hasColorsRGB@TriMesh@cinder@@QBE_NXZ 00410410 f i cinder:gl.obj
 0001:0000f430       ?hasColorsRGBA@TriMesh@cinder@@QBE_NXZ 00410430 f i cinder:gl.obj
 0001:0000f450       ?hasTexCoords@TriMesh@cinder@@QBE_NXZ 00410450 f i cinder:gl.obj
 0001:0000f470       ?getNumIndices@TriMesh@cinder@@QBEIXZ 00410470 f i cinder:gl.obj
 0001:0000f490       ?getNormals@TriMesh@cinder@@QBEABV?$vector@V?$Vec3@M@cinder@@V?$allocator@V?$Vec3@M@cinder@@@std@@@std@@XZ 00410490 f i cinder:gl.obj
 0001:0000f490       ?getColorsRGB@TriMesh2d@cinder@@QBEABV?$vector@V?$ColorT@M@cinder@@V?$allocator@V?$ColorT@M@cinder@@@std@@@std@@XZ 00410490 f i cinder:VBO.obj
 0001:0000f4b0       ?getIndices@TriMesh@cinder@@QBEABV?$vector@KV?$allocator@K@std@@@std@@XZ 004104b0 f i cinder:gl.obj
 0001:0000f4d0       ?size@?$PolyLine@V?$Vec3@M@cinder@@@cinder@@QBEIXZ 004104d0 f i cinder:gl.obj
 0001:0000f4d0       ?getNumVertices@TriMesh@cinder@@QBEIXZ 004104d0 f i cinder:gl.obj
 0001:0000f4f0       ?getPrimitiveType@VboMesh@gl@cinder@@QBEIXZ 004104f0 f i cinder:gl.obj
 0001:0000f510       ?toRadians@cinder@@YAMM@Z  00410510 f i cinder:gl.obj
 0001:0000f530       ?getCleanBounds@Texture@gl@cinder@@QBE?AV?$AreaT@J@3@XZ 00410530 f i cinder:gl.obj
 0001:0000f560       ?getTarget@Texture@gl@cinder@@QBEIXZ 00410560 f i cinder:gl.obj
 0001:0000f580       ??0Vbo@gl@cinder@@QAE@ABV012@@Z 00410580 f i cinder:VBO.obj
 0001:0000f580       ??0Buffer@cinder@@QAE@ABV01@@Z 00410580 f i cinder:DataSource.obj
 0001:0000f580       ??0?$SurfaceT@E@cinder@@QAE@ABV01@@Z 00410580 f i cinder:Renderer.obj
 0001:0000f580       ??0Texture@gl@cinder@@QAE@ABV012@@Z 00410580 f i cinder:Texture.obj
 0001:0000f580       ??0Font@cinder@@QAE@ABV01@@Z 00410580 f i cinder:gl.obj
 0001:0000f5a0       ??0?$RectT@M@cinder@@QAE@MMMM@Z 004105a0 f i cinder:gl.obj
 0001:0000f5e0       ?getY1@?$RectT@M@cinder@@QBEMXZ 004105e0 f i cinder:gl.obj
 0001:0000f600       ?getX2@?$RectT@M@cinder@@QBEMXZ 00410600 f i cinder:gl.obj
 0001:0000f620       ??1?$vector@V?$Vec2@M@cinder@@V?$allocator@V?$Vec2@M@cinder@@@std@@@std@@QAE@XZ 00410620 f i cinder:gl.obj
 0001:0000f680       ??A?$vector@V?$shared_ptr@VDisplay@cinder@@@boost@@V?$allocator@V?$shared_ptr@VDisplay@cinder@@@boost@@@std@@@std@@QAEAAV?$shared_ptr@VDisplay@cinder@@@boost@@I@Z 00410680 f i cinder:Display.obj
 0001:0000f680       ??A?$vector@U?$pair@W4CustomAttr@Layout@VboMesh@gl@cinder@@I@std@@V?$allocator@U?$pair@W4CustomAttr@Layout@VboMesh@gl@cinder@@I@std@@@2@@std@@QAEAAU?$pair@W4CustomAttr@Layout@VboMesh@gl@cinder@@I@1@I@Z 00410680 f i cinder:VBO.obj
 0001:0000f680       ??A?$vector@V?$Vec2@M@cinder@@V?$allocator@V?$Vec2@M@cinder@@@std@@@std@@QAEAAV?$Vec2@M@cinder@@I@Z 00410680 f i cinder:gl.obj
 0001:0000f680       ??A?$vector@V?$Vec2@M@cinder@@V?$allocator@V?$Vec2@M@cinder@@@std@@@std@@QBEABV?$Vec2@M@cinder@@I@Z 00410680 f i cinder:gl.obj
 0001:0000f680       ??A?$vector@U?$pair@W4CustomAttr@Layout@VboMesh@gl@cinder@@I@std@@V?$allocator@U?$pair@W4CustomAttr@Layout@VboMesh@gl@cinder@@I@std@@@2@@std@@QBEABU?$pair@W4CustomAttr@Layout@VboMesh@gl@cinder@@I@1@I@Z 00410680 f i cinder:VBO.obj
 0001:0000f6b0       ??0PointF@Gdiplus@@QAE@MM@Z 004106b0 f i cinder:Text.obj
 0001:0000f6b0       ??0?$Vec2@M@cinder@@QAE@MM@Z 004106b0 f i cinder:gl.obj
 0001:0000f6e0       ??G?$Vec2@M@cinder@@QBE?BV01@ABV01@@Z 004106e0 f i cinder:gl.obj
 0001:0000f730       ??E?$_Vector_const_iterator@VPath2d@cinder@@V?$allocator@VPath2d@cinder@@@std@@@std@@QAEAAV01@XZ 00410730 f i cinder:gl.obj
 0001:0000f790       ??H?$Vec3@M@cinder@@QBE?BV01@ABV01@@Z 00410790 f i cinder:gl.obj
 0001:0000f7f0       ??G?$Vec3@M@cinder@@QBE?BV01@ABV01@@Z 004107f0 f i cinder:gl.obj
 0001:0000f850       ?dot@?$Vec3@M@cinder@@QBEMABV12@@Z 00410850 f i cinder:gl.obj
 0001:0000f890       ?cross@?$Vec3@M@cinder@@QBE?AV12@ABV12@@Z 00410890 f i cinder:gl.obj
 0001:0000f920       ?normalized@?$Vec3@M@cinder@@QBE?AV12@XZ 00410920 f i cinder:gl.obj
 0001:0000f990       ?zero@?$Vec3@M@cinder@@SA?AV12@XZ 00410990 f i cinder:gl.obj
 0001:0000f9c0       ?xAxis@?$Vec3@M@cinder@@SA?AV12@XZ 004109c0 f i cinder:gl.obj
 0001:0000f9f0       ?yAxis@?$Vec3@M@cinder@@SA?AV12@XZ 004109f0 f i cinder:gl.obj
 0001:0000fa20       ?zAxis@?$Vec3@M@cinder@@SA?AV12@XZ 00410a20 f i cinder:gl.obj
 0001:0000fa50       ?getAxisAngle@?$Quaternion@M@cinder@@QBEXPAV?$Vec3@M@2@PAM@Z 00410a50 f i cinder:gl.obj
 0001:0000fad0       ?acos@?$math@M@cinder@@SAMM@Z 00410ad0 f i cinder:gl.obj
 0001:0000faf0       _acosf                     00410af0 f i cinder:gl.obj
 0001:0000fb10       _sqrtf                     00410b10 f i cinder:gl.obj
 0001:0000fb30       ?empty@?$vector@V?$Vec3@M@cinder@@V?$allocator@V?$Vec3@M@cinder@@@std@@@std@@QBE_NXZ 00410b30 f i cinder:gl.obj
 0001:0000fb30       ?empty@?$vector@V?$ColorT@M@cinder@@V?$allocator@V?$ColorT@M@cinder@@@std@@@std@@QBE_NXZ 00410b30 f i cinder:gl.obj
 0001:0000fb50       ??A?$vector@V?$Vec3@M@cinder@@V?$allocator@V?$Vec3@M@cinder@@@std@@@std@@QBEABV?$Vec3@M@cinder@@I@Z 00410b50 f i cinder:gl.obj
 0001:0000fb50       ??A?$vector@V?$ColorT@M@cinder@@V?$allocator@V?$ColorT@M@cinder@@@std@@@std@@QBEABV?$ColorT@M@cinder@@I@Z 00410b50 f i cinder:gl.obj
 0001:0000fb80       ?empty@?$vector@V?$ColorAT@M@cinder@@V?$allocator@V?$ColorAT@M@cinder@@@std@@@std@@QBE_NXZ 00410b80 f i cinder:gl.obj
 0001:0000fba0       ??A?$vector@V?$ColorAT@M@cinder@@V?$allocator@V?$ColorAT@M@cinder@@@std@@@std@@QBEABV?$ColorAT@M@cinder@@I@Z 00410ba0 f i cinder:gl.obj
 0001:0000fbd0       ??A?$map@V?$basic_string@DU?$char_traits@D@std@@V?$allocator@D@2@@std@@_NU?$less@V?$basic_string@DU?$char_traits@D@std@@V?$allocator@D@2@@std@@@2@V?$allocator@U?$pair@$$CBV?$basic_string@DU?$char_traits@D@std@@V?$allocator@D@2@@std@@_N@std@@@2@@std@@QAEAA_NABV?$basic_string@DU?$char_traits@D@std@@V?$allocator@D@2@@1@@Z 00410bd0 f i cinder:gl.obj
 0001:0000fcd0       ?find@?$_Tree@V?$_Tmap_traits@V?$basic_string@DU?$char_traits@D@std@@V?$allocator@D@2@@std@@_NU?$less@V?$basic_string@DU?$char_traits@D@std@@V?$allocator@D@2@@std@@@2@V?$allocator@U?$pair@$$CBV?$basic_string@DU?$char_traits@D@std@@V?$allocator@D@2@@std@@_N@std@@@2@$0A@@std@@@std@@QAE?AViterator@12@ABV?$basic_string@DU?$char_traits@D@std@@V?$allocator@D@2@@2@@Z 00410cd0 f i cinder:gl.obj
 0001:0000fd70       ?floor@?$math@N@cinder@@SANN@Z 00410d70 f i cinder:gl.obj
 0001:0000fd90       ?max@?$math@H@cinder@@SAHHH@Z 00410d90 f i cinder:gl.obj
 0001:0000fdc0       ?_Tidy@?$vector@V?$Vec2@M@cinder@@V?$allocator@V?$Vec2@M@cinder@@@std@@@std@@IAEXXZ 00410dc0 f i cinder:gl.obj
 0001:0000fdc0       ?_Tidy@?$vector@U?$pair@W4CustomAttr@Layout@VboMesh@gl@cinder@@I@std@@V?$allocator@U?$pair@W4CustomAttr@Layout@VboMesh@gl@cinder@@I@std@@@2@@std@@IAEXXZ 00410dc0 f i cinder:VBO.obj
 0001:0000fe30       ?length@?$Vec3@M@cinder@@QBEMXZ 00410e30 f i cinder:gl.obj
 0001:0000fe80       ?size@?$vector@V?$ColorAT@M@cinder@@V?$allocator@V?$ColorAT@M@cinder@@@std@@@std@@QBEIXZ 00410e80 f i cinder:gl.obj
 0001:0000fea0       ?insert@?$_Tree@V?$_Tmap_traits@V?$basic_string@DU?$char_traits@D@std@@V?$allocator@D@2@@std@@_NU?$less@V?$basic_string@DU?$char_traits@D@std@@V?$allocator@D@2@@std@@@2@V?$allocator@U?$pair@$$CBV?$basic_string@DU?$char_traits@D@std@@V?$allocator@D@2@@std@@_N@std@@@2@$0A@@std@@@std@@QAE?AViterator@12@Vconst_iterator@12@ABU?$pair@$$CBV?$basic_string@DU?$char_traits@D@std@@V?$allocator@D@2@@std@@_N@2@@Z 00410ea0 f i cinder:gl.obj
 0001:000104c0       ?lower_bound@?$_Tree@V?$_Tmap_traits@V?$basic_string@DU?$char_traits@D@std@@V?$allocator@D@2@@std@@_NU?$less@V?$basic_string@DU?$char_traits@D@std@@V?$allocator@D@2@@std@@@2@V?$allocator@U?$pair@$$CBV?$basic_string@DU?$char_traits@D@std@@V?$allocator@D@2@@std@@_N@std@@@2@$0A@@std@@@std@@QAE?AViterator@12@ABV?$basic_string@DU?$char_traits@D@std@@V?$allocator@D@2@@2@@Z 004114c0 f i cinder:gl.obj
 0001:000104f0       ??R?$less@V?$basic_string@DU?$char_traits@D@std@@V?$allocator@D@2@@std@@@std@@QBE_NABV?$basic_string@DU?$char_traits@D@std@@V?$allocator@D@2@@1@0@Z 004114f0 f i cinder:gl.obj
 0001:00010510       ??0?$pair@$$CBV?$basic_string@DU?$char_traits@D@std@@V?$allocator@D@2@@std@@_N@std@@QAE@ABV?$basic_string@DU?$char_traits@D@std@@V?$allocator@D@2@@1@AB_N@Z 00411510 f i cinder:gl.obj
 0001:00010540       ??0?$_Iterator_with_base@Ubidirectional_iterator_tag@std@@U?$pair@$$CBV?$basic_string@DU?$char_traits@D@std@@V?$allocator@D@2@@std@@V?$multimap@JU?$pair@P6A?AV?$shared_ptr@VImageTarget@cinder@@@boost@@V?$shared_ptr@VDataTarget@cinder@@@2@V?$shared_ptr@VImageSource@cinder@@@2@VOptions@ImageTarget@cinder@@ABV?$basic_string@DU?$char_traits@D@std@@V?$allocator@D@2@@std@@@ZV89@@std@@U?$less@J@2@V?$allocator@U?$pair@$$CBJU?$pair@P6A?AV?$shared_ptr@VImageTarget@cinder@@@boost@@V?$shared_ptr@VDataTarget@cinder@@@2@V?$shared_ptr@VImageSource@cinder@@@2@VOptions@ImageTarget@cinder@@ABV?$basic_string@DU?$char_traits@D@std@@V?$allocator@D@2@@std@@@ZV89@@std@@@std@@@2@@2@@2@HPBU32@ABU32@V_Iterator_base_aux@2@@std@@QAE@XZ 00411540 f i cinder:ImageIo.obj
 0001:00010540       ??0?$_Iterator_with_base@Urandom_access_iterator_tag@std@@U?$pair@KV?$function@$$A6A_NVTouchEvent@app@cinder@@@Z@boost@@@2@HPBU32@ABU32@V_Iterator_base_aux@2@@std@@QAE@XZ 00411540 f i cinder:AppBasic.obj
 0001:00010540       ??0?$_Iterator_with_base@Ubidirectional_iterator_tag@std@@U?$pair@$$CBV?$basic_string@DU?$char_traits@D@std@@V?$allocator@D@2@@std@@V?$multimap@JP6A?AV?$shared_ptr@VImageSource@cinder@@@boost@@V?$shared_ptr@VDataSource@cinder@@@2@VOptions@ImageSource@cinder@@@ZU?$less@J@std@@V?$allocator@U?$pair@$$CBJP6A?AV?$shared_ptr@VImageSource@cinder@@@boost@@V?$shared_ptr@VDataSource@cinder@@@2@VOptions@ImageSource@cinder@@@Z@std@@@8@@2@@2@HPBU32@ABU32@V_Iterator_base_aux@2@@std@@QAE@XZ 00411540 f i cinder:ImageIo.obj
 0001:00010540       ??0?$_Iterator_with_base@Ubidirectional_iterator_tag@std@@U?$pair@$$CBKV?$Vec2@M@cinder@@@2@HPBU32@ABU32@V_Iterator_base_aux@2@@std@@QAE@XZ 00411540 f i cinder:AppImplMswBasic.obj
 0001:00010540       ??0?$_Iterator_with_base@Urandom_access_iterator_tag@std@@U?$pair@KV?$function@$$A6A_NVResizeEvent@app@cinder@@@Z@boost@@@2@HPBU32@ABU32@V_Iterator_base_aux@2@@std@@QAE@XZ 00411540 f i cinder:App.obj
 0001:00010540       ??0?$_Iterator_with_base@Urandom_access_iterator_tag@std@@URun@cinder@@HPBU34@ABU34@V_Iterator_base_aux@2@@std@@QAE@XZ 00411540 f i cinder:Text.obj
 0001:00010540       ??0?$_Iterator_with_base@Ubidirectional_iterator_tag@std@@V?$Vec2@M@cinder@@HPBV34@ABV34@V_Iterator_base_aux@2@@std@@QAE@XZ 00411540 f i basicApp.obj
 0001:00010540       ??0?$_Iterator_with_base@Urandom_access_iterator_tag@std@@_WHPB_WAB_WV_Iterator_base_aux@2@@std@@QAE@XZ 00411540 f i cinder:Utilities.obj
 0001:00010540       ??0?$_Iterator_with_base@Urandom_access_iterator_tag@std@@W4SegmentType@Path2d@cinder@@HPBW4345@ABW4345@V_Iterator_base_aux@2@@std@@QAE@XZ 00411540 f i cinder:Path2D.obj
 0001:00010540       ??0?$_Iterator_with_base@Ubidirectional_iterator_tag@std@@U?$pair@$$CBV?$basic_string@DU?$char_traits@D@std@@V?$allocator@D@2@@std@@PBU_GUID@@@2@HPBU32@ABU32@V_Iterator_base_aux@2@@std@@QAE@XZ 00411540 f i cinder:ImageTargetFileWic.obj
 0001:00010540       ??0?$_Iterator_with_base@Urandom_access_iterator_tag@std@@V?$shared_ptr@VLine@cinder@@@boost@@HPBV34@ABV34@V_Iterator_base_aux@2@@std@@QAE@XZ 00411540 f i cinder:Text.obj
 0001:00010540       ??0?$_Iterator_with_base@Ubidirectional_iterator_tag@std@@U?$pair@$$CBV?$basic_string@DU?$char_traits@D@std@@V?$allocator@D@2@@std@@_N@2@HPBU32@ABU32@V_Iterator_base_aux@2@@std@@QAE@XZ 00411540 f i cinder:gl.obj
 0001:00010540       ??0?$_Iterator_with_base@Urandom_access_iterator_tag@std@@GHPBGABGV_Iterator_base_aux@2@@std@@QAE@XZ 00411540 f i cinder:Font.obj
 0001:00010540       ??0?$_Iterator_with_base@Urandom_access_iterator_tag@std@@V?$basic_string@DU?$char_traits@D@std@@V?$allocator@D@2@@2@HPBV32@ABV32@V_Iterator_base_aux@2@@std@@QAE@XZ 00411540 f i cinder:AppBasic.obj
 0001:00010540       ??0?$_Iterator_with_base@Urandom_access_iterator_tag@std@@U?$pair@W4CustomAttr@Layout@VboMesh@gl@cinder@@I@2@HPBU32@ABU32@V_Iterator_base_aux@2@@std@@QAE@XZ 00411540 f i cinder:VBO.obj
 0001:00010540       ??0?$_Iterator_with_base@Urandom_access_iterator_tag@std@@HHPBHABHV_Iterator_base_aux@2@@std@@QAE@XZ 00411540 f i cinder:VBO.obj
 0001:00010540       ??0?$_Ranit_base@DHPBDABDV_Iterator_base_secure@std@@@std@@QAE@XZ 00411540 f i cinder:Utilities.obj
 0001:00010540       ??0?$_Iterator_with_base@Ubidirectional_iterator_tag@std@@U?$pair@$$CBJP6A?AV?$shared_ptr@VImageSource@cinder@@@boost@@V?$shared_ptr@VDataSource@cinder@@@2@VOptions@ImageSource@cinder@@@Z@2@HPBU32@ABU32@V_Iterator_base_aux@2@@std@@QAE@XZ 00411540 f i cinder:ImageIo.obj
 0001:00010540       ??0?$_Iterator_with_base@Ubidirectional_iterator_tag@std@@U?$pair@$$CBJU?$pair@P6A?AV?$shared_ptr@VImageTarget@cinder@@@boost@@V?$shared_ptr@VDataTarget@cinder@@@2@V?$shared_ptr@VImageSource@cinder@@@2@VOptions@ImageTarget@cinder@@ABV?$basic_string@DU?$char_traits@D@std@@V?$allocator@D@2@@std@@@ZV89@@std@@@2@HPBU32@ABU32@V_Iterator_base_aux@2@@std@@QAE@XZ 00411540 f i cinder:ImageIo.obj
 0001:00010540       ??0?$_Iterator_with_base@Urandom_access_iterator_tag@std@@V?$shared_ptr@VDisplay@cinder@@@boost@@HPBV34@ABV34@V_Iterator_base_aux@2@@std@@QAE@XZ 00411540 f i cinder:Display.obj
 0001:00010540       ??0?$_Iterator_with_base@Urandom_access_iterator_tag@std@@IHPBIABIV_Iterator_base_aux@2@@std@@QAE@XZ 00411540 f i cinder:VBO.obj
 0001:00010540       ??0?$_Iterator_with_base@Urandom_access_iterator_tag@std@@DHPBDABDV_Iterator_base_aux@2@@std@@QAE@XZ 00411540 f i cinder:Stream.obj
 0001:00010540       ??0?$_Iterator_with_base@Urandom_access_iterator_tag@std@@U?$pair@GG@2@HPBU32@ABU32@V_Iterator_base_aux@2@@std@@QAE@XZ 00411540 f i cinder:Font.obj
 0001:00010540       ??0?$_Iterator_with_base@Urandom_access_iterator_tag@std@@U?$pair@KV?$function@$$A6A_NVFileDropEvent@app@cinder@@@Z@boost@@@2@HPBU32@ABU32@V_Iterator_base_aux@2@@std@@QAE@XZ 00411540 f i cinder:App.obj
 0001:00010540       ??0?$_Iterator_with_base@Urandom_access_iterator_tag@std@@U?$pair@KV?$function@$$A6A_NVKeyEvent@app@cinder@@@Z@boost@@@2@HPBU32@ABU32@V_Iterator_base_aux@2@@std@@QAE@XZ 00411540 f i cinder:App.obj
 0001:00010540       ??0?$_Iterator_with_base@Urandom_access_iterator_tag@std@@U?$pair@HVTexture@gl@cinder@@@2@HPBU32@ABU32@V_Iterator_base_aux@2@@std@@QAE@XZ 00411540 f i cinder:Texture.obj
 0001:00010540       ??0?$_Iterator_with_base@Urandom_access_iterator_tag@std@@V?$Vec2@M@cinder@@HPBV34@ABV34@V_Iterator_base_aux@2@@std@@QAE@XZ 00411540 f i cinder:Path2D.obj
 0001:00010540       ??0?$_Iterator_with_base@Urandom_access_iterator_tag@std@@VPath2d@cinder@@HPBV34@ABV34@V_Iterator_base_aux@2@@std@@QAE@XZ 00411540 f i cinder:gl.obj
 0001:00010540       ??0?$_Iterator_with_base@Urandom_access_iterator_tag@std@@U?$pair@GV?$Vec2@M@cinder@@@2@HPBU32@ABU32@V_Iterator_base_aux@2@@std@@QAE@XZ 00411540 f i cinder:Text.obj
 0001:00010540       ??0?$_Iterator_with_base@Urandom_access_iterator_tag@std@@U?$pair@KV?$function@$$A6A_NVMouseEvent@app@cinder@@@Z@boost@@@2@HPBU32@ABU32@V_Iterator_base_aux@2@@std@@QAE@XZ 00411540 f i cinder:App.obj
 0001:00010540       ??0?$_Iterator_with_base@Urandom_access_iterator_tag@std@@VTouch@TouchEvent@app@cinder@@HPBV3456@ABV3456@V_Iterator_base_aux@2@@std@@QAE@XZ 00411540 f i cinder:AppBasic.obj
 0001:00010560       ?_Isnil@?$_Tree@V?$_Tmap_traits@V?$basic_string@DU?$char_traits@D@std@@V?$allocator@D@2@@std@@PBU_GUID@@U?$less@V?$basic_string@DU?$char_traits@D@std@@V?$allocator@D@2@@std@@@2@V?$allocator@U?$pair@$$CBV?$basic_string@DU?$char_traits@D@std@@V?$allocator@D@2@@std@@PBU_GUID@@@std@@@2@$0A@@std@@@std@@KAAADPAU_Node@?$_Tree_nod@V?$_Tmap_traits@V?$basic_string@DU?$char_traits@D@std@@V?$allocator@D@2@@std@@PBU_GUID@@U?$less@V?$basic_string@DU?$char_traits@D@std@@V?$allocator@D@2@@std@@@2@V?$allocator@U?$pair@$$CBV?$basic_string@DU?$char_traits@D@std@@V?$allocator@D@2@@std@@PBU_GUID@@@std@@@2@$0A@@std@@@2@@Z 00411560 f i cinder:ImageTargetFileWic.obj
 0001:00010560       ?_Isnil@?$_Tree@V?$_Tmap_traits@V?$basic_string@DU?$char_traits@D@std@@V?$allocator@D@2@@std@@_NU?$less@V?$basic_string@DU?$char_traits@D@std@@V?$allocator@D@2@@std@@@2@V?$allocator@U?$pair@$$CBV?$basic_string@DU?$char_traits@D@std@@V?$allocator@D@2@@std@@_N@std@@@2@$0A@@std@@@std@@KAAADPAU_Node@?$_Tree_nod@V?$_Tmap_traits@V?$basic_string@DU?$char_traits@D@std@@V?$allocator@D@2@@std@@_NU?$less@V?$basic_string@DU?$char_traits@D@std@@V?$allocator@D@2@@std@@@2@V?$allocator@U?$pair@$$CBV?$basic_string@DU?$char_traits@D@std@@V?$allocator@D@2@@std@@_N@std@@@2@$0A@@std@@@2@@Z 00411560 f i cinder:gl.obj
 0001:00010570       ?size@?$_Tree@V?$_Tmap_traits@JP6A?AV?$shared_ptr@VImageSource@cinder@@@boost@@V?$shared_ptr@VDataSource@cinder@@@2@VOptions@ImageSource@cinder@@@ZU?$less@J@std@@V?$allocator@U?$pair@$$CBJP6A?AV?$shared_ptr@VImageSource@cinder@@@boost@@V?$shared_ptr@VDataSource@cinder@@@2@VOptions@ImageSource@cinder@@@Z@std@@@8@$00@std@@@std@@QBEIXZ 00411570 f i cinder:ImageIo.obj
 0001:00010570       ?size@?$_Tree@V?$_Tmap_traits@V?$basic_string@DU?$char_traits@D@std@@V?$allocator@D@2@@std@@_NU?$less@V?$basic_string@DU?$char_traits@D@std@@V?$allocator@D@2@@std@@@2@V?$allocator@U?$pair@$$CBV?$basic_string@DU?$char_traits@D@std@@V?$allocator@D@2@@std@@_N@std@@@2@$0A@@std@@@std@@QBEIXZ 00411570 f i cinder:gl.obj
 0001:00010570       ?size@?$_Tree@V?$_Tmap_traits@KV?$Vec2@M@cinder@@U?$less@K@std@@V?$allocator@U?$pair@$$CBKV?$Vec2@M@cinder@@@std@@@4@$0A@@std@@@std@@QBEIXZ 00411570 f i cinder:AppImplMswBasic.obj
 0001:00010570       ?size@?$_Tree@V?$_Tmap_traits@JU?$pair@P6A?AV?$shared_ptr@VImageTarget@cinder@@@boost@@V?$shared_ptr@VDataTarget@cinder@@@2@V?$shared_ptr@VImageSource@cinder@@@2@VOptions@ImageTarget@cinder@@ABV?$basic_string@DU?$char_traits@D@std@@V?$allocator@D@2@@std@@@ZV89@@std@@U?$less@J@2@V?$allocator@U?$pair@$$CBJU?$pair@P6A?AV?$shared_ptr@VImageTarget@cinder@@@boost@@V?$shared_ptr@VDataTarget@cinder@@@2@V?$shared_ptr@VImageSource@cinder@@@2@VOptions@ImageTarget@cinder@@ABV?$basic_string@DU?$char_traits@D@std@@V?$allocator@D@2@@std@@@ZV89@@std@@@std@@@2@$00@std@@@std@@QBEIXZ 00411570 f i cinder:ImageIo.obj
 0001:00010570       ?size@?$_Tree@V?$_Tmap_traits@V?$basic_string@DU?$char_traits@D@std@@V?$allocator@D@2@@std@@PBU_GUID@@U?$less@V?$basic_string@DU?$char_traits@D@std@@V?$allocator@D@2@@std@@@2@V?$allocator@U?$pair@$$CBV?$basic_string@DU?$char_traits@D@std@@V?$allocator@D@2@@std@@PBU_GUID@@@std@@@2@$0A@@std@@@std@@QBEIXZ 00411570 f i cinder:ImageTargetFileWic.obj
 0001:00010590       ?insert@?$_Tree@V?$_Tmap_traits@V?$basic_string@DU?$char_traits@D@std@@V?$allocator@D@2@@std@@_NU?$less@V?$basic_string@DU?$char_traits@D@std@@V?$allocator@D@2@@std@@@2@V?$allocator@U?$pair@$$CBV?$basic_string@DU?$char_traits@D@std@@V?$allocator@D@2@@std@@_N@std@@@2@$0A@@std@@@std@@QAE?AU?$pair@Viterator@?$_Tree@V?$_Tmap_traits@V?$basic_string@DU?$char_traits@D@std@@V?$allocator@D@2@@std@@_NU?$less@V?$basic_string@DU?$char_traits@D@std@@V?$allocator@D@2@@std@@@2@V?$allocator@U?$pair@$$CBV?$basic_string@DU?$char_traits@D@std@@V?$allocator@D@2@@std@@_N@std@@@2@$0A@@std@@@std@@_N@2@ABU?$pair@$$CBV?$basic_string@DU?$char_traits@D@std@@V?$allocator@D@2@@std@@_N@2@@Z 00411590 f i cinder:gl.obj
 0001:00010760       ?_Insert@?$_Tree@V?$_Tmap_traits@V?$basic_string@DU?$char_traits@D@std@@V?$allocator@D@2@@std@@_NU?$less@V?$basic_string@DU?$char_traits@D@std@@V?$allocator@D@2@@std@@@2@V?$allocator@U?$pair@$$CBV?$basic_string@DU?$char_traits@D@std@@V?$allocator@D@2@@std@@_N@std@@@2@$0A@@std@@@std@@IAE?AViterator@12@_NPAU_Node@?$_Tree_nod@V?$_Tmap_traits@V?$basic_string@DU?$char_traits@D@std@@V?$allocator@D@2@@std@@_NU?$less@V?$basic_string@DU?$char_traits@D@std@@V?$allocator@D@2@@std@@@2@V?$allocator@U?$pair@$$CBV?$basic_string@DU?$char_traits@D@std@@V?$allocator@D@2@@std@@_N@std@@@2@$0A@@std@@@2@ABU?$pair@$$CBV?$basic_string@DU?$char_traits@D@std@@V?$allocator@D@2@@std@@_N@2@@Z 00411760 f i cinder:gl.obj
 0001:00010be0       ?_Lbound@?$_Tree@V?$_Tmap_traits@V?$basic_string@DU?$char_traits@D@std@@V?$allocator@D@2@@std@@PBU_GUID@@U?$less@V?$basic_string@DU?$char_traits@D@std@@V?$allocator@D@2@@std@@@2@V?$allocator@U?$pair@$$CBV?$basic_string@DU?$char_traits@D@std@@V?$allocator@D@2@@std@@PBU_GUID@@@std@@@2@$0A@@std@@@std@@IBEPAU_Node@?$_Tree_nod@V?$_Tmap_traits@V?$basic_string@DU?$char_traits@D@std@@V?$allocator@D@2@@std@@PBU_GUID@@U?$less@V?$basic_string@DU?$char_traits@D@std@@V?$allocator@D@2@@std@@@2@V?$allocator@U?$pair@$$CBV?$basic_string@DU?$char_traits@D@std@@V?$allocator@D@2@@std@@PBU_GUID@@@std@@@2@$0A@@std@@@2@ABV?$basic_string@DU?$char_traits@D@std@@V?$allocator@D@2@@2@@Z 00411be0 f i cinder:ImageTargetFileWic.obj
 0001:00010be0       ?_Lbound@?$_Tree@V?$_Tmap_traits@V?$basic_string@DU?$char_traits@D@std@@V?$allocator@D@2@@std@@_NU?$less@V?$basic_string@DU?$char_traits@D@std@@V?$allocator@D@2@@std@@@2@V?$allocator@U?$pair@$$CBV?$basic_string@DU?$char_traits@D@std@@V?$allocator@D@2@@std@@_N@std@@@2@$0A@@std@@@std@@IBEPAU_Node@?$_Tree_nod@V?$_Tmap_traits@V?$basic_string@DU?$char_traits@D@std@@V?$allocator@D@2@@std@@_NU?$less@V?$basic_string@DU?$char_traits@D@std@@V?$allocator@D@2@@std@@@2@V?$allocator@U?$pair@$$CBV?$basic_string@DU?$char_traits@D@std@@V?$allocator@D@2@@std@@_N@std@@@2@$0A@@std@@@2@ABV?$basic_string@DU?$char_traits@D@std@@V?$allocator@D@2@@2@@Z 00411be0 f i cinder:gl.obj
 0001:00010c70       ?_Rmost@?$_Tree@V?$_Tmap_traits@V?$basic_string@DU?$char_traits@D@std@@V?$allocator@D@2@@std@@V?$multimap@JP6A?AV?$shared_ptr@VImageSource@cinder@@@boost@@V?$shared_ptr@VDataSource@cinder@@@2@VOptions@ImageSource@cinder@@@ZU?$less@J@std@@V?$allocator@U?$pair@$$CBJP6A?AV?$shared_ptr@VImageSource@cinder@@@boost@@V?$shared_ptr@VDataSource@cinder@@@2@VOptions@ImageSource@cinder@@@Z@std@@@8@@2@U?$less@V?$basic_string@DU?$char_traits@D@std@@V?$allocator@D@2@@std@@@2@V?$allocator@U?$pair@$$CBV?$basic_string@DU?$char_traits@D@std@@V?$allocator@D@2@@std@@V?$multimap@JP6A?AV?$shared_ptr@VImageSource@cinder@@@boost@@V?$shared_ptr@VDataSource@cinder@@@2@VOptions@ImageSource@cinder@@@ZU?$less@J@std@@V?$allocator@U?$pair@$$CBJP6A?AV?$shared_ptr@VImageSource@cinder@@@boost@@V?$shared_ptr@VDataSource@cinder@@@2@VOptions@ImageSource@cinder@@@Z@std@@@8@@2@@std@@@2@$0A@@std@@@std@@IBEAAPAU_Node@?$_Tree_nod@V?$_Tmap_traits@V?$basic_string@DU?$char_traits@D@std@@V?$allocator@D@2@@std@@V?$multimap@JP6A?AV?$shared_ptr@VImageSource@cinder@@@boost@@V?$shared_ptr@VDataSource@cinder@@@2@VOptions@ImageSource@cinder@@@ZU?$less@J@std@@V?$allocator@U?$pair@$$CBJP6A?AV?$shared_ptr@VImageSource@cinder@@@boost@@V?$shared_ptr@VDataSource@cinder@@@2@VOptions@ImageSource@cinder@@@Z@std@@@8@@2@U?$less@V?$basic_string@DU?$char_traits@D@std@@V?$allocator@D@2@@std@@@2@V?$allocator@U?$pair@$$CBV?$basic_string@DU?$char_traits@D@std@@V?$allocator@D@2@@std@@V?$multimap@JP6A?AV?$shared_ptr@VImageSource@cinder@@@boost@@V?$shared_ptr@VDataSource@cinder@@@2@VOptions@ImageSource@cinder@@@ZU?$less@J@std@@V?$allocator@U?$pair@$$CBJP6A?AV?$shared_ptr@VImageSource@cinder@@@boost@@V?$shared_ptr@VDataSource@cinder@@@2@VOptions@ImageSource@cinder@@@Z@std@@@8@@2@@std@@@2@$0A@@std@@@2@XZ 00411c70 f i cinder:ImageIo.obj
 0001:00010c70       ?_Rmost@?$_Tree@V?$_Tmap_traits@JU?$pair@P6A?AV?$shared_ptr@VImageTarget@cinder@@@boost@@V?$shared_ptr@VDataTarget@cinder@@@2@V?$shared_ptr@VImageSource@cinder@@@2@VOptions@ImageTarget@cinder@@ABV?$basic_string@DU?$char_traits@D@std@@V?$allocator@D@2@@std@@@ZV89@@std@@U?$less@J@2@V?$allocator@U?$pair@$$CBJU?$pair@P6A?AV?$shared_ptr@VImageTarget@cinder@@@boost@@V?$shared_ptr@VDataTarget@cinder@@@2@V?$shared_ptr@VImageSource@cinder@@@2@VOptions@ImageTarget@cinder@@ABV?$basic_string@DU?$char_traits@D@std@@V?$allocator@D@2@@std@@@ZV89@@std@@@std@@@2@$00@std@@@std@@IBEAAPAU_Node@?$_Tree_nod@V?$_Tmap_traits@JU?$pair@P6A?AV?$shared_ptr@VImageTarget@cinder@@@boost@@V?$shared_ptr@VDataTarget@cinder@@@2@V?$shared_ptr@VImageSource@cinder@@@2@VOptions@ImageTarget@cinder@@ABV?$basic_string@DU?$char_traits@D@std@@V?$allocator@D@2@@std@@@ZV89@@std@@U?$less@J@2@V?$allocator@U?$pair@$$CBJU?$pair@P6A?AV?$shared_ptr@VImageTarget@cinder@@@boost@@V?$shared_ptr@VDataTarget@cinder@@@2@V?$shared_ptr@VImageSource@cinder@@@2@VOptions@ImageTarget@cinder@@ABV?$basic_string@DU?$char_traits@D@std@@V?$allocator@D@2@@std@@@ZV89@@std@@@std@@@2@$00@std@@@2@XZ 00411c70 f i cinder:ImageIo.obj
 0001:00010c70       ?_Rmost@?$_Tree@V?$_Tmap_traits@V?$basic_string@DU?$char_traits@D@std@@V?$allocator@D@2@@std@@PBU_GUID@@U?$less@V?$basic_string@DU?$char_traits@D@std@@V?$allocator@D@2@@std@@@2@V?$allocator@U?$pair@$$CBV?$basic_string@DU?$char_traits@D@std@@V?$allocator@D@2@@std@@PBU_GUID@@@std@@@2@$0A@@std@@@std@@IBEAAPAU_Node@?$_Tree_nod@V?$_Tmap_traits@V?$basic_string@DU?$char_traits@D@std@@V?$allocator@D@2@@std@@PBU_GUID@@U?$less@V?$basic_string@DU?$char_traits@D@std@@V?$allocator@D@2@@std@@@2@V?$allocator@U?$pair@$$CBV?$basic_string@DU?$char_traits@D@std@@V?$allocator@D@2@@std@@PBU_GUID@@@std@@@2@$0A@@std@@@2@XZ 00411c70 f i cinder:ImageTargetFileWic.obj
 0001:00010c70       ?_Rmost@?$_Tree@V?$_Tmap_traits@V?$basic_string@DU?$char_traits@D@std@@V?$allocator@D@2@@std@@_NU?$less@V?$basic_string@DU?$char_traits@D@std@@V?$allocator@D@2@@std@@@2@V?$allocator@U?$pair@$$CBV?$basic_string@DU?$char_traits@D@std@@V?$allocator@D@2@@std@@_N@std@@@2@$0A@@std@@@std@@IBEAAPAU_Node@?$_Tree_nod@V?$_Tmap_traits@V?$basic_string@DU?$char_traits@D@std@@V?$allocator@D@2@@std@@_NU?$less@V?$basic_string@DU?$char_traits@D@std@@V?$allocator@D@2@@std@@@2@V?$allocator@U?$pair@$$CBV?$basic_string@DU?$char_traits@D@std@@V?$allocator@D@2@@std@@_N@std@@@2@$0A@@std@@@2@XZ 00411c70 f i cinder:gl.obj
 0001:00010c70       ?_Rmost@?$_Tree@V?$_Tmap_traits@V?$basic_string@DU?$char_traits@D@std@@V?$allocator@D@2@@std@@V?$multimap@JU?$pair@P6A?AV?$shared_ptr@VImageTarget@cinder@@@boost@@V?$shared_ptr@VDataTarget@cinder@@@2@V?$shared_ptr@VImageSource@cinder@@@2@VOptions@ImageTarget@cinder@@ABV?$basic_string@DU?$char_traits@D@std@@V?$allocator@D@2@@std@@@ZV89@@std@@U?$less@J@2@V?$allocator@U?$pair@$$CBJU?$pair@P6A?AV?$shared_ptr@VImageTarget@cinder@@@boost@@V?$shared_ptr@VDataTarget@cinder@@@2@V?$shared_ptr@VImageSource@cinder@@@2@VOptions@ImageTarget@cinder@@ABV?$basic_string@DU?$char_traits@D@std@@V?$allocator@D@2@@std@@@ZV89@@std@@@std@@@2@@2@U?$less@V?$basic_string@DU?$char_traits@D@std@@V?$allocator@D@2@@std@@@2@V?$allocator@U?$pair@$$CBV?$basic_string@DU?$char_traits@D@std@@V?$allocator@D@2@@std@@V?$multimap@JU?$pair@P6A?AV?$shared_ptr@VImageTarget@cinder@@@boost@@V?$shared_ptr@VDataTarget@cinder@@@2@V?$shared_ptr@VImageSource@cinder@@@2@VOptions@ImageTarget@cinder@@ABV?$basic_string@DU?$char_traits@D@std@@V?$allocator@D@2@@std@@@ZV89@@std@@U?$less@J@2@V?$allocator@U?$pair@$$CBJU?$pair@P6A?AV?$shared_ptr@VImageTarget@cinder@@@boost@@V?$shared_ptr@VDataTarget@cinder@@@2@V?$shared_ptr@VImageSource@cinder@@@2@VOptions@ImageTarget@cinder@@ABV?$basic_string@DU?$char_traits@D@std@@V?$allocator@D@2@@std@@@ZV89@@std@@@std@@@2@@2@@std@@@2@$0A@@std@@@std@@IBEAAPAU_Node@?$_Tree_nod@V?$_Tmap_traits@V?$basic_string@DU?$char_traits@D@std@@V?$allocator@D@2@@std@@V?$multimap@JU?$pair@P6A?AV?$shared_ptr@VImageTarget@cinder@@@boost@@V?$shared_ptr@VDataTarget@cinder@@@2@V?$shared_ptr@VImageSource@cinder@@@2@VOptions@ImageTarget@cinder@@ABV?$basic_string@DU?$char_traits@D@std@@V?$allocator@D@2@@std@@@ZV89@@std@@U?$less@J@2@V?$allocator@U?$pair@$$CBJU?$pair@P6A?AV?$shared_ptr@VImageTarget@cinder@@@boost@@V?$shared_ptr@VDataTarget@cinder@@@2@V?$shared_ptr@VImageSource@cinder@@@2@VOptions@ImageTarget@cinder@@ABV?$basic_string@DU?$char_traits@D@std@@V?$allocator@D@2@@std@@@ZV89@@std@@@std@@@2@@2@U?$less@V?$basic_string@DU?$char_traits@D@std@@V?$allocator@D@2@@std@@@2@V?$allocator@U?$pair@$$CBV?$basic_string@DU?$char_traits@D@std@@V?$allocator@D@2@@std@@V?$multimap@JU?$pair@P6A?AV?$shared_ptr@VImageTarget@cinder@@@boost@@V?$shared_ptr@VDataTarget@cinder@@@2@V?$shared_ptr@VImageSource@cinder@@@2@VOptions@ImageTarget@cinder@@ABV?$basic_string@DU?$char_traits@D@std@@V?$allocator@D@2@@std@@@ZV89@@std@@U?$less@J@2@V?$allocator@U?$pair@$$CBJU?$pair@P6A?AV?$shared_ptr@VImageTarget@cinder@@@boost@@V?$shared_ptr@VDataTarget@cinder@@@2@V?$shared_ptr@VImageSource@cinder@@@2@VOptions@ImageTarget@cinder@@ABV?$basic_string@DU?$char_traits@D@std@@V?$allocator@D@2@@std@@@ZV89@@std@@@std@@@2@@2@@std@@@2@$0A@@std@@@2@XZ 00411c70 f i cinder:ImageIo.obj
 0001:00010c70       ?_Rmost@?$_Tree@V?$_Tmap_traits@JP6A?AV?$shared_ptr@VImageSource@cinder@@@boost@@V?$shared_ptr@VDataSource@cinder@@@2@VOptions@ImageSource@cinder@@@ZU?$less@J@std@@V?$allocator@U?$pair@$$CBJP6A?AV?$shared_ptr@VImageSource@cinder@@@boost@@V?$shared_ptr@VDataSource@cinder@@@2@VOptions@ImageSource@cinder@@@Z@std@@@8@$0A@@std@@@std@@IBEAAPAU_Node@?$_Tree_nod@V?$_Tmap_traits@JP6A?AV?$shared_ptr@VImageSource@cinder@@@boost@@V?$shared_ptr@VDataSource@cinder@@@2@VOptions@ImageSource@cinder@@@ZU?$less@J@std@@V?$allocator@U?$pair@$$CBJP6A?AV?$shared_ptr@VImageSource@cinder@@@boost@@V?$shared_ptr@VDataSource@cinder@@@2@VOptions@ImageSource@cinder@@@Z@std@@@8@$0A@@std@@@2@XZ 00411c70 f i cinder:ImageIo.obj
 0001:00010c70       ?_Rmost@?$_Tree@V?$_Tmap_traits@JP6A?AV?$shared_ptr@VImageSource@cinder@@@boost@@V?$shared_ptr@VDataSource@cinder@@@2@VOptions@ImageSource@cinder@@@ZU?$less@J@std@@V?$allocator@U?$pair@$$CBJP6A?AV?$shared_ptr@VImageSource@cinder@@@boost@@V?$shared_ptr@VDataSource@cinder@@@2@VOptions@ImageSource@cinder@@@Z@std@@@8@$00@std@@@std@@IBEAAPAU_Node@?$_Tree_nod@V?$_Tmap_traits@JP6A?AV?$shared_ptr@VImageSource@cinder@@@boost@@V?$shared_ptr@VDataSource@cinder@@@2@VOptions@ImageSource@cinder@@@ZU?$less@J@std@@V?$allocator@U?$pair@$$CBJP6A?AV?$shared_ptr@VImageSource@cinder@@@boost@@V?$shared_ptr@VDataSource@cinder@@@2@VOptions@ImageSource@cinder@@@Z@std@@@8@$00@std@@@2@XZ 00411c70 f i cinder:ImageIo.obj
 0001:00010c70       ?_Rmost@?$_Tree@V?$_Tmap_traits@KV?$Vec2@M@cinder@@U?$less@K@std@@V?$allocator@U?$pair@$$CBKV?$Vec2@M@cinder@@@std@@@4@$0A@@std@@@std@@IBEAAPAU_Node@?$_Tree_nod@V?$_Tmap_traits@KV?$Vec2@M@cinder@@U?$less@K@std@@V?$allocator@U?$pair@$$CBKV?$Vec2@M@cinder@@@std@@@4@$0A@@std@@@2@XZ 00411c70 f i cinder:AppImplMswBasic.obj
 0001:00010c90       ??Econst_iterator@?$_Tree@V?$_Tmap_traits@V?$basic_string@DU?$char_traits@D@std@@V?$allocator@D@2@@std@@_NU?$less@V?$basic_string@DU?$char_traits@D@std@@V?$allocator@D@2@@std@@@2@V?$allocator@U?$pair@$$CBV?$basic_string@DU?$char_traits@D@std@@V?$allocator@D@2@@std@@_N@std@@@2@$0A@@std@@@std@@QAEAAV012@XZ 00411c90 f i cinder:gl.obj
 0001:00010cb0       ??Fconst_iterator@?$_Tree@V?$_Tmap_traits@V?$basic_string@DU?$char_traits@D@std@@V?$allocator@D@2@@std@@_NU?$less@V?$basic_string@DU?$char_traits@D@std@@V?$allocator@D@2@@std@@@2@V?$allocator@U?$pair@$$CBV?$basic_string@DU?$char_traits@D@std@@V?$allocator@D@2@@std@@_N@std@@@2@$0A@@std@@@std@@QAEAAV012@XZ 00411cb0 f i cinder:gl.obj
 0001:00010cd0       ?_Color@?$_Tree@V?$_Tmap_traits@V?$basic_string@DU?$char_traits@D@std@@V?$allocator@D@2@@std@@PBU_GUID@@U?$less@V?$basic_string@DU?$char_traits@D@std@@V?$allocator@D@2@@std@@@2@V?$allocator@U?$pair@$$CBV?$basic_string@DU?$char_traits@D@std@@V?$allocator@D@2@@std@@PBU_GUID@@@std@@@2@$0A@@std@@@std@@KAAADPAU_Node@?$_Tree_nod@V?$_Tmap_traits@V?$basic_string@DU?$char_traits@D@std@@V?$allocator@D@2@@std@@PBU_GUID@@U?$less@V?$basic_string@DU?$char_traits@D@std@@V?$allocator@D@2@@std@@@2@V?$allocator@U?$pair@$$CBV?$basic_string@DU?$char_traits@D@std@@V?$allocator@D@2@@std@@PBU_GUID@@@std@@@2@$0A@@std@@@2@@Z 00411cd0 f i cinder:ImageTargetFileWic.obj
 0001:00010cd0       ?_Color@?$_Tree@V?$_Tmap_traits@V?$basic_string@DU?$char_traits@D@std@@V?$allocator@D@2@@std@@_NU?$less@V?$basic_string@DU?$char_traits@D@std@@V?$allocator@D@2@@std@@@2@V?$allocator@U?$pair@$$CBV?$basic_string@DU?$char_traits@D@std@@V?$allocator@D@2@@std@@_N@std@@@2@$0A@@std@@@std@@KAAADPAU_Node@?$_Tree_nod@V?$_Tmap_traits@V?$basic_string@DU?$char_traits@D@std@@V?$allocator@D@2@@std@@_NU?$less@V?$basic_string@DU?$char_traits@D@std@@V?$allocator@D@2@@std@@@2@V?$allocator@U?$pair@$$CBV?$basic_string@DU?$char_traits@D@std@@V?$allocator@D@2@@std@@_N@std@@@2@$0A@@std@@@2@@Z 00411cd0 f i cinder:gl.obj
 0001:00010ce0       ?_Lrotate@?$_Tree@V?$_Tmap_traits@V?$basic_string@DU?$char_traits@D@std@@V?$allocator@D@2@@std@@PBU_GUID@@U?$less@V?$basic_string@DU?$char_traits@D@std@@V?$allocator@D@2@@std@@@2@V?$allocator@U?$pair@$$CBV?$basic_string@DU?$char_traits@D@std@@V?$allocator@D@2@@std@@PBU_GUID@@@std@@@2@$0A@@std@@@std@@IAEXPAU_Node@?$_Tree_nod@V?$_Tmap_traits@V?$basic_string@DU?$char_traits@D@std@@V?$allocator@D@2@@std@@PBU_GUID@@U?$less@V?$basic_string@DU?$char_traits@D@std@@V?$allocator@D@2@@std@@@2@V?$allocator@U?$pair@$$CBV?$basic_string@DU?$char_traits@D@std@@V?$allocator@D@2@@std@@PBU_GUID@@@std@@@2@$0A@@std@@@2@@Z 00411ce0 f i cinder:ImageTargetFileWic.obj
 0001:00010ce0       ?_Lrotate@?$_Tree@V?$_Tmap_traits@V?$basic_string@DU?$char_traits@D@std@@V?$allocator@D@2@@std@@_NU?$less@V?$basic_string@DU?$char_traits@D@std@@V?$allocator@D@2@@std@@@2@V?$allocator@U?$pair@$$CBV?$basic_string@DU?$char_traits@D@std@@V?$allocator@D@2@@std@@_N@std@@@2@$0A@@std@@@std@@IAEXPAU_Node@?$_Tree_nod@V?$_Tmap_traits@V?$basic_string@DU?$char_traits@D@std@@V?$allocator@D@2@@std@@_NU?$less@V?$basic_string@DU?$char_traits@D@std@@V?$allocator@D@2@@std@@@2@V?$allocator@U?$pair@$$CBV?$basic_string@DU?$char_traits@D@std@@V?$allocator@D@2@@std@@_N@std@@@2@$0A@@std@@@2@@Z 00411ce0 f i cinder:gl.obj
 0001:00010e10       ?_Rrotate@?$_Tree@V?$_Tmap_traits@V?$basic_string@DU?$char_traits@D@std@@V?$allocator@D@2@@std@@_NU?$less@V?$basic_string@DU?$char_traits@D@std@@V?$allocator@D@2@@std@@@2@V?$allocator@U?$pair@$$CBV?$basic_string@DU?$char_traits@D@std@@V?$allocator@D@2@@std@@_N@std@@@2@$0A@@std@@@std@@IAEXPAU_Node@?$_Tree_nod@V?$_Tmap_traits@V?$basic_string@DU?$char_traits@D@std@@V?$allocator@D@2@@std@@_NU?$less@V?$basic_string@DU?$char_traits@D@std@@V?$allocator@D@2@@std@@@2@V?$allocator@U?$pair@$$CBV?$basic_string@DU?$char_traits@D@std@@V?$allocator@D@2@@std@@_N@std@@@2@$0A@@std@@@2@@Z 00411e10 f i cinder:gl.obj
 0001:00010e10       ?_Rrotate@?$_Tree@V?$_Tmap_traits@V?$basic_string@DU?$char_traits@D@std@@V?$allocator@D@2@@std@@PBU_GUID@@U?$less@V?$basic_string@DU?$char_traits@D@std@@V?$allocator@D@2@@std@@@2@V?$allocator@U?$pair@$$CBV?$basic_string@DU?$char_traits@D@std@@V?$allocator@D@2@@std@@PBU_GUID@@@std@@@2@$0A@@std@@@std@@IAEXPAU_Node@?$_Tree_nod@V?$_Tmap_traits@V?$basic_string@DU?$char_traits@D@std@@V?$allocator@D@2@@std@@PBU_GUID@@U?$less@V?$basic_string@DU?$char_traits@D@std@@V?$allocator@D@2@@std@@@2@V?$allocator@U?$pair@$$CBV?$basic_string@DU?$char_traits@D@std@@V?$allocator@D@2@@std@@PBU_GUID@@@std@@@2@$0A@@std@@@2@@Z 00411e10 f i cinder:ImageTargetFileWic.obj
 0001:00010f40       ?_Buynode@?$_Tree@V?$_Tmap_traits@V?$basic_string@DU?$char_traits@D@std@@V?$allocator@D@2@@std@@_NU?$less@V?$basic_string@DU?$char_traits@D@std@@V?$allocator@D@2@@std@@@2@V?$allocator@U?$pair@$$CBV?$basic_string@DU?$char_traits@D@std@@V?$allocator@D@2@@std@@_N@std@@@2@$0A@@std@@@std@@IAEPAU_Node@?$_Tree_nod@V?$_Tmap_traits@V?$basic_string@DU?$char_traits@D@std@@V?$allocator@D@2@@std@@_NU?$less@V?$basic_string@DU?$char_traits@D@std@@V?$allocator@D@2@@std@@@2@V?$allocator@U?$pair@$$CBV?$basic_string@DU?$char_traits@D@std@@V?$allocator@D@2@@std@@_N@std@@@2@$0A@@std@@@2@PAU342@00ABU?$pair@$$CBV?$basic_string@DU?$char_traits@D@std@@V?$allocator@D@2@@std@@_N@2@D@Z 00411f40 f i cinder:gl.obj
 0001:00011030       ?_Dec@const_iterator@?$_Tree@V?$_Tmap_traits@V?$basic_string@DU?$char_traits@D@std@@V?$allocator@D@2@@std@@_NU?$less@V?$basic_string@DU?$char_traits@D@std@@V?$allocator@D@2@@std@@@2@V?$allocator@U?$pair@$$CBV?$basic_string@DU?$char_traits@D@std@@V?$allocator@D@2@@std@@_N@std@@@2@$0A@@std@@@std@@QAEXXZ 00412030 f i cinder:gl.obj
 0001:00011160       ?_Inc@const_iterator@?$_Tree@V?$_Tmap_traits@V?$basic_string@DU?$char_traits@D@std@@V?$allocator@D@2@@std@@_NU?$less@V?$basic_string@DU?$char_traits@D@std@@V?$allocator@D@2@@std@@@2@V?$allocator@U?$pair@$$CBV?$basic_string@DU?$char_traits@D@std@@V?$allocator@D@2@@std@@_N@std@@@2@$0A@@std@@@std@@QAEXXZ 00412160 f i cinder:gl.obj
 0001:00011240       ??Fiterator@?$_Tree@V?$_Tmap_traits@V?$basic_string@DU?$char_traits@D@std@@V?$allocator@D@2@@std@@_NU?$less@V?$basic_string@DU?$char_traits@D@std@@V?$allocator@D@2@@std@@@2@V?$allocator@U?$pair@$$CBV?$basic_string@DU?$char_traits@D@std@@V?$allocator@D@2@@std@@_N@std@@@2@$0A@@std@@@std@@QAEAAV012@XZ 00412240 f i cinder:gl.obj
 0001:00011260       ?_Min@?$_Tree@V?$_Tmap_traits@V?$basic_string@DU?$char_traits@D@std@@V?$allocator@D@2@@std@@PBU_GUID@@U?$less@V?$basic_string@DU?$char_traits@D@std@@V?$allocator@D@2@@std@@@2@V?$allocator@U?$pair@$$CBV?$basic_string@DU?$char_traits@D@std@@V?$allocator@D@2@@std@@PBU_GUID@@@std@@@2@$0A@@std@@@std@@KAPAU_Node@?$_Tree_nod@V?$_Tmap_traits@V?$basic_string@DU?$char_traits@D@std@@V?$allocator@D@2@@std@@PBU_GUID@@U?$less@V?$basic_string@DU?$char_traits@D@std@@V?$allocator@D@2@@std@@@2@V?$allocator@U?$pair@$$CBV?$basic_string@DU?$char_traits@D@std@@V?$allocator@D@2@@std@@PBU_GUID@@@std@@@2@$0A@@std@@@2@PAU342@@Z 00412260 f i cinder:ImageTargetFileWic.obj
 0001:00011260       ?_Min@?$_Tree@V?$_Tmap_traits@V?$basic_string@DU?$char_traits@D@std@@V?$allocator@D@2@@std@@_NU?$less@V?$basic_string@DU?$char_traits@D@std@@V?$allocator@D@2@@std@@@2@V?$allocator@U?$pair@$$CBV?$basic_string@DU?$char_traits@D@std@@V?$allocator@D@2@@std@@_N@std@@@2@$0A@@std@@@std@@KAPAU_Node@?$_Tree_nod@V?$_Tmap_traits@V?$basic_string@DU?$char_traits@D@std@@V?$allocator@D@2@@std@@_NU?$less@V?$basic_string@DU?$char_traits@D@std@@V?$allocator@D@2@@std@@@2@V?$allocator@U?$pair@$$CBV?$basic_string@DU?$char_traits@D@std@@V?$allocator@D@2@@std@@_N@std@@@2@$0A@@std@@@2@PAU342@@Z 00412260 f i cinder:gl.obj
 0001:000112a0       ?max_size@?$allocator@U?$pair@$$CBV?$basic_string@DU?$char_traits@D@std@@V?$allocator@D@2@@std@@PBU_GUID@@@std@@@std@@QBEIXZ 004122a0 f i cinder:ImageTargetFileWic.obj
 0001:000112a0       ?max_size@?$allocator@U?$pair@$$CBV?$basic_string@DU?$char_traits@D@std@@V?$allocator@D@2@@std@@_N@std@@@std@@QBEIXZ 004122a0 f i cinder:gl.obj
 0001:000112d0       ?allocate@?$allocator@VPath2d@cinder@@@std@@QAEPAVPath2d@cinder@@I@Z 004122d0 f i cinder:Font.obj
 0001:000112d0       ?allocate@?$allocator@U_Node@?$_Tree_nod@V?$_Tmap_traits@V?$basic_string@DU?$char_traits@D@std@@V?$allocator@D@2@@std@@PBU_GUID@@U?$less@V?$basic_string@DU?$char_traits@D@std@@V?$allocator@D@2@@std@@@2@V?$allocator@U?$pair@$$CBV?$basic_string@DU?$char_traits@D@std@@V?$allocator@D@2@@std@@PBU_GUID@@@std@@@2@$0A@@std@@@std@@@std@@QAEPAU_Node@?$_Tree_nod@V?$_Tmap_traits@V?$basic_string@DU?$char_traits@D@std@@V?$allocator@D@2@@std@@PBU_GUID@@U?$less@V?$basic_string@DU?$char_traits@D@std@@V?$allocator@D@2@@std@@@2@V?$allocator@U?$pair@$$CBV?$basic_string@DU?$char_traits@D@std@@V?$allocator@D@2@@std@@PBU_GUID@@@std@@@2@$0A@@std@@@2@I@Z 004122d0 f i cinder:ImageTargetFileWic.obj
 0001:000112d0       ?allocate@?$allocator@U_Node@?$_Tree_nod@V?$_Tmap_traits@V?$basic_string@DU?$char_traits@D@std@@V?$allocator@D@2@@std@@_NU?$less@V?$basic_string@DU?$char_traits@D@std@@V?$allocator@D@2@@std@@@2@V?$allocator@U?$pair@$$CBV?$basic_string@DU?$char_traits@D@std@@V?$allocator@D@2@@std@@_N@std@@@2@$0A@@std@@@std@@@std@@QAEPAU_Node@?$_Tree_nod@V?$_Tmap_traits@V?$basic_string@DU?$char_traits@D@std@@V?$allocator@D@2@@std@@_NU?$less@V?$basic_string@DU?$char_traits@D@std@@V?$allocator@D@2@@std@@@2@V?$allocator@U?$pair@$$CBV?$basic_string@DU?$char_traits@D@std@@V?$allocator@D@2@@std@@_N@std@@@2@$0A@@std@@@2@I@Z 004122d0 f i cinder:gl.obj
 0001:000112f0       ??0_Node@?$_Tree_nod@V?$_Tmap_traits@V?$basic_string@DU?$char_traits@D@std@@V?$allocator@D@2@@std@@_NU?$less@V?$basic_string@DU?$char_traits@D@std@@V?$allocator@D@2@@std@@@2@V?$allocator@U?$pair@$$CBV?$basic_string@DU?$char_traits@D@std@@V?$allocator@D@2@@std@@_N@std@@@2@$0A@@std@@@std@@QAE@PAU012@00ABU?$pair@$$CBV?$basic_string@DU?$char_traits@D@std@@V?$allocator@D@2@@std@@_N@2@D@Z 004122f0 f i cinder:gl.obj
 0001:00011340       ??0?$pair@$$CBV?$basic_string@DU?$char_traits@D@std@@V?$allocator@D@2@@std@@_N@std@@QAE@ABU01@@Z 00412340 f i cinder:gl.obj
 0001:00011370       ??4?$Matrix44@M@cinder@@QAEAAV01@ABV01@@Z 00412370 f i cinder:Camera.obj
 0001:00011370       ??0?$Matrix44@M@cinder@@QAE@ABV01@@Z 00412370 f i cinder:gl.obj
 0001:000113a0       ??0?$Matrix44@M@cinder@@QAE@XZ 004123a0 f i cinder:gl.obj
 0001:000113c0       ??$?DMM@cinder@@YA?AV?$Vec3@M@0@ABV10@M@Z 004123c0 f i cinder:gl.obj
 0001:00011410       ??$max@H@std@@YAABHABH0@Z  00412410 f i cinder:gl.obj
 0001:00011440       ??$min@H@std@@YAABHABH0@Z  00412440 f i cinder:gl.obj
 0001:00011470       ??$lerp@MM@cinder@@YAMABM0M@Z 00412470 f i cinder:gl.obj
 0001:00011490       ??$?MDU?$char_traits@D@std@@V?$allocator@D@1@@std@@YA_NABV?$basic_string@DU?$char_traits@D@std@@V?$allocator@D@2@@0@0@Z 00412490 f i cinder:gl.obj
 0001:000114b0       ?compare@?$basic_string@DU?$char_traits@D@std@@V?$allocator@D@2@@std@@QBEHABV12@@Z 004124b0 f i cinder:gl.obj
 0001:000114e0       ?compare@?$basic_string@DU?$char_traits@D@std@@V?$allocator@D@2@@std@@QBEHIIPBDI@Z 004124e0 f i cinder:gl.obj
 0001:00011590       ?compare@?$char_traits@D@std@@SAHPBD0I@Z 00412590 f i cinder:gl.obj
 0001:000115d0       ??$_Allocate@U_Node@?$_Tree_nod@V?$_Tmap_traits@V?$basic_string@DU?$char_traits@D@std@@V?$allocator@D@2@@std@@PBU_GUID@@U?$less@V?$basic_string@DU?$char_traits@D@std@@V?$allocator@D@2@@std@@@2@V?$allocator@U?$pair@$$CBV?$basic_string@DU?$char_traits@D@std@@V?$allocator@D@2@@std@@PBU_GUID@@@std@@@2@$0A@@std@@@std@@@std@@YAPAU_Node@?$_Tree_nod@V?$_Tmap_traits@V?$basic_string@DU?$char_traits@D@std@@V?$allocator@D@2@@std@@PBU_GUID@@U?$less@V?$basic_string@DU?$char_traits@D@std@@V?$allocator@D@2@@std@@@2@V?$allocator@U?$pair@$$CBV?$basic_string@DU?$char_traits@D@std@@V?$allocator@D@2@@std@@PBU_GUID@@@std@@@2@$0A@@std@@@0@IPAU120@@Z 004125d0 f i cinder:ImageTargetFileWic.obj
 0001:000115d0       ??$_Allocate@U_Node@?$_Tree_nod@V?$_Tmap_traits@V?$basic_string@DU?$char_traits@D@std@@V?$allocator@D@2@@std@@_NU?$less@V?$basic_string@DU?$char_traits@D@std@@V?$allocator@D@2@@std@@@2@V?$allocator@U?$pair@$$CBV?$basic_string@DU?$char_traits@D@std@@V?$allocator@D@2@@std@@_N@std@@@2@$0A@@std@@@std@@@std@@YAPAU_Node@?$_Tree_nod@V?$_Tmap_traits@V?$basic_string@DU?$char_traits@D@std@@V?$allocator@D@2@@std@@_NU?$less@V?$basic_string@DU?$char_traits@D@std@@V?$allocator@D@2@@std@@@2@V?$allocator@U?$pair@$$CBV?$basic_string@DU?$char_traits@D@std@@V?$allocator@D@2@@std@@_N@std@@@2@$0A@@std@@@0@IPAU120@@Z 004125d0 f i cinder:gl.obj
 0001:000115d0       ??$_Allocate@VPath2d@cinder@@@std@@YAPAVPath2d@cinder@@IPAV12@@Z 004125d0 f i cinder:Font.obj
 0001:00011620       ?setToIdentity@?$Matrix44@M@cinder@@QAEXXZ 00412620 f i cinder:gl.obj
 0001:000116b0       ?destroy@?$allocator@U_Node@?$_Tree_nod@V?$_Tmap_traits@JP6A?AV?$shared_ptr@VImageSource@cinder@@@boost@@V?$shared_ptr@VDataSource@cinder@@@2@VOptions@ImageSource@cinder@@@ZU?$less@J@std@@V?$allocator@U?$pair@$$CBJP6A?AV?$shared_ptr@VImageSource@cinder@@@boost@@V?$shared_ptr@VDataSource@cinder@@@2@VOptions@ImageSource@cinder@@@Z@std@@@8@$0A@@std@@@std@@@std@@QAEXPAU_Node@?$_Tree_nod@V?$_Tmap_traits@JP6A?AV?$shared_ptr@VImageSource@cinder@@@boost@@V?$shared_ptr@VDataSource@cinder@@@2@VOptions@ImageSource@cinder@@@ZU?$less@J@std@@V?$allocator@U?$pair@$$CBJP6A?AV?$shared_ptr@VImageSource@cinder@@@boost@@V?$shared_ptr@VDataSource@cinder@@@2@VOptions@ImageSource@cinder@@@Z@std@@@8@$0A@@std@@@2@@Z 004126b0 f i cinder:ImageIo.obj
 0001:000116b0       ?destroy@?$allocator@PAU_Node@?$_Tree_nod@V?$_Tmap_traits@V?$basic_string@DU?$char_traits@D@std@@V?$allocator@D@2@@std@@PBU_GUID@@U?$less@V?$basic_string@DU?$char_traits@D@std@@V?$allocator@D@2@@std@@@2@V?$allocator@U?$pair@$$CBV?$basic_string@DU?$char_traits@D@std@@V?$allocator@D@2@@std@@PBU_GUID@@@std@@@2@$0A@@std@@@std@@@std@@QAEXPAPAU_Node@?$_Tree_nod@V?$_Tmap_traits@V?$basic_string@DU?$char_traits@D@std@@V?$allocator@D@2@@std@@PBU_GUID@@U?$less@V?$basic_string@DU?$char_traits@D@std@@V?$allocator@D@2@@std@@@2@V?$allocator@U?$pair@$$CBV?$basic_string@DU?$char_traits@D@std@@V?$allocator@D@2@@std@@PBU_GUID@@@std@@@2@$0A@@std@@@2@@Z 004126b0 f i cinder:ImageTargetFileWic.obj
 0001:000116b0       ?destroy@?$allocator@VTouch@TouchEvent@app@cinder@@@std@@QAEXPAVTouch@TouchEvent@app@cinder@@@Z 004126b0 f i basicApp.obj
 0001:000116b0       ?destroy@?$allocator@W4SegmentType@Path2d@cinder@@@std@@QAEXPAW4SegmentType@Path2d@cinder@@@Z 004126b0 f i cinder:Path2D.obj
 0001:000116b0       ?destroy@?$allocator@PAU_Node@?$_Tree_nod@V?$_Tmap_traits@JP6A?AV?$shared_ptr@VImageSource@cinder@@@boost@@V?$shared_ptr@VDataSource@cinder@@@2@VOptions@ImageSource@cinder@@@ZU?$less@J@std@@V?$allocator@U?$pair@$$CBJP6A?AV?$shared_ptr@VImageSource@cinder@@@boost@@V?$shared_ptr@VDataSource@cinder@@@2@VOptions@ImageSource@cinder@@@Z@std@@@8@$00@std@@@std@@@std@@QAEXPAPAU_Node@?$_Tree_nod@V?$_Tmap_traits@JP6A?AV?$shared_ptr@VImageSource@cinder@@@boost@@V?$shared_ptr@VDataSource@cinder@@@2@VOptions@ImageSource@cinder@@@ZU?$less@J@std@@V?$allocator@U?$pair@$$CBJP6A?AV?$shared_ptr@VImageSource@cinder@@@boost@@V?$shared_ptr@VDataSource@cinder@@@2@VOptions@ImageSource@cinder@@@Z@std@@@8@$00@std@@@2@@Z 004126b0 f i cinder:ImageIo.obj
 0001:000116b0       ?destroy@?$allocator@U?$pair@W4CustomAttr@Layout@VboMesh@gl@cinder@@I@std@@@std@@QAEXPAU?$pair@W4CustomAttr@Layout@VboMesh@gl@cinder@@I@2@@Z 004126b0 f i cinder:VBO.obj
 0001:000116b0       ?destroy@?$allocator@U?$pair@GV?$Vec2@M@cinder@@@std@@@std@@QAEXPAU?$pair@GV?$Vec2@M@cinder@@@2@@Z 004126b0 f i cinder:Text.obj
 0001:000116b0       ?destroy@?$allocator@PAV?$shared_ptr@VLine@cinder@@@boost@@@std@@QAEXPAPAV?$shared_ptr@VLine@cinder@@@boost@@@Z 004126b0 f i cinder:Text.obj
 0001:000116b0       ?destroy@?$allocator@U_Node@?$_List_nod@V?$Vec2@M@cinder@@V?$allocator@V?$Vec2@M@cinder@@@std@@@std@@@std@@QAEXPAU_Node@?$_List_nod@V?$Vec2@M@cinder@@V?$allocator@V?$Vec2@M@cinder@@@std@@@2@@Z 004126b0 f i basicApp.obj
 0001:000116b0       ?destroy@?$allocator@V?$Vec2@M@cinder@@@std@@QAEXPAV?$Vec2@M@cinder@@@Z 004126b0 f i cinder:gl.obj
 0001:000116b0       ?destroy@?$allocator@U?$pair@GG@std@@@std@@QAEXPAU?$pair@GG@2@@Z 004126b0 f i cinder:Font.obj
 0001:000116b0       ?destroy@?$allocator@PAU_Node@?$_Tree_nod@V?$_Tmap_traits@V?$basic_string@DU?$char_traits@D@std@@V?$allocator@D@2@@std@@V?$multimap@JP6A?AV?$shared_ptr@VImageSource@cinder@@@boost@@V?$shared_ptr@VDataSource@cinder@@@2@VOptions@ImageSource@cinder@@@ZU?$less@J@std@@V?$allocator@U?$pair@$$CBJP6A?AV?$shared_ptr@VImageSource@cinder@@@boost@@V?$shared_ptr@VDataSource@cinder@@@2@VOptions@ImageSource@cinder@@@Z@std@@@8@@2@U?$less@V?$basic_string@DU?$char_traits@D@std@@V?$allocator@D@2@@std@@@2@V?$allocator@U?$pair@$$CBV?$basic_string@DU?$char_traits@D@std@@V?$allocator@D@2@@std@@V?$multimap@JP6A?AV?$shared_ptr@VImageSource@cinder@@@boost@@V?$shared_ptr@VDataSource@cinder@@@2@VOptions@ImageSource@cinder@@@ZU?$less@J@std@@V?$allocator@U?$pair@$$CBJP6A?AV?$shared_ptr@VImageSource@cinder@@@boost@@V?$shared_ptr@VDataSource@cinder@@@2@VOptions@ImageSource@cinder@@@Z@std@@@8@@2@@std@@@2@$0A@@std@@@std@@@std@@QAEXPAPAU_Node@?$_Tree_nod@V?$_Tmap_traits@V?$basic_string@DU?$char_traits@D@std@@V?$allocator@D@2@@std@@V?$multimap@JP6A?AV?$shared_ptr@VImageSource@cinder@@@boost@@V?$shared_ptr@VDataSource@cinder@@@2@VOptions@ImageSource@cinder@@@ZU?$less@J@std@@V?$allocator@U?$pair@$$CBJP6A?AV?$shared_ptr@VImageSource@cinder@@@boost@@V?$shared_ptr@VDataSource@cinder@@@2@VOptions@ImageSource@cinder@@@Z@std@@@8@@2@U?$less@V?$basic_string@DU?$char_traits@D@std@@V?$allocator@D@2@@std@@@2@V?$allocator@U?$pair@$$CBV?$basic_string@DU?$char_traits@D@std@@V?$allocator@D@2@@std@@V?$multimap@JP6A?AV?$shared_ptr@VImageSource@cinder@@@boost@@V?$shared_ptr@VDataSource@cinder@@@2@VOptions@ImageSource@cinder@@@ZU?$less@J@std@@V?$allocator@U?$pair@$$CBJP6A?AV?$shared_ptr@VImageSource@cinder@@@boost@@V?$shared_ptr@VDataSource@cinder@@@2@VOptions@ImageSource@cinder@@@Z@std@@@8@@2@@std@@@2@$0A@@std@@@2@@Z 004126b0 f i cinder:ImageIo.obj
 0001:000116b0       ?destroy@?$allocator@PAU_Node@?$_Tree_nod@V?$_Tmap_traits@KV?$Vec2@M@cinder@@U?$less@K@std@@V?$allocator@U?$pair@$$CBKV?$Vec2@M@cinder@@@std@@@4@$0A@@std@@@std@@@std@@QAEXPAPAU_Node@?$_Tree_nod@V?$_Tmap_traits@KV?$Vec2@M@cinder@@U?$less@K@std@@V?$allocator@U?$pair@$$CBKV?$Vec2@M@cinder@@@std@@@4@$0A@@std@@@2@@Z 004126b0 f i cinder:AppImplMswBasic.obj
 0001:000116b0       ?destroy@?$allocator@U_Node@?$_Tree_nod@V?$_Tmap_traits@JP6A?AV?$shared_ptr@VImageSource@cinder@@@boost@@V?$shared_ptr@VDataSource@cinder@@@2@VOptions@ImageSource@cinder@@@ZU?$less@J@std@@V?$allocator@U?$pair@$$CBJP6A?AV?$shared_ptr@VImageSource@cinder@@@boost@@V?$shared_ptr@VDataSource@cinder@@@2@VOptions@ImageSource@cinder@@@Z@std@@@8@$00@std@@@std@@@std@@QAEXPAU_Node@?$_Tree_nod@V?$_Tmap_traits@JP6A?AV?$shared_ptr@VImageSource@cinder@@@boost@@V?$shared_ptr@VDataSource@cinder@@@2@VOptions@ImageSource@cinder@@@ZU?$less@J@std@@V?$allocator@U?$pair@$$CBJP6A?AV?$shared_ptr@VImageSource@cinder@@@boost@@V?$shared_ptr@VDataSource@cinder@@@2@VOptions@ImageSource@cinder@@@Z@std@@@8@$00@std@@@2@@Z 004126b0 f i cinder:ImageIo.obj
 0001:000116b0       ?destroy@?$allocator@PAU_Node@?$_Tree_nod@V?$_Tmap_traits@JP6A?AV?$shared_ptr@VImageSource@cinder@@@boost@@V?$shared_ptr@VDataSource@cinder@@@2@VOptions@ImageSource@cinder@@@ZU?$less@J@std@@V?$allocator@U?$pair@$$CBJP6A?AV?$shared_ptr@VImageSource@cinder@@@boost@@V?$shared_ptr@VDataSource@cinder@@@2@VOptions@ImageSource@cinder@@@Z@std@@@8@$0A@@std@@@std@@@std@@QAEXPAPAU_Node@?$_Tree_nod@V?$_Tmap_traits@JP6A?AV?$shared_ptr@VImageSource@cinder@@@boost@@V?$shared_ptr@VDataSource@cinder@@@2@VOptions@ImageSource@cinder@@@ZU?$less@J@std@@V?$allocator@U?$pair@$$CBJP6A?AV?$shared_ptr@VImageSource@cinder@@@boost@@V?$shared_ptr@VDataSource@cinder@@@2@VOptions@ImageSource@cinder@@@Z@std@@@8@$0A@@std@@@2@@Z 004126b0 f i cinder:ImageIo.obj
 0001:000116b0       ?destroy@?$allocator@PAU_Node@?$_List_nod@V?$Vec2@M@cinder@@V?$allocator@V?$Vec2@M@cinder@@@std@@@std@@@std@@QAEXPAPAU_Node@?$_List_nod@V?$Vec2@M@cinder@@V?$allocator@V?$Vec2@M@cinder@@@std@@@2@@Z 004126b0 f i basicApp.obj
 0001:000116b0       ?destroy@?$allocator@PAU_Node@?$_Tree_nod@V?$_Tmap_traits@V?$basic_string@DU?$char_traits@D@std@@V?$allocator@D@2@@std@@V?$multimap@JU?$pair@P6A?AV?$shared_ptr@VImageTarget@cinder@@@boost@@V?$shared_ptr@VDataTarget@cinder@@@2@V?$shared_ptr@VImageSource@cinder@@@2@VOptions@ImageTarget@cinder@@ABV?$basic_string@DU?$char_traits@D@std@@V?$allocator@D@2@@std@@@ZV89@@std@@U?$less@J@2@V?$allocator@U?$pair@$$CBJU?$pair@P6A?AV?$shared_ptr@VImageTarget@cinder@@@boost@@V?$shared_ptr@VDataTarget@cinder@@@2@V?$shared_ptr@VImageSource@cinder@@@2@VOptions@ImageTarget@cinder@@ABV?$basic_string@DU?$char_traits@D@std@@V?$allocator@D@2@@std@@@ZV89@@std@@@std@@@2@@2@U?$less@V?$basic_string@DU?$char_traits@D@std@@V?$allocator@D@2@@std@@@2@V?$allocator@U?$pair@$$CBV?$basic_string@DU?$char_traits@D@std@@V?$allocator@D@2@@std@@V?$multimap@JU?$pair@P6A?AV?$shared_ptr@VImageTarget@cinder@@@boost@@V?$shared_ptr@VDataTarget@cinder@@@2@V?$shared_ptr@VImageSource@cinder@@@2@VOptions@ImageTarget@cinder@@ABV?$basic_string@DU?$char_traits@D@std@@V?$allocator@D@2@@std@@@ZV89@@std@@U?$less@J@2@V?$allocator@U?$pair@$$CBJU?$pair@P6A?AV?$shared_ptr@VImageTarget@cinder@@@boost@@V?$shared_ptr@VDataTarget@cinder@@@2@V?$shared_ptr@VImageSource@cinder@@@2@VOptions@ImageTarget@cinder@@ABV?$basic_string@DU?$char_traits@D@std@@V?$allocator@D@2@@std@@@ZV89@@std@@@std@@@2@@2@@std@@@2@$0A@@std@@@std@@@std@@QAEXPAPAU_Node@?$_Tree_nod@V?$_Tmap_traits@V?$basic_string@DU?$char_traits@D@std@@V?$allocator@D@2@@std@@V?$multimap@JU?$pair@P6A?AV?$shared_ptr@VImageTarget@cinder@@@boost@@V?$shared_ptr@VDataTarget@cinder@@@2@V?$shared_ptr@VImageSource@cinder@@@2@VOptions@ImageTarget@cinder@@ABV?$basic_string@DU?$char_traits@D@std@@V?$allocator@D@2@@std@@@ZV89@@std@@U?$less@J@2@V?$allocator@U?$pair@$$CBJU?$pair@P6A?AV?$shared_ptr@VImageTarget@cinder@@@boost@@V?$shared_ptr@VDataTarget@cinder@@@2@V?$shared_ptr@VImageSource@cinder@@@2@VOptions@ImageTarget@cinder@@ABV?$basic_string@DU?$char_traits@D@std@@V?$allocator@D@2@@std@@@ZV89@@std@@@std@@@2@@2@U?$less@V?$basic_string@DU?$char_traits@D@std@@V?$allocator@D@2@@std@@@2@V?$allocator@U?$pair@$$CBV?$basic_string@DU?$char_traits@D@std@@V?$allocator@D@2@@std@@V?$multimap@JU?$pair@P6A?AV?$shared_ptr@VImageTarget@cinder@@@boost@@V?$shared_ptr@VDataTarget@cinder@@@2@V?$shared_ptr@VImageSource@cinder@@@2@VOptions@ImageTarget@cinder@@ABV?$basic_string@DU?$char_traits@D@std@@V?$allocator@D@2@@std@@@ZV89@@std@@U?$less@J@2@V?$allocator@U?$pair@$$CBJU?$pair@P6A?AV?$shared_ptr@VImageTarget@cinder@@@boost@@V?$shared_ptr@VDataTarget@cinder@@@2@V?$shared_ptr@VImageSource@cinder@@@2@VOptions@ImageTarget@cinder@@ABV?$basic_string@DU?$char_traits@D@std@@V?$allocator@D@2@@std@@@ZV89@@std@@@std@@@2@@2@@std@@@2@$0A@@std@@@2@@Z 004126b0 f i cinder:ImageIo.obj
 0001:000116b0       ?destroy@?$allocator@PAU_Node@?$_Tree_nod@V?$_Tmap_traits@JU?$pair@P6A?AV?$shared_ptr@VImageTarget@cinder@@@boost@@V?$shared_ptr@VDataTarget@cinder@@@2@V?$shared_ptr@VImageSource@cinder@@@2@VOptions@ImageTarget@cinder@@ABV?$basic_string@DU?$char_traits@D@std@@V?$allocator@D@2@@std@@@ZV89@@std@@U?$less@J@2@V?$allocator@U?$pair@$$CBJU?$pair@P6A?AV?$shared_ptr@VImageTarget@cinder@@@boost@@V?$shared_ptr@VDataTarget@cinder@@@2@V?$shared_ptr@VImageSource@cinder@@@2@VOptions@ImageTarget@cinder@@ABV?$basic_string@DU?$char_traits@D@std@@V?$allocator@D@2@@std@@@ZV89@@std@@@std@@@2@$00@std@@@std@@@std@@QAEXPAPAU_Node@?$_Tree_nod@V?$_Tmap_traits@JU?$pair@P6A?AV?$shared_ptr@VImageTarget@cinder@@@boost@@V?$shared_ptr@VDataTarget@cinder@@@2@V?$shared_ptr@VImageSource@cinder@@@2@VOptions@ImageTarget@cinder@@ABV?$basic_string@DU?$char_traits@D@std@@V?$allocator@D@2@@std@@@ZV89@@std@@U?$less@J@2@V?$allocator@U?$pair@$$CBJU?$pair@P6A?AV?$shared_ptr@VImageTarget@cinder@@@boost@@V?$shared_ptr@VDataTarget@cinder@@@2@V?$shared_ptr@VImageSource@cinder@@@2@VOptions@ImageTarget@cinder@@ABV?$basic_string@DU?$char_traits@D@std@@V?$allocator@D@2@@std@@@ZV89@@std@@@std@@@2@$00@std@@@2@@Z 004126b0 f i cinder:ImageIo.obj
 0001:000116b0       ?destroy@?$allocator@PAU_Node@?$_Tree_nod@V?$_Tmap_traits@V?$basic_string@DU?$char_traits@D@std@@V?$allocator@D@2@@std@@_NU?$less@V?$basic_string@DU?$char_traits@D@std@@V?$allocator@D@2@@std@@@2@V?$allocator@U?$pair@$$CBV?$basic_string@DU?$char_traits@D@std@@V?$allocator@D@2@@std@@_N@std@@@2@$0A@@std@@@std@@@std@@QAEXPAPAU_Node@?$_Tree_nod@V?$_Tmap_traits@V?$basic_string@DU?$char_traits@D@std@@V?$allocator@D@2@@std@@_NU?$less@V?$basic_string@DU?$char_traits@D@std@@V?$allocator@D@2@@std@@@2@V?$allocator@U?$pair@$$CBV?$basic_string@DU?$char_traits@D@std@@V?$allocator@D@2@@std@@_N@std@@@2@$0A@@std@@@2@@Z 004126b0 f i cinder:gl.obj
 0001:000116b0       ?destroy@?$allocator@U_Node@?$_Tree_nod@V?$_Tmap_traits@KV?$Vec2@M@cinder@@U?$less@K@std@@V?$allocator@U?$pair@$$CBKV?$Vec2@M@cinder@@@std@@@4@$0A@@std@@@std@@@std@@QAEXPAU_Node@?$_Tree_nod@V?$_Tmap_traits@KV?$Vec2@M@cinder@@U?$less@K@std@@V?$allocator@U?$pair@$$CBKV?$Vec2@M@cinder@@@std@@@4@$0A@@std@@@2@@Z 004126b0 f i cinder:AppImplMswBasic.obj
 0001:000116d0       ??1?$map@V?$basic_string@DU?$char_traits@D@std@@V?$allocator@D@2@@std@@_NU?$less@V?$basic_string@DU?$char_traits@D@std@@V?$allocator@D@2@@std@@@2@V?$allocator@U?$pair@$$CBV?$basic_string@DU?$char_traits@D@std@@V?$allocator@D@2@@std@@_N@std@@@2@@std@@QAE@XZ 004126d0 f i cinder:gl.obj
 0001:000116f0       ??1?$_Tree@V?$_Tmap_traits@V?$basic_string@DU?$char_traits@D@std@@V?$allocator@D@2@@std@@_NU?$less@V?$basic_string@DU?$char_traits@D@std@@V?$allocator@D@2@@std@@@2@V?$allocator@U?$pair@$$CBV?$basic_string@DU?$char_traits@D@std@@V?$allocator@D@2@@std@@_N@std@@@2@$0A@@std@@@std@@QAE@XZ 004126f0 f i cinder:gl.obj
 0001:00011750       ?_Tidy@?$_Tree@V?$_Tmap_traits@V?$basic_string@DU?$char_traits@D@std@@V?$allocator@D@2@@std@@_NU?$less@V?$basic_string@DU?$char_traits@D@std@@V?$allocator@D@2@@std@@@2@V?$allocator@U?$pair@$$CBV?$basic_string@DU?$char_traits@D@std@@V?$allocator@D@2@@std@@_N@std@@@2@$0A@@std@@@std@@IAEXXZ 00412750 f i cinder:gl.obj
 0001:00011820       ?erase@?$_Tree@V?$_Tmap_traits@V?$basic_string@DU?$char_traits@D@std@@V?$allocator@D@2@@std@@_NU?$less@V?$basic_string@DU?$char_traits@D@std@@V?$allocator@D@2@@std@@@2@V?$allocator@U?$pair@$$CBV?$basic_string@DU?$char_traits@D@std@@V?$allocator@D@2@@std@@_N@std@@@2@$0A@@std@@@std@@QAE?AViterator@12@Vconst_iterator@12@0@Z 00412820 f i cinder:gl.obj
 0001:000118d0       ?_Make_iter@?$_Tree@V?$_Tmap_traits@V?$basic_string@DU?$char_traits@D@std@@V?$allocator@D@2@@std@@_NU?$less@V?$basic_string@DU?$char_traits@D@std@@V?$allocator@D@2@@std@@@2@V?$allocator@U?$pair@$$CBV?$basic_string@DU?$char_traits@D@std@@V?$allocator@D@2@@std@@_N@std@@@2@$0A@@std@@@std@@QBE?AViterator@12@Vconst_iterator@12@@Z 004128d0 f i cinder:gl.obj
 0001:000118d0       ?_Make_iter@?$_Tree@V?$_Tmap_traits@KV?$Vec2@M@cinder@@U?$less@K@std@@V?$allocator@U?$pair@$$CBKV?$Vec2@M@cinder@@@std@@@4@$0A@@std@@@std@@QBE?AViterator@12@Vconst_iterator@12@@Z 004128d0 f i cinder:AppImplMswBasic.obj
 0001:00011900       ?erase@?$_Tree@V?$_Tmap_traits@V?$basic_string@DU?$char_traits@D@std@@V?$allocator@D@2@@std@@_NU?$less@V?$basic_string@DU?$char_traits@D@std@@V?$allocator@D@2@@std@@@2@V?$allocator@U?$pair@$$CBV?$basic_string@DU?$char_traits@D@std@@V?$allocator@D@2@@std@@_N@std@@@2@$0A@@std@@@std@@QAE?AViterator@12@Vconst_iterator@12@@Z 00412900 f i cinder:gl.obj
 0001:000120e0       ??0out_of_range@std@@QAE@ABV?$basic_string@DU?$char_traits@D@std@@V?$allocator@D@2@@1@@Z 004130e0 f i cinder:gl.obj
 0001:00012110       ??1out_of_range@std@@UAE@XZ 00413110 f i cinder:gl.obj
 0001:00012130       ??_Eout_of_range@std@@UAEPAXI@Z 00413130 f i cinder:gl.obj
 0001:00012130       ??_Gout_of_range@std@@UAEPAXI@Z 00413130 f i cinder:gl.obj
 0001:00012160       ??0out_of_range@std@@QAE@ABV01@@Z 00413160 f i cinder:gl.obj
 0001:00012190       ??Econst_iterator@?$_Tree@V?$_Tmap_traits@V?$basic_string@DU?$char_traits@D@std@@V?$allocator@D@2@@std@@_NU?$less@V?$basic_string@DU?$char_traits@D@std@@V?$allocator@D@2@@std@@@2@V?$allocator@U?$pair@$$CBV?$basic_string@DU?$char_traits@D@std@@V?$allocator@D@2@@std@@_N@std@@@2@$0A@@std@@@std@@QAE?AV012@H@Z 00413190 f i cinder:gl.obj
 0001:000121d0       ??$swap@D@std@@YAXAAD0@Z   004131d0 f i cinder:gl.obj
 0001:00012200       ??0AppImplMswRendererGl@app@cinder@@QAE@PAVApp@12@PAVRendererGl@12@@Z 00413200 f   cinder:AppImplMswRendererGl.obj
 0001:00012250       ?prepareToggleFullScreen@AppImplMswRendererGl@app@cinder@@UAEXXZ 00413250 f   cinder:AppImplMswRendererGl.obj
 0001:00012270       ?finishToggleFullScreen@AppImplMswRendererGl@app@cinder@@UAEXXZ 00413270 f   cinder:AppImplMswRendererGl.obj
 0001:000122a0       ?defaultResize@AppImplMswRendererGl@app@cinder@@UBEXXZ 004132a0 f   cinder:AppImplMswRendererGl.obj
 0001:00012420       ?swapBuffers@AppImplMswRendererGl@app@cinder@@UBEXXZ 00413420 f   cinder:AppImplMswRendererGl.obj
 0001:00012440       ?makeCurrentContext@AppImplMswRendererGl@app@cinder@@UAEXXZ 00413440 f   cinder:AppImplMswRendererGl.obj
 0001:00012460       ?createDummyWindow@app@cinder@@YAPAUHWND__@@PAH0_N@Z 00413460 f   cinder:AppImplMswRendererGl.obj
 0001:00012650       ?initialize@AppImplMswRendererGl@app@cinder@@UAE_NPAUHWND__@@PAUHDC__@@@Z 00413650 f   cinder:AppImplMswRendererGl.obj
 0001:00012740       ?initializeInternal@AppImplMswRendererGl@app@cinder@@IAE_NPAUHWND__@@PAUHDC__@@@Z 00413740 f   cinder:AppImplMswRendererGl.obj
 0001:000128b0       ?initMultisample@AppImplMswRendererGl@app@cinder@@IAEHUtagPIXELFORMATDESCRIPTOR@@HPAUHDC__@@@Z 004138b0 f   cinder:AppImplMswRendererGl.obj
 0001:000129f0       ?kill@AppImplMswRendererGl@app@cinder@@UAEXXZ 004139f0 f   cinder:AppImplMswRendererGl.obj
 0001:00012a30       ??0AppImplMswRenderer@app@cinder@@QAE@PAVApp@12@@Z 00413a30 f i cinder:AppImplMswRendererGl.obj
 0001:00012a60       ?getWindowWidth@AppImplMsw@app@cinder@@QBEHXZ 00413a60 f i cinder:AppBasic.obj
 0001:00012a60       ?getWindowWidth@Settings@App@app@cinder@@QBEHXZ 00413a60 f i cinder:AppImplMswBasic.obj
 0001:00012a60       ?getAntiAliasing@RendererGl@app@cinder@@QBEHXZ 00413a60 f i cinder:AppImplMswRendererGl.obj
 0001:00012a60       ?rdstate@ios_base@std@@QBEHXZ 00413a60 f i cinder:App.obj
 0001:00012a60       ?getX2@?$AreaT@J@cinder@@QBEJXZ 00413a60 f i cinder:Surface.obj
 0001:00012a60       ?getHeight@ImageIo@cinder@@QBEJXZ 00413a60 f i cinder:Surface.obj
 0001:00012a60       ?getColorModel@Options@ImageTarget@cinder@@QBE?AW4ColorModel@ImageIo@3@XZ 00413a60 f i cinder:ImageTargetFileWic.obj
 0001:00012a80       ??$flipVertical@E@ip@cinder@@YAXPAV?$SurfaceT@E@1@@Z 00413a80 f i cinder:Flip.obj
 0001:00012b90       ?getData@?$SurfaceT@E@cinder@@QAEPAEABV?$Vec2@H@2@@Z 00413b90 f i cinder:Flip.obj
 0001:00012b90       ?getData@?$SurfaceT@E@cinder@@QBEPBEABV?$Vec2@H@2@@Z 00413b90 f i cinder:Surface.obj
 0001:00012be0       ?getPixelInc@?$SurfaceT@E@cinder@@QBEEXZ 00413be0 f i cinder:Flip.obj
 0001:00012c00       ??0SurfaceChannelOrder@cinder@@QAE@H@Z 00413c00 f   cinder:Surface.obj
 0001:00012da0       ??0SurfaceChannelOrder@cinder@@QAE@ABV01@@Z 00413da0 f   cinder:Surface.obj
 0001:00012e00       ?set@SurfaceChannelOrder@cinder@@AAEXEEEEE@Z 00413e00 f   cinder:Surface.obj
 0001:00012e40       ?getImageIoChannelOrder@SurfaceChannelOrder@cinder@@QBEHXZ 00413e40 f   cinder:Surface.obj
 0001:00012ee0       ?hasAlpha@?$SurfaceT@E@cinder@@QBE_NXZ 00413ee0 f i cinder:Surface.obj
 0001:00012ee0       ?hasAlpha@?$SurfaceT@M@cinder@@QBE_NXZ 00413ee0 f i cinder:Surface.obj
 0001:00012f00       ?hasAlpha@SurfaceChannelOrder@cinder@@QBE_NXZ 00413f00 f i cinder:Surface.obj
 0001:00012f20       ?isPremultiplied@?$SurfaceT@E@cinder@@QBE_NXZ 00413f20 f i cinder:Surface.obj
 0001:00012f40       ?setPremultiplied@?$SurfaceT@E@cinder@@QBE_N_N@Z 00413f40 f i cinder:Surface.obj
 0001:00012f60       ?getRedOffset@SurfaceChannelOrder@cinder@@QBEEXZ 00413f60 f i cinder:Surface.obj
 0001:00012f60       ?isColorModelDefault@Options@ImageTarget@cinder@@QBE_NXZ 00413f60 f i cinder:ImageTargetFileWic.obj
 0001:00012f80       ?getGreenOffset@SurfaceChannelOrder@cinder@@QBEEXZ 00413f80 f i cinder:Surface.obj
 0001:00012fa0       ?getBlueOffset@SurfaceChannelOrder@cinder@@QBEEXZ 00413fa0 f i cinder:Surface.obj
 0001:00012fc0       ?getAlphaOffset@SurfaceChannelOrder@cinder@@QBEEXZ 00413fc0 f i cinder:Surface.obj
 0001:00012fe0       ?getWidth@?$ChannelT@M@cinder@@QBEJXZ 00413fe0 f i cinder:Texture.obj
 0001:00012fe0       ?getWidth@?$SurfaceT@E@cinder@@QBEJXZ 00413fe0 f i cinder:Surface.obj
 0001:00012fe0       ?getData@Buffer@cinder@@QBEPBXXZ 00413fe0 f i cinder:Buffer.obj
 0001:00012fe0       ?getWidth@?$SurfaceT@M@cinder@@QBEJXZ 00413fe0 f i cinder:Surface.obj
 0001:00012fe0       ?getTarget@Vbo@gl@cinder@@QBEIXZ 00413fe0 f i cinder:VBO.obj
 0001:00012fe0       ?getWidth@?$ChannelT@E@cinder@@QBEJXZ 00413fe0 f i cinder:Texture.obj
 0001:00012fe0       ?getData@Buffer@cinder@@QAEPAXXZ 00413fe0 f i cinder:DataSource.obj
 0001:00012fe0       ?getNumIndices@VboMesh@gl@cinder@@QBEIXZ 00413fe0 f i cinder:gl.obj
 0001:00013000       ?getData@?$SurfaceT@E@cinder@@QBEPBEXZ 00414000 f i cinder:Surface.obj
 0001:00013000       ?getData@?$SurfaceT@E@cinder@@QAEPAEXZ 00414000 f i cinder:Renderer.obj
 0001:00013000       ?getData@?$SurfaceT@M@cinder@@QBEPBMXZ 00414000 f i cinder:Surface.obj
 0001:00013020       ?getUL@?$AreaT@J@cinder@@QBE?AV?$Vec2@J@2@XZ 00414020 f i cinder:Surface.obj
 0001:00013050       ??0?$Vec2@J@cinder@@QAE@JJ@Z 00414050 f i cinder:Surface.obj
 0001:00013050       ??0?$Vec2@H@cinder@@QAE@HH@Z 00414050 f i basicApp.obj
 0001:00013080       ??0?$SurfaceT@E@cinder@@QAE@PAEJJJVSurfaceChannelOrder@1@@Z 00414080 f i cinder:Surface.obj
 0001:00013160       ??0?$SurfaceT@E@cinder@@QAE@JJ_NABVSurfaceConstraints@1@@Z 00414160 f i cinder:Surface.obj
 0001:00013290       ??0?$SurfaceT@E@cinder@@QAE@JJ_NVSurfaceChannelOrder@1@@Z 00414290 f i cinder:Surface.obj
 0001:000133f0       ??8SurfaceChannelOrder@cinder@@QBE_NABV01@@Z 004143f0 f i cinder:Surface.obj
 0001:000133f0       ?_Same_container@_Iterator_base_secure@std@@QBE_NABV12@@Z 004143f0 f i cinder:Utilities.obj
 0001:000133f0       ?_Same_container@_Iterator_base_aux@std@@QBE_NABV12@@Z 004143f0 f i basicApp.obj
 0001:00013410       ?setDeallocator@?$SurfaceT@E@cinder@@QAEXP6AXPAX@Z0@Z 00414410 f i cinder:Surface.obj
 0001:00013440       ??0Obj@?$SurfaceT@E@cinder@@QAE@JJVSurfaceChannelOrder@2@PAE_NJ@Z 00414440 f i cinder:Surface.obj
 0001:00013500       ??1Obj@?$SurfaceT@E@cinder@@QAE@XZ 00414500 f i cinder:Surface.obj
 0001:000135a0       ?initChannels@Obj@?$SurfaceT@E@cinder@@QAEXXZ 004145a0 f i cinder:Surface.obj
 0001:000137b0       ?setDeallocator@Obj@?$SurfaceT@E@cinder@@QAEXP6AXPAX@Z0@Z 004147b0 f i cinder:Surface.obj
 0001:000137d0       ??$?4J@?$Vec2@H@cinder@@QAEAAV01@ABV?$Vec2@J@1@@Z 004147d0 f i cinder:Area.obj
 0001:000137d0       ??$?0J@?$Vec2@H@cinder@@QAE@ABV?$Vec2@J@1@@Z 004147d0 f i cinder:Surface.obj
 0001:000137d0       ??4?$Vec2@H@cinder@@QAEAAV01@ABV01@@Z 004147d0 f i cinder:AppImplMswRendererGdi.obj
 0001:000137d0       ??$?0H@?$Vec2@J@cinder@@QAE@ABV?$Vec2@H@1@@Z 004147d0 f i cinder:Surface.obj
 0001:000137d0       ??0?$Vec2@H@cinder@@QAE@ABV01@@Z 004147d0 f i cinder:App.obj
 0001:000137d0       ??$?0JP6A?AV?$shared_ptr@VImageSource@cinder@@@boost@@V?$shared_ptr@VDataSource@cinder@@@1@VOptions@ImageSource@cinder@@@Z@?$pair@$$CBJP6A?AV?$shared_ptr@VImageSource@cinder@@@boost@@V?$shared_ptr@VDataSource@cinder@@@2@VOptions@ImageSource@cinder@@@Z@std@@QAE@ABU?$pair@JP6A?AV?$shared_ptr@VImageSource@cinder@@@boost@@V?$shared_ptr@VDataSource@cinder@@@2@VOptions@ImageSource@cinder@@@Z@1@@Z 004147d0 f i cinder:ImageIo.obj
 0001:00013800       ??$?0UObj@?$SurfaceT@E@cinder@@@?$shared_ptr@UObj@?$SurfaceT@E@cinder@@@boost@@QAE@PAUObj@?$SurfaceT@E@cinder@@@Z 00414800 f i cinder:Surface.obj
 0001:00013880       ?hasAlpha@ImageIo@cinder@@UBE_NXZ 00414880 f i cinder:Surface.obj
 0001:000138a0       ?setColorModel@ImageIo@cinder@@IAEXW4ColorModel@12@@Z 004148a0 f i cinder:Surface.obj
 0001:000138c0       ?setDataType@ImageIo@cinder@@IAEXW4DataType@12@@Z 004148c0 f i cinder:Surface.obj
 0001:000138e0       ?setChannelOrder@ImageIo@cinder@@IAEXW4ChannelOrder@12@@Z 004148e0 f i cinder:Surface.obj
 0001:00013900       ??0ImageSource@cinder@@QAE@XZ 00414900 f i cinder:Surface.obj
 0001:00013930       ??1ImageSource@cinder@@UAE@XZ 00414930 f i cinder:Surface.obj
 0001:00013950       ??_EImageSource@cinder@@UAEPAXI@Z 00414950 f i cinder:Surface.obj
 0001:00013950       ??_GImageSource@cinder@@UAEPAXI@Z 00414950 f i cinder:Surface.obj
 0001:00013980       ??0?$shared_ptr@VDataSource@cinder@@@boost@@QAE@ABV01@@Z 00414980 f i cinder:Font.obj
 0001:00013980       ??0?$shared_ptr@VOStreamFile@cinder@@@boost@@QAE@ABV01@@Z 00414980 f i cinder:Stream.obj
 0001:00013980       ??0?$shared_ptr@UObj@?$ChannelT@E@cinder@@@boost@@QAE@ABV01@@Z 00414980 f i cinder:Surface.obj
 0001:00013980       ??0?$shared_ptr@UObj@Buffer@cinder@@@boost@@QAE@ABV01@@Z 00414980 f i cinder:DataSource.obj
 0001:00013980       ??0?$shared_ptr@UInst@ImageIoRegistrar@cinder@@@boost@@QAE@ABV01@@Z 00414980 f i cinder:ImageIo.obj
 0001:00013980       ??0?$shared_ptr@V?$map@V?$basic_string@DU?$char_traits@D@std@@V?$allocator@D@2@@std@@PBU_GUID@@U?$less@V?$basic_string@DU?$char_traits@D@std@@V?$allocator@D@2@@std@@@2@V?$allocator@U?$pair@$$CBV?$basic_string@DU?$char_traits@D@std@@V?$allocator@D@2@@std@@PBU_GUID@@@std@@@2@@std@@@boost@@QAE@ABV01@@Z 00414980 f i cinder:ImageTargetFileWic.obj
 0001:00013980       ??0?$shared_ptr@VDisplay@cinder@@@boost@@QAE@ABV01@@Z 00414980 f i cinder:Display.obj
 0001:00013980       ??0?$shared_ptr@VImageTarget@cinder@@@boost@@QAE@ABV01@@Z 00414980 f i cinder:Surface.obj
 0001:00013980       ??0?$shared_ptr@VIoStreamFile@cinder@@@boost@@QAE@ABV01@@Z 00414980 f i cinder:Stream.obj
 0001:00013980       ??0?$shared_ptr@UIWICBitmapEncoder@@@boost@@QAE@ABV01@@Z 00414980 f i cinder:ImageTargetFileWic.obj
 0001:00013980       ??0?$shared_ptr@VIStreamUrlImpl@cinder@@@boost@@QAE@ABV01@@Z 00414980 f i cinder:Url.obj
 0001:00013980       ??0?$shared_ptr@UObj@TextureCache@gl@cinder@@@boost@@QAE@ABV01@@Z 00414980 f i cinder:Texture.obj
 0001:00013980       ??0?$shared_ptr@VFont@Gdiplus@@@boost@@QAE@ABV01@@Z 00414980 f i cinder:Font.obj
 0001:00013980       ??0?$shared_ptr@E@boost@@QAE@ABV01@@Z 00414980 f i cinder:Texture.obj
 0001:00013980       ??0?$shared_ptr@UObj@?$SurfaceT@E@cinder@@@boost@@QAE@ABV01@@Z 00414980 f i cinder:Renderer.obj
 0001:00013980       ??0?$shared_ptr@VIStreamFile@cinder@@@boost@@QAE@ABV01@@Z 00414980 f i cinder:Stream.obj
 0001:00013980       ??0?$shared_ptr@UObj@Texture@gl@cinder@@@boost@@QAE@ABV01@@Z 00414980 f i cinder:Texture.obj
 0001:00013980       ??0?$shared_ptr@VImageSource@cinder@@@boost@@QAE@ABV01@@Z 00414980 f i cinder:Surface.obj
 0001:00013980       ??0?$shared_ptr@UObj@VertexIter@VboMesh@gl@cinder@@@boost@@QAE@ABV01@@Z 00414980 f i cinder:VBO.obj
 0001:00013980       ??0?$shared_ptr@Utss_cleanup_function@detail@boost@@@boost@@QAE@ABV01@@Z 00414980 f i cinder:CinderMsw.obj
 0001:00013980       ??0?$shared_ptr@VOStream@cinder@@@boost@@QAE@ABV01@@Z 00414980 f i cinder:DataTarget.obj
 0001:00013980       ??0?$shared_ptr@X@boost@@QAE@ABV01@@Z 00414980 f i cinder:UrlImplWinInet.obj
 0001:00013980       ??0?$shared_ptr@VObj@Font@cinder@@@boost@@QAE@ABV01@@Z 00414980 f i cinder:gl.obj
 0001:00013980       ??0?$shared_ptr@VRenderer@app@cinder@@@boost@@QAE@ABV01@@Z 00414980 f i cinder:App.obj
 0001:00013980       ??0?$shared_ptr@V?$basic_dostream@DU?$char_traits@D@std@@@msw@cinder@@@boost@@QAE@ABV01@@Z 00414980 f i cinder:App.obj
 0001:00013980       ??0?$shared_ptr@VDataSourceBuffer@cinder@@@boost@@QAE@ABV01@@Z 00414980 f i cinder:DataSource.obj
 0001:00013980       ??0?$shared_ptr@UObj@Vbo@gl@cinder@@@boost@@QAE@ABV01@@Z 00414980 f i cinder:VBO.obj
 0001:00013980       ??0?$shared_ptr@VLine@cinder@@@boost@@QAE@ABV01@@Z 00414980 f i cinder:Text.obj
 0001:00013980       ??0?$shared_ptr@VDataTarget@cinder@@@boost@@QAE@ABV01@@Z 00414980 f i cinder:ImageIo.obj
 0001:00013980       ??0?$shared_ptr@UIWICBitmapFrameEncode@@@boost@@QAE@ABV01@@Z 00414980 f i cinder:ImageTargetFileWic.obj
 0001:000139b0       ??1ImageTarget@cinder@@UAE@XZ 004149b0 f i cinder:Surface.obj
 0001:000139d0       ?setRow@ImageTarget@cinder@@UAEXJPBX@Z 004149d0 f i cinder:Surface.obj
 0001:000139f0       ??0ImageTarget@cinder@@IAE@XZ 004149f0 f i cinder:Surface.obj
 0001:00013a10       ??_GImageTarget@cinder@@UAEPAXI@Z 00414a10 f i cinder:Surface.obj
 0001:00013a10       ??_EImageTarget@cinder@@UAEPAXI@Z 00414a10 f i cinder:Surface.obj
 0001:00013a40       ??$?0UObj@?$SurfaceT@E@cinder@@@shared_count@detail@boost@@QAE@PAUObj@?$SurfaceT@E@cinder@@@Z 00414a40 f i cinder:Surface.obj
 0001:00013b10       ??0?$sp_counted_impl_p@UObj@?$SurfaceT@E@cinder@@@detail@boost@@QAE@PAUObj@?$SurfaceT@E@cinder@@@Z 00414b10 f i cinder:Surface.obj
 0001:00013b40       ?dispose@?$sp_counted_impl_p@UObj@?$SurfaceT@E@cinder@@@detail@boost@@UAEXXZ 00414b40 f i cinder:Surface.obj
 0001:00013b60       ??$checked_delete@UObj@?$SurfaceT@E@cinder@@@boost@@YAXPAUObj@?$SurfaceT@E@cinder@@@Z 00414b60 f i cinder:Surface.obj
 0001:00013ba0       ??_GObj@?$SurfaceT@E@cinder@@QAEPAXI@Z 00414ba0 f i cinder:Surface.obj
 0001:00013bd0       ??0AppImplMswRendererGdi@app@cinder@@QAE@PAVApp@12@_N@Z 00414bd0 f   cinder:AppImplMswRendererGdi.obj
 0001:00013c20       ?defaultResize@AppImplMswRendererGdi@app@cinder@@UBEXXZ 00414c20 f   cinder:AppImplMswRendererGdi.obj
 0001:00013c30       ?swapBuffers@AppImplMswRendererGdi@app@cinder@@UBEXXZ 00414c30 f   cinder:AppImplMswRendererGdi.obj
 0001:00013ce0       ?makeCurrentContext@AppImplMswRendererGdi@app@cinder@@UAEXXZ 00414ce0 f   cinder:AppImplMswRendererGdi.obj
 0001:00013e00       ?initialize@AppImplMswRendererGdi@app@cinder@@UAE_NPAUHWND__@@PAUHDC__@@@Z 00414e00 f   cinder:AppImplMswRendererGdi.obj
 0001:00013e20       ?copyWindowContents@AppImplMswRendererGdi@app@cinder@@QAE?AV?$SurfaceT@E@3@ABV?$AreaT@J@3@@Z 00414e20 f   cinder:AppImplMswRendererGdi.obj
 0001:00014010       ?getDc@AppImplMswRendererGdi@app@cinder@@UBEPAUHDC__@@XZ 00415010 f i cinder:AppImplMswRendererGdi.obj
 0001:00014040       ??9?$Vec2@H@cinder@@QBE_NABV01@@Z 00415040 f i cinder:AppImplMswRendererGdi.obj
 0001:00014070       ??8?$Vec2@H@cinder@@QBE_NABV01@@Z 00415070 f i cinder:AppImplMswRendererGdi.obj
 0001:000140b0       ?expandPath@cinder@@YA?AV?$basic_string@DU?$char_traits@D@std@@V?$allocator@D@2@@std@@ABV23@@Z 004150b0 f   cinder:Utilities.obj
 0001:00014160       ?getHomeDirectory@cinder@@YA?AV?$basic_string@DU?$char_traits@D@std@@V?$allocator@D@2@@std@@XZ 00415160 f   cinder:Utilities.obj
 0001:00014220       ?getDocumentsDirectory@cinder@@YA?AV?$basic_string@DU?$char_traits@D@std@@V?$allocator@D@2@@std@@XZ 00415220 f   cinder:Utilities.obj
 0001:000142e0       ?getTemporaryDirectory@cinder@@YA?AV?$basic_string@DU?$char_traits@D@std@@V?$allocator@D@2@@std@@XZ 004152e0 f   cinder:Utilities.obj
 0001:000144a0       ?getTemporaryFilePath@cinder@@YA?AV?$basic_string@DU?$char_traits@D@std@@V?$allocator@D@2@@std@@ABV23@@Z 004154a0 f   cinder:Utilities.obj
 0001:00014720       ?getPathDirectory@cinder@@YA?AV?$basic_string@DU?$char_traits@D@std@@V?$allocator@D@2@@std@@ABV23@@Z 00415720 f   cinder:Utilities.obj
 0001:000147a0       ?getPathFileName@cinder@@YA?AV?$basic_string@DU?$char_traits@D@std@@V?$allocator@D@2@@std@@ABV23@@Z 004157a0 f   cinder:Utilities.obj
 0001:00014820       ?getPathExtension@cinder@@YA?AV?$basic_string@DU?$char_traits@D@std@@V?$allocator@D@2@@std@@ABV23@@Z 00415820 f   cinder:Utilities.obj
 0001:000148d0       ?createDirectories@cinder@@YA_NABV?$basic_string@DU?$char_traits@D@std@@V?$allocator@D@2@@std@@_N@Z 004158d0 f   cinder:Utilities.obj
 0001:00014910       ?launchWebBrowser@cinder@@YAXABVUrl@1@@Z 00415910 f   cinder:Utilities.obj
 0001:000149c0       ?deleteFile@cinder@@YAXABV?$basic_string@DU?$char_traits@D@std@@V?$allocator@D@2@@std@@@Z 004159c0 f   cinder:Utilities.obj
 0001:00014a50       ?split@cinder@@YA?AV?$vector@V?$basic_string@DU?$char_traits@D@std@@V?$allocator@D@2@@std@@V?$allocator@V?$basic_string@DU?$char_traits@D@std@@V?$allocator@D@2@@std@@@2@@std@@ABV?$basic_string@DU?$char_traits@D@std@@V?$allocator@D@2@@3@D@Z 00415a50 f   cinder:Utilities.obj
 0001:00014ae0       ?split@cinder@@YA?AV?$vector@V?$basic_string@DU?$char_traits@D@std@@V?$allocator@D@2@@std@@V?$allocator@V?$basic_string@DU?$char_traits@D@std@@V?$allocator@D@2@@std@@@2@@std@@ABV?$basic_string@DU?$char_traits@D@std@@V?$allocator@D@2@@3@0@Z 00415ae0 f   cinder:Utilities.obj
 0001:00014c70       ?toUtf16@cinder@@YA?AV?$basic_string@_WU?$char_traits@_W@std@@V?$allocator@_W@2@@std@@ABV?$basic_string@DU?$char_traits@D@std@@V?$allocator@D@2@@3@@Z 00415c70 f   cinder:Utilities.obj
 0001:00014db0       ?toUtf8@cinder@@YA?AV?$basic_string@DU?$char_traits@D@std@@V?$allocator@D@2@@std@@ABV?$basic_string@_WU?$char_traits@_W@std@@V?$allocator@_W@2@@3@@Z 00415db0 f   cinder:Utilities.obj
 0001:00014ed0       ?sleep@cinder@@YAXM@Z      00415ed0 f   cinder:Utilities.obj
 0001:00014ef0       ?stackTrace@cinder@@YA?AV?$vector@V?$basic_string@DU?$char_traits@D@std@@V?$allocator@D@2@@std@@V?$allocator@V?$basic_string@DU?$char_traits@D@std@@V?$allocator@D@2@@std@@@2@@std@@XZ 00415ef0 f   cinder:Utilities.obj
 0001:00014f70       ?swapEndian@cinder@@YAFF@Z 00415f70 f   cinder:Utilities.obj
 0001:00014f90       ?swapEndian@cinder@@YAGG@Z 00415f90 f   cinder:Utilities.obj
 0001:00014fb0       ?swapEndian@cinder@@YAJJ@Z 00415fb0 f   cinder:Utilities.obj
 0001:00014ff0       ?swapEndian@cinder@@YAKK@Z 00415ff0 f   cinder:Utilities.obj
 0001:00015030       ?swapEndian@cinder@@YAMM@Z 00416030 f   cinder:Utilities.obj
 0001:00015050       ?swapEndian@cinder@@YANN@Z 00416050 f   cinder:Utilities.obj
 0001:00015090       ?swapEndianBlock@cinder@@YAXPAGI@Z 00416090 f   cinder:Utilities.obj
 0001:000150e0       ?swapEndianBlock@cinder@@YAXPAMI@Z 004160e0 f   cinder:Utilities.obj
 0001:00015130       ?getPathSeparator@cinder@@YADXZ 00416130 f i cinder:Utilities.obj
 0001:00015140       ?str@Url@cinder@@QBE?AV?$basic_string@DU?$char_traits@D@std@@V?$allocator@D@2@@std@@XZ 00416140 f i cinder:Utilities.obj
 0001:00015170       ??1?$char_separator@DU?$char_traits@D@std@@@boost@@QAE@XZ 00416170 f i cinder:Utilities.obj
 0001:000151d0       ??1?$tokenizer@V?$char_separator@DU?$char_traits@D@std@@@boost@@V?$_String_const_iterator@DU?$char_traits@D@std@@V?$allocator@D@2@@std@@V?$basic_string@DU?$char_traits@D@std@@V?$allocator@D@2@@4@@boost@@QAE@XZ 004161d0 f i cinder:Utilities.obj
 0001:000151f0       ??1?$token_iterator@V?$char_separator@DU?$char_traits@D@std@@@boost@@V?$_String_const_iterator@DU?$char_traits@D@std@@V?$allocator@D@2@@std@@V?$basic_string@DU?$char_traits@D@std@@V?$allocator@D@2@@4@@boost@@QAE@XZ 004161f0 f i cinder:Utilities.obj
 0001:00015250       ??0CinderStackWalker@cinder@@QAE@XZ 00416250 f i cinder:Utilities.obj
 0001:000152e0       ?OnSymInit@CinderStackWalker@cinder@@UAEXPBDK0@Z 004162e0 f i cinder:Utilities.obj
 0001:000152f0       ?OnLoadModule@CinderStackWalker@cinder@@UAEXPBD0_KKK001@Z 004162f0 f i cinder:Utilities.obj
 0001:00015300       ?OnCallstackEntry@CinderStackWalker@cinder@@UAEXW4CallstackEntryType@StackWalker@@AAUCallstackEntry@4@@Z 00416300 f i cinder:Utilities.obj
 0001:00015500       ?OnDbgHelpErr@CinderStackWalker@cinder@@UAEXPBDK_K@Z 00416500 f i cinder:Utilities.obj
 0001:00015510       ?getEntries@CinderStackWalker@cinder@@QAEABV?$vector@V?$basic_string@DU?$char_traits@D@std@@V?$allocator@D@2@@std@@V?$allocator@V?$basic_string@DU?$char_traits@D@std@@V?$allocator@D@2@@std@@@2@@std@@XZ 00416510 f i cinder:Utilities.obj
 0001:00015530       ??_ECinderStackWalker@cinder@@UAEPAXI@Z 00416530 f i cinder:Utilities.obj
 0001:00015530       ??_GCinderStackWalker@cinder@@UAEPAXI@Z 00416530 f i cinder:Utilities.obj
 0001:00015560       ??1CinderStackWalker@cinder@@UAE@XZ 00416560 f i cinder:Utilities.obj
 0001:000155c0       ??0?$basic_string@DU?$char_traits@D@std@@V?$allocator@D@2@@std@@QAE@ID@Z 004165c0 f i cinder:Utilities.obj
 0001:00015600       ??4?$basic_string@DU?$char_traits@D@std@@V?$allocator@D@2@@std@@QAEAAV01@PBD@Z 00416600 f i cinder:Utilities.obj
 0001:00015620       ??Y?$basic_string@DU?$char_traits@D@std@@V?$allocator@D@2@@std@@QAEAAV01@PBD@Z 00416620 f i cinder:Utilities.obj
 0001:00015640       ?empty@?$basic_string@DU?$char_traits@D@std@@V?$allocator@D@2@@std@@QBE_NXZ 00416640 f i cinder:Utilities.obj
 0001:00015640       ?empty@?$basic_string@_WU?$char_traits@_W@std@@V?$allocator@_W@2@@std@@QBE_NXZ 00416640 f i cinder:UrlImplWinInet.obj
 0001:00015660       ?rfind@?$basic_string@DU?$char_traits@D@std@@V?$allocator@D@2@@std@@QBEIDI@Z 00416660 f i cinder:Utilities.obj
 0001:00015680       ?substr@?$basic_string@DU?$char_traits@D@std@@V?$allocator@D@2@@std@@QBE?AV12@II@Z 00416680 f i cinder:Utilities.obj
 0001:000156d0       ?c_str@?$basic_string@_WU?$char_traits@_W@std@@V?$allocator@_W@2@@std@@QBEPB_WXZ 004166d0 f i cinder:Utilities.obj
 0001:000156f0       ??0?$vector@_WV?$allocator@_W@std@@@std@@QAE@I@Z 004166f0 f i cinder:Utilities.obj
 0001:00015770       ?size@?$vector@GV?$allocator@G@std@@@std@@QBEIXZ 00416770 f i cinder:Font.obj
 0001:00015770       ?size@?$vector@_WV?$allocator@_W@std@@@std@@QBEIXZ 00416770 f i cinder:Utilities.obj
 0001:00015790       ??A?$vector@_WV?$allocator@_W@std@@@std@@QAEAA_WI@Z 00416790 f i cinder:Utilities.obj
 0001:000157c0       ??H?$_Vector_iterator@GV?$allocator@G@std@@@std@@QBE?AV01@H@Z 004167c0 f i cinder:Font.obj
 0001:000157c0       ??H?$_Vector_iterator@_WV?$allocator@_W@std@@@std@@QBE?AV01@H@Z 004167c0 f i cinder:Utilities.obj
 0001:00015800       ??0?$char_separator@DU?$char_traits@D@std@@@boost@@QAE@PBD0W4empty_token_policy@1@@Z 00416800 f i cinder:Utilities.obj
 0001:000158a0       ??1?$basic_string@DU?$traits_extension@U?$char_traits@D@std@@@tokenizer_detail@boost@@V?$allocator@D@std@@@std@@QAE@XZ 004168a0 f i cinder:Utilities.obj
 0001:000158c0       ?begin@?$tokenizer@V?$char_separator@DU?$char_traits@D@std@@@boost@@V?$_String_const_iterator@DU?$char_traits@D@std@@V?$allocator@D@2@@std@@V?$basic_string@DU?$char_traits@D@std@@V?$allocator@D@2@@4@@boost@@QBE?AV?$token_iterator@V?$char_separator@DU?$char_traits@D@std@@@boost@@V?$_String_const_iterator@DU?$char_traits@D@std@@V?$allocator@D@2@@std@@V?$basic_string@DU?$char_traits@D@std@@V?$allocator@D@2@@4@@2@XZ 004168c0 f i cinder:Utilities.obj
 0001:000159a0       ??0?$token_iterator@V?$char_separator@DU?$char_traits@D@std@@@boost@@V?$_String_const_iterator@DU?$char_traits@D@std@@V?$allocator@D@2@@std@@V?$basic_string@DU?$char_traits@D@std@@V?$allocator@D@2@@4@@boost@@QAE@ABV01@@Z 004169a0 f i cinder:Utilities.obj
 0001:00015a40       ??0?$char_separator@DU?$char_traits@D@std@@@boost@@QAE@ABV01@@Z 00416a40 f i cinder:Utilities.obj
 0001:00015ae0       ??0?$basic_string@DU?$traits_extension@U?$char_traits@D@std@@@tokenizer_detail@boost@@V?$allocator@D@std@@@std@@QAE@ABV01@@Z 00416ae0 f i cinder:Utilities.obj
 0001:00015b20       ?end@?$tokenizer@V?$char_separator@DU?$char_traits@D@std@@@boost@@V?$_String_const_iterator@DU?$char_traits@D@std@@V?$allocator@D@2@@std@@V?$basic_string@DU?$char_traits@D@std@@V?$allocator@D@2@@4@@boost@@QBE?AV?$token_iterator@V?$char_separator@DU?$char_traits@D@std@@@boost@@V?$_String_const_iterator@DU?$char_traits@D@std@@V?$allocator@D@2@@std@@V?$basic_string@DU?$char_traits@D@std@@V?$allocator@D@2@@4@@2@XZ 00416b20 f i cinder:Utilities.obj
 0001:00015c00       ??D?$iterator_facade@V?$token_iterator@V?$char_separator@DU?$char_traits@D@std@@@boost@@V?$_String_const_iterator@DU?$char_traits@D@std@@V?$allocator@D@2@@std@@V?$basic_string@DU?$char_traits@D@std@@V?$allocator@D@2@@4@@boost@@V?$basic_string@DU?$char_traits@D@std@@V?$allocator@D@2@@std@@Uforward_traversal_tag@2@ABV34@H@boost@@QBEABV?$basic_string@DU?$char_traits@D@std@@V?$allocator@D@2@@std@@XZ 00416c00 f i cinder:Utilities.obj
 0001:00015c20       ??E?$iterator_facade@V?$token_iterator@V?$char_separator@DU?$char_traits@D@std@@@boost@@V?$_String_const_iterator@DU?$char_traits@D@std@@V?$allocator@D@2@@std@@V?$basic_string@DU?$char_traits@D@std@@V?$allocator@D@2@@4@@boost@@V?$basic_string@DU?$char_traits@D@std@@V?$allocator@D@2@@std@@Uforward_traversal_tag@2@ABV34@H@boost@@QAEAAV?$token_iterator@V?$char_separator@DU?$char_traits@D@std@@@boost@@V?$_String_const_iterator@DU?$char_traits@D@std@@V?$allocator@D@2@@std@@V?$basic_string@DU?$char_traits@D@std@@V?$allocator@D@2@@4@@1@XZ 00416c20 f i cinder:Utilities.obj
 0001:00015c50       ??0?$vector@DV?$allocator@D@std@@@std@@QAE@I@Z 00416c50 f i cinder:Utilities.obj
 0001:00015cd0       ??1?$vector@DV?$allocator@D@std@@@std@@QAE@XZ 00416cd0 f i cinder:Utilities.obj
 0001:00015d30       ??A?$vector@DV?$allocator@D@std@@@std@@QAEAADI@Z 00416d30 f i cinder:Utilities.obj
 0001:00015d60       ??0?$basic_string@DU?$char_traits@D@std@@V?$allocator@D@2@@std@@QAE@ABV01@IIABV?$allocator@D@1@@Z 00416d60 f i cinder:Utilities.obj
 0001:00015db0       ?append@?$basic_string@DU?$char_traits@D@std@@V?$allocator@D@2@@std@@QAEAAV12@PBD@Z 00416db0 f i cinder:Utilities.obj
 0001:00015de0       ?assign@?$basic_string@DU?$char_traits@D@std@@V?$allocator@D@2@@std@@QAEAAV12@ID@Z 00416de0 f i cinder:Utilities.obj
 0001:00015e40       ?rfind@?$basic_string@DU?$char_traits@D@std@@V?$allocator@D@2@@std@@QBEIPBDII@Z 00416e40 f i cinder:Utilities.obj
 0001:00015f20       ?get_allocator@?$basic_string@DU?$char_traits@D@std@@V?$allocator@D@2@@std@@QBE?AV?$allocator@D@2@XZ 00416f20 f i cinder:Utilities.obj
 0001:00015f40       ?_Construct_n@?$vector@_WV?$allocator@_W@std@@@std@@QAEXIAB_W@Z 00416f40 f i cinder:Utilities.obj
 0001:00015ff0       ?_Tidy@?$vector@GV?$allocator@G@std@@@std@@IAEXXZ 00416ff0 f i cinder:Font.obj
 0001:00015ff0       ?_Tidy@?$vector@_WV?$allocator@_W@std@@@std@@IAEXXZ 00416ff0 f i cinder:Utilities.obj
 0001:00016060       ??0?$basic_string@DU?$traits_extension@U?$char_traits@D@std@@@tokenizer_detail@boost@@V?$allocator@D@std@@@std@@QAE@XZ 00417060 f i cinder:Utilities.obj
 0001:00016090       ??0?$basic_string@DU?$traits_extension@U?$char_traits@D@std@@@tokenizer_detail@boost@@V?$allocator@D@std@@@std@@QAE@PBD@Z 00417090 f i cinder:Utilities.obj
 0001:000160d0       ??4?$basic_string@DU?$traits_extension@U?$char_traits@D@std@@@tokenizer_detail@boost@@V?$allocator@D@std@@@std@@QAEAAV01@PBD@Z 004170d0 f i cinder:Utilities.obj
 0001:000160f0       ?assign@?$basic_string@DU?$traits_extension@U?$char_traits@D@std@@@tokenizer_detail@boost@@V?$allocator@D@std@@@std@@QAEAAV12@ABV12@II@Z 004170f0 f i cinder:Utilities.obj
 0001:000161b0       ?_Tidy@?$basic_string@DU?$traits_extension@U?$char_traits@D@std@@@tokenizer_detail@boost@@V?$allocator@D@std@@@std@@IAEX_NI@Z 004171b0 f i cinder:Utilities.obj
 0001:00016230       ??0?$token_iterator@V?$char_separator@DU?$char_traits@D@std@@@boost@@V?$_String_const_iterator@DU?$char_traits@D@std@@V?$allocator@D@2@@std@@V?$basic_string@DU?$char_traits@D@std@@V?$allocator@D@2@@4@@boost@@QAE@V?$char_separator@DU?$char_traits@D@std@@@1@V?$_String_const_iterator@DU?$char_traits@D@std@@V?$allocator@D@2@@std@@1@Z 00417230 f i cinder:Utilities.obj
 0001:000162d0       ?_Construct_n@?$vector@DV?$allocator@D@std@@@std@@QAEXIABD@Z 004172d0 f i cinder:Utilities.obj
 0001:00016380       ?size@?$vector@DV?$allocator@D@std@@@std@@QBEIXZ 00417380 f i cinder:Utilities.obj
 0001:000163a0       ?_Tidy@?$vector@DV?$allocator@D@std@@@std@@IAEXXZ 004173a0 f i cinder:Utilities.obj
 0001:00016410       ?append@?$basic_string@DU?$char_traits@D@std@@V?$allocator@D@2@@std@@QAEAAV12@PBDI@Z 00417410 f i cinder:Utilities.obj
 0001:000164e0       ?append@?$basic_string@DU?$char_traits@D@std@@V?$allocator@D@2@@std@@QAEAAV12@ABV12@II@Z 004174e0 f i cinder:Utilities.obj
 0001:000165b0       ?_Chassign@?$basic_string@DU?$char_traits@D@std@@V?$allocator@D@2@@std@@IAEXIID@Z 004175b0 f i cinder:Utilities.obj
 0001:00016600       ?assign@?$char_traits@D@std@@SAPADPADID@Z 00417600 f i cinder:Utilities.obj
 0001:00016620       ?_Ufill@?$vector@GV?$allocator@G@std@@@std@@IAEPAGPAGIABG@Z 00417620 f i cinder:Font.obj
 0001:00016620       ?_Ufill@?$vector@_WV?$allocator@_W@std@@@std@@IAEPA_WPA_WIAB_W@Z 00417620 f i cinder:Utilities.obj
 0001:00016660       ?assign@?$basic_string@DU?$traits_extension@U?$char_traits@D@std@@@tokenizer_detail@boost@@V?$allocator@D@std@@@std@@QAEAAV12@PBD@Z 00417660 f i cinder:Utilities.obj
 0001:00016690       ?erase@?$basic_string@DU?$traits_extension@U?$char_traits@D@std@@@tokenizer_detail@boost@@V?$allocator@D@std@@@std@@QAEAAV12@II@Z 00417690 f i cinder:Utilities.obj
 0001:00016730       ?_Eos@?$basic_string@DU?$traits_extension@U?$char_traits@D@std@@@tokenizer_detail@boost@@V?$allocator@D@std@@@std@@IAEXI@Z 00417730 f i cinder:Utilities.obj
 0001:00016730       ?_Eos@?$basic_string@DU?$char_traits@D@std@@V?$allocator@D@2@@std@@IAEXI@Z 00417730 f i basicApp.obj
 0001:00016770       ?_Grow@?$basic_string@DU?$traits_extension@U?$char_traits@D@std@@@tokenizer_detail@boost@@V?$allocator@D@std@@@std@@IAE_NI_N@Z 00417770 f i cinder:Utilities.obj
 0001:00016810       ?initialize@?$token_iterator@V?$char_separator@DU?$char_traits@D@std@@@boost@@V?$_String_const_iterator@DU?$char_traits@D@std@@V?$allocator@D@2@@std@@V?$basic_string@DU?$char_traits@D@std@@V?$allocator@D@2@@4@@boost@@AAEXXZ 00417810 f i cinder:Utilities.obj
 0001:00016880       ?_Buy@?$vector@DV?$allocator@D@std@@@std@@IAE_NI@Z 00417880 f i cinder:Utilities.obj
 0001:00016900       ?_Ufill@?$vector@DV?$allocator@D@std@@@std@@IAEPADPADIABD@Z 00417900 f i cinder:Utilities.obj
 0001:00016930       ??9?$_String_const_iterator@DU?$char_traits@D@std@@V?$allocator@D@2@@std@@QBE_NABV01@@Z 00417930 f i cinder:Utilities.obj
 0001:00016960       ?assign@?$basic_string@DU?$traits_extension@U?$char_traits@D@std@@@tokenizer_detail@boost@@V?$allocator@D@std@@@std@@QAEAAV12@PBDI@Z 00417960 f i cinder:Utilities.obj
 0001:000169f0       ?_Copy@?$basic_string@DU?$traits_extension@U?$char_traits@D@std@@@tokenizer_detail@boost@@V?$allocator@D@std@@@std@@IAEXII@Z 004179f0 f i cinder:Utilities.obj
 0001:00016b70       ?max_size@?$vector@DV?$allocator@D@std@@@std@@QBEIXZ 00417b70 f i cinder:Utilities.obj
 0001:00016b90       ??8?$_String_const_iterator@DU?$char_traits@D@std@@V?$allocator@D@2@@std@@QBE_NABV01@@Z 00417b90 f i cinder:Utilities.obj
 0001:00016be0       ?_Has_container@_Iterator_base_secure@std@@QBE_NXZ 00417be0 f i cinder:Utilities.obj
 0001:00016be0       ?_Has_container@_Iterator_base_aux@std@@QBE_NXZ 00417be0 f i basicApp.obj
 0001:00016c00       ??$?0V?$_Vector_iterator@_WV?$allocator@_W@std@@@std@@@?$basic_string@_WU?$char_traits@_W@std@@V?$allocator@_W@2@@std@@QAE@V?$_Vector_iterator@_WV?$allocator@_W@std@@@1@0@Z 00417c00 f i cinder:Utilities.obj
 0001:00016c60       ??$?0V?$basic_string@DU?$char_traits@D@std@@V?$allocator@D@2@@std@@@?$tokenizer@V?$char_separator@DU?$char_traits@D@std@@@boost@@V?$_String_const_iterator@DU?$char_traits@D@std@@V?$allocator@D@2@@std@@V?$basic_string@DU?$char_traits@D@std@@V?$allocator@D@2@@4@@boost@@QAE@ABV?$basic_string@DU?$char_traits@D@std@@V?$allocator@D@2@@std@@ABV?$char_separator@DU?$char_traits@D@std@@@1@@Z 00417c60 f i cinder:Utilities.obj
 0001:00016ca0       ??$?9V?$token_iterator@V?$char_separator@DU?$char_traits@D@std@@@boost@@V?$_String_const_iterator@DU?$char_traits@D@std@@V?$allocator@D@2@@std@@V?$basic_string@DU?$char_traits@D@std@@V?$allocator@D@2@@4@@boost@@V?$basic_string@DU?$char_traits@D@std@@V?$allocator@D@2@@std@@Uforward_traversal_tag@1@ABV23@HV01@V23@U41@ABV23@H@boost@@YA_NABV?$iterator_facade@V?$token_iterator@V?$char_separator@DU?$char_traits@D@std@@@boost@@V?$_String_const_iterator@DU?$char_traits@D@std@@V?$allocator@D@2@@std@@V?$basic_string@DU?$char_traits@D@std@@V?$allocator@D@2@@4@@boost@@V?$basic_string@DU?$char_traits@D@std@@V?$allocator@D@2@@std@@Uforward_traversal_tag@2@ABV34@H@0@0@Z 00417ca0 f i cinder:Utilities.obj
 0001:00016cd0       ??$strcpy_s@$0EAA@@@YAHAAY0EAA@DPBD@Z 00417cd0 f i cinder:Utilities.obj
 0001:00016cf0       ??$_snprintf_s@$0EAA@@@YAHAAY0EAA@DIPBDZZ 00417cf0 f i cinder:Utilities.obj
 0001:00016d20       ??$dereference@V?$token_iterator@V?$char_separator@DU?$char_traits@D@std@@@boost@@V?$_String_const_iterator@DU?$char_traits@D@std@@V?$allocator@D@2@@std@@V?$basic_string@DU?$char_traits@D@std@@V?$allocator@D@2@@4@@boost@@@iterator_core_access@boost@@CAABV?$basic_string@DU?$char_traits@D@std@@V?$allocator@D@2@@std@@ABV?$token_iterator@V?$char_separator@DU?$char_traits@D@std@@@boost@@V?$_String_const_iterator@DU?$char_traits@D@std@@V?$allocator@D@2@@std@@V?$basic_string@DU?$char_traits@D@std@@V?$allocator@D@2@@4@@1@@Z 00417d20 f i cinder:Utilities.obj
 0001:00016d30       ??$increment@V?$token_iterator@V?$char_separator@DU?$char_traits@D@std@@@boost@@V?$_String_const_iterator@DU?$char_traits@D@std@@V?$allocator@D@2@@std@@V?$basic_string@DU?$char_traits@D@std@@V?$allocator@D@2@@4@@boost@@@iterator_core_access@boost@@CAXAAV?$token_iterator@V?$char_separator@DU?$char_traits@D@std@@@boost@@V?$_String_const_iterator@DU?$char_traits@D@std@@V?$allocator@D@2@@std@@V?$basic_string@DU?$char_traits@D@std@@V?$allocator@D@2@@4@@1@@Z 00417d30 f i cinder:Utilities.obj
 0001:00016d40       ??$copy_s@U?$traits_extension@U?$char_traits@D@std@@@tokenizer_detail@boost@@@_Traits_helper@std@@YAPADPADIPBDI@Z 00417d40 f i cinder:Utilities.obj
 0001:00016d70       ??$unchecked_uninitialized_fill_n@PAGIGV?$allocator@G@std@@@stdext@@YAXPAGIABGAAV?$allocator@G@std@@@Z 00417d70 f i cinder:Font.obj
 0001:00016d70       ??$unchecked_uninitialized_fill_n@PA_WI_WV?$allocator@_W@std@@@stdext@@YAXPA_WIAB_WAAV?$allocator@_W@std@@@Z 00417d70 f i cinder:Utilities.obj
 0001:00016dc0       ??$move_s@U?$traits_extension@U?$char_traits@D@std@@@tokenizer_detail@boost@@@_Traits_helper@std@@YAPADPADIPBDI@Z 00417dc0 f i cinder:Utilities.obj
 0001:00016df0       ??$?RV?$_String_const_iterator@DU?$char_traits@D@std@@V?$allocator@D@2@@std@@V?$basic_string@DU?$char_traits@D@std@@V?$allocator@D@2@@1@@?$char_separator@DU?$char_traits@D@std@@@boost@@QAE_NAAV?$_String_const_iterator@DU?$char_traits@D@std@@V?$allocator@D@2@@std@@V23@AAV?$basic_string@DU?$char_traits@D@std@@V?$allocator@D@2@@3@@Z 00417df0 f i cinder:Utilities.obj
 0001:000170d0       ??$unchecked_uninitialized_fill_n@PADIDV?$allocator@D@std@@@stdext@@YAXPADIABDAAV?$allocator@D@std@@@Z 004180d0 f i cinder:Utilities.obj
 0001:00017120       ?begin@?$basic_string@DU?$char_traits@D@std@@V?$allocator@D@2@@std@@QBE?AV?$_String_const_iterator@DU?$char_traits@D@std@@V?$allocator@D@2@@2@XZ 00418120 f i cinder:Utilities.obj
 0001:00017150       ??0?$_String_const_iterator@DU?$char_traits@D@std@@V?$allocator@D@2@@std@@QAE@PBDPBV_Container_base_secure@1@@Z 00418150 f i cinder:Utilities.obj
 0001:000171b0       ?end@?$basic_string@DU?$char_traits@D@std@@V?$allocator@D@2@@std@@QBE?AV?$_String_const_iterator@DU?$char_traits@D@std@@V?$allocator@D@2@@2@XZ 004181b0 f i cinder:Utilities.obj
 0001:000171e0       ??D?$_String_const_iterator@DU?$char_traits@D@std@@V?$allocator@D@2@@std@@QBEABDXZ 004181e0 f i cinder:Utilities.obj
 0001:00017230       ??E?$_String_const_iterator@DU?$char_traits@D@std@@V?$allocator@D@2@@std@@QAEAAV01@XZ 00418230 f i cinder:Utilities.obj
 0001:00017290       ?is_kept@?$char_separator@DU?$char_traits@D@std@@@boost@@ABE_ND@Z 00418290 f i cinder:Utilities.obj
 0001:000172f0       ?is_dropped@?$char_separator@DU?$char_traits@D@std@@@boost@@ABE_ND@Z 004182f0 f i cinder:Utilities.obj
 0001:00017360       ?increment@?$token_iterator@V?$char_separator@DU?$char_traits@D@std@@@boost@@V?$_String_const_iterator@DU?$char_traits@D@std@@V?$allocator@D@2@@std@@V?$basic_string@DU?$char_traits@D@std@@V?$allocator@D@2@@4@@boost@@AAEXXZ 00418360 f i cinder:Utilities.obj
 0001:000173a0       ?dereference@?$token_iterator@V?$char_separator@DU?$char_traits@D@std@@@boost@@V?$_String_const_iterator@DU?$char_traits@D@std@@V?$allocator@D@2@@std@@V?$basic_string@DU?$char_traits@D@std@@V?$allocator@D@2@@4@@boost@@ABEABV?$basic_string@DU?$char_traits@D@std@@V?$allocator@D@2@@std@@XZ 004183a0 f i cinder:Utilities.obj
 0001:000173c0       ?find@?$basic_string@DU?$traits_extension@U?$char_traits@D@std@@@tokenizer_detail@boost@@V?$allocator@D@std@@@std@@QBEIDI@Z 004183c0 f i cinder:Utilities.obj
 0001:000173e0       ?isspace@?$traits_extension@U?$char_traits@D@std@@@tokenizer_detail@boost@@SA_ND@Z 004183e0 f i cinder:Utilities.obj
 0001:00017420       ?ispunct@?$traits_extension@U?$char_traits@D@std@@@tokenizer_detail@boost@@SA_ND@Z 00418420 f i cinder:Utilities.obj
 0001:00017460       ?find@?$basic_string@DU?$traits_extension@U?$char_traits@D@std@@@tokenizer_detail@boost@@V?$allocator@D@std@@@std@@QBEIPBDII@Z 00418460 f i cinder:Utilities.obj
 0001:00017540       ?find@?$char_traits@D@std@@SAPBDPBDIABD@Z 00418540 f i cinder:Utilities.obj
 0001:00017560       ??$_Construct@V?$_Vector_iterator@_WV?$allocator@_W@std@@@std@@@?$basic_string@_WU?$char_traits@_W@std@@V?$allocator@_W@2@@std@@QAEXV?$_Vector_iterator@_WV?$allocator@_W@std@@@1@0Uforward_iterator_tag@1@@Z 00418560 f i cinder:Utilities.obj
 0001:00017650       ??$equal@V?$token_iterator@V?$char_separator@DU?$char_traits@D@std@@@boost@@V?$_String_const_iterator@DU?$char_traits@D@std@@V?$allocator@D@2@@std@@V?$basic_string@DU?$char_traits@D@std@@V?$allocator@D@2@@4@@boost@@V12@@iterator_core_access@boost@@CA_NABV?$token_iterator@V?$char_separator@DU?$char_traits@D@std@@@boost@@V?$_String_const_iterator@DU?$char_traits@D@std@@V?$allocator@D@2@@std@@V?$basic_string@DU?$char_traits@D@std@@V?$allocator@D@2@@4@@1@0U?$bool_@$00@mpl@1@@Z 00418650 f i cinder:Utilities.obj
 0001:00017670       ??$copy_s@U?$traits_extension@U?$char_traits@D@std@@@tokenizer_detail@boost@@@_Traits_helper@std@@YAPADPADIPBDIU_Unsecure_char_traits_tag@1@@Z 00418670 f i cinder:Utilities.obj
 0001:00017690       ?copy@?$char_traits@D@std@@SAPADPADPBDI@Z 00418690 f i cinder:Utilities.obj
 0001:000176b0       ??$_Uninit_fill_n@PA_WI_WV?$allocator@_W@std@@@std@@YAXPA_WIAB_WAAV?$allocator@_W@0@U_Scalar_ptr_iterator_tag@0@U_Range_checked_iterator_tag@0@@Z 004186b0 f i cinder:Utilities.obj
 0001:000176b0       ??$_Uninit_fill_n@PAGIGV?$allocator@G@std@@@std@@YAXPAGIABGAAV?$allocator@G@0@U_Scalar_ptr_iterator_tag@0@U_Range_checked_iterator_tag@0@@Z 004186b0 f i cinder:Font.obj
 0001:000176d0       ??$move_s@U?$traits_extension@U?$char_traits@D@std@@@tokenizer_detail@boost@@@_Traits_helper@std@@YAPADPADIPBDIU_Unsecure_char_traits_tag@1@@Z 004186d0 f i cinder:Utilities.obj
 0001:000176f0       ?move@?$char_traits@D@std@@SAPADPADPBDI@Z 004186f0 f i cinder:Utilities.obj
 0001:00017710       ??$assign@V?$_String_const_iterator@DU?$char_traits@D@std@@V?$allocator@D@2@@std@@V?$basic_string@DU?$char_traits@D@std@@V?$allocator@D@2@@2@@?$assign_or_plus_equal@Urandom_access_iterator_tag@std@@@tokenizer_detail@boost@@SAXV?$_String_const_iterator@DU?$char_traits@D@std@@V?$allocator@D@2@@std@@0AAV?$basic_string@DU?$char_traits@D@std@@V?$allocator@D@2@@4@@Z 00418710 f i cinder:Utilities.obj
 0001:00017730       ??$_Uninit_fill_n@PADIDV?$allocator@D@std@@@std@@YAXPADIABDAAV?$allocator@D@0@U_Scalar_ptr_iterator_tag@0@U_Range_checked_iterator_tag@0@@Z 00418730 f i cinder:Utilities.obj
 0001:00017750       ?assign@?$basic_string@DU?$char_traits@D@std@@V?$allocator@D@2@@std@@QAEAAV12@V?$_String_const_iterator@DU?$char_traits@D@std@@V?$allocator@D@2@@2@0@Z 00418750 f i cinder:Utilities.obj
 0001:000177c0       ?end@?$basic_string@DU?$char_traits@D@std@@V?$allocator@D@2@@std@@QAE?AV?$_String_iterator@DU?$char_traits@D@std@@V?$allocator@D@2@@2@XZ 004187c0 f i cinder:Utilities.obj
 0001:000177f0       ?begin@?$basic_string@DU?$char_traits@D@std@@V?$allocator@D@2@@std@@QAE?AV?$_String_iterator@DU?$char_traits@D@std@@V?$allocator@D@2@@2@XZ 004187f0 f i cinder:Utilities.obj
 0001:00017820       ??0?$_String_iterator@DU?$char_traits@D@std@@V?$allocator@D@2@@std@@QAE@PADPBV_Container_base_secure@1@@Z 00418820 f i cinder:Utilities.obj
 0001:00017840       ?append@?$basic_string@_WU?$char_traits@_W@std@@V?$allocator@_W@2@@std@@QAEAAV12@I_W@Z 00418840 f i cinder:Utilities.obj
 0001:000178b0       ?reserve@?$basic_string@_WU?$char_traits@_W@std@@V?$allocator@_W@2@@std@@QAEXI@Z 004188b0 f i cinder:Utilities.obj
 0001:00017900       ??E?$_Vector_iterator@_WV?$allocator@_W@std@@@std@@QAEAAV01@XZ 00418900 f i cinder:Utilities.obj
 0001:00017920       ?replace@?$basic_string@DU?$char_traits@D@std@@V?$allocator@D@2@@std@@QAEAAV12@V?$_String_const_iterator@DU?$char_traits@D@std@@V?$allocator@D@2@@2@000@Z 00418920 f i cinder:Utilities.obj
 0001:00017a00       ?replace@?$basic_string@DU?$char_traits@D@std@@V?$allocator@D@2@@std@@QAEAAV12@IIPBDI@Z 00418a00 f i cinder:Utilities.obj
 0001:00017b90       ?_Pdif@?$basic_string@DU?$char_traits@D@std@@V?$allocator@D@2@@std@@KAIV?$_String_const_iterator@DU?$char_traits@D@std@@V?$allocator@D@2@@2@0@Z 00418b90 f i cinder:Utilities.obj
 0001:00017bc0       ?replace@?$basic_string@DU?$char_traits@D@std@@V?$allocator@D@2@@std@@QAEAAV12@IIABV12@II@Z 00418bc0 f i cinder:Utilities.obj
 0001:00017f00       ??G?$_String_const_iterator@DU?$char_traits@D@std@@V?$allocator@D@2@@std@@QBEHABV01@@Z 00418f00 f i cinder:Utilities.obj
 0001:00017f50       ?_Chassign@?$basic_string@_WU?$char_traits@_W@std@@V?$allocator@_W@2@@std@@IAEXII_W@Z 00418f50 f i cinder:Utilities.obj
 0001:00017fa0       ?assign@?$char_traits@_W@std@@SAPA_WPA_WI_W@Z 00418fa0 f i cinder:Utilities.obj
 0001:00017fc0       _wmemset                   00418fc0 f i cinder:Utilities.obj
 0001:00018000       ??E?$_Vector_const_iterator@_WV?$allocator@_W@std@@@std@@QAEAAV01@XZ 00419000 f i cinder:Utilities.obj
 0001:00018050       ??$_Distance@V?$_Vector_iterator@_WV?$allocator@_W@std@@@std@@I@std@@YAXV?$_Vector_iterator@_WV?$allocator@_W@std@@@0@0AAI@Z 00419050 f i cinder:Utilities.obj
 0001:00018090       ??$equal@V?$token_iterator@V?$char_separator@DU?$char_traits@D@std@@@boost@@V?$_String_const_iterator@DU?$char_traits@D@std@@V?$allocator@D@2@@std@@V?$basic_string@DU?$char_traits@D@std@@V?$allocator@D@2@@4@@boost@@@?$token_iterator@V?$char_separator@DU?$char_traits@D@std@@@boost@@V?$_String_const_iterator@DU?$char_traits@D@std@@V?$allocator@D@2@@std@@V?$basic_string@DU?$char_traits@D@std@@V?$allocator@D@2@@4@@boost@@ABE_NABV01@@Z 00419090 f i cinder:Utilities.obj
 0001:00018120       ??$unchecked_fill_n@PAGIG@stdext@@YAXPAGIABG@Z 00419120 f i cinder:Font.obj
 0001:00018120       ??$unchecked_fill_n@PA_WI_W@stdext@@YAXPA_WIAB_W@Z 00419120 f i cinder:Utilities.obj
 0001:00018160       ??$unchecked_fill_n@PADID@stdext@@YAXPADIABD@Z 00419160 f i cinder:Utilities.obj
 0001:000181a0       ??$_Distance2@V?$_Vector_iterator@_WV?$allocator@_W@std@@@std@@I@std@@YAXV?$_Vector_iterator@_WV?$allocator@_W@std@@@0@0AAIUrandom_access_iterator_tag@0@@Z 004191a0 f i cinder:Utilities.obj
 0001:000181c0       ??$_Fill_n@PA_WI_W@std@@YAXPA_WIAB_WUrandom_access_iterator_tag@0@U_Range_checked_iterator_tag@0@@Z 004191c0 f i cinder:Utilities.obj
 0001:000181c0       ??$_Fill_n@PAGIG@std@@YAXPAGIABGUrandom_access_iterator_tag@0@U_Range_checked_iterator_tag@0@@Z 004191c0 f i cinder:Font.obj
 0001:00018200       ??$_Fill_n@PADID@std@@YAXPADIABDUrandom_access_iterator_tag@0@U_Range_checked_iterator_tag@0@@Z 00419200 f i cinder:Utilities.obj
 0001:00018240       ??G?$_Vector_iterator@_WV?$allocator@_W@std@@@std@@QBEHABV?$_Vector_const_iterator@_WV?$allocator@_W@std@@@1@@Z 00419240 f i cinder:Utilities.obj
 0001:00018260       ??G?$_Vector_const_iterator@GV?$allocator@G@std@@@std@@QBEHABV01@@Z 00419260 f i cinder:Font.obj
 0001:00018260       ??G?$_Vector_const_iterator@_WV?$allocator@_W@std@@@std@@QBEHABV01@@Z 00419260 f i cinder:Utilities.obj
 0001:000182b0       ??$_Fill_n@PADID@std@@YAXPADIABDU_Range_checked_iterator_tag@0@@Z 004192b0 f i cinder:Utilities.obj
 0001:000182e0       ??0AppImplMswBasic@app@cinder@@QAE@PAVAppBasic@12@@Z 004192e0 f   cinder:AppImplMswBasic.obj
 0001:00018370       ?run@AppImplMswBasic@app@cinder@@QAEXXZ 00419370 f   cinder:AppImplMswBasic.obj
 0001:000186a0       ?createWindow@AppImplMswBasic@app@cinder@@IAE_NPAH0@Z 004196a0 f   cinder:AppImplMswBasic.obj
 0001:00018b50       ?killWindow@AppImplMswBasic@app@cinder@@IAEX_N@Z 00419b50 f   cinder:AppImplMswBasic.obj
 0001:00018c00       ?toggleFullScreen@AppImplMswBasic@app@cinder@@UAEXXZ 00419c00 f   cinder:AppImplMswBasic.obj
 0001:00018e60       ?enableMultiTouch@AppImplMswBasic@app@cinder@@IAEXXZ 00419e60 f   cinder:AppImplMswBasic.obj
 0001:00018ec0       ?setWindowWidth@AppImplMswBasic@app@cinder@@UAEXH@Z 00419ec0 f   cinder:AppImplMswBasic.obj
 0001:00018f20       ?setWindowHeight@AppImplMswBasic@app@cinder@@UAEXH@Z 00419f20 f   cinder:AppImplMswBasic.obj
 0001:00018f80       ?setWindowSize@AppImplMswBasic@app@cinder@@UAEXHH@Z 00419f80 f   cinder:AppImplMswBasic.obj
 0001:00018fd0       ?setFrameRate@AppImplMswBasic@app@cinder@@UAEMM@Z 00419fd0 f   cinder:AppImplMswBasic.obj
 0001:00018fe0       ?getScreenSize@AppImplMswBasic@app@cinder@@IAEXHHPAH0@Z 00419fe0 f   cinder:AppImplMswBasic.obj
 0001:00019040       ?onTouch@AppImplMswBasic@app@cinder@@IAEXPAUHWND__@@IJ@Z 0041a040 f   cinder:AppImplMswBasic.obj
 0001:00019660       ?prepMouseEventModifiers@app@cinder@@YAII@Z 0041a660 f   cinder:AppImplMswBasic.obj
 0001:00019710       ?prepNativeKeyCode@app@cinder@@YAHI@Z 0041a710 f   cinder:AppImplMswBasic.obj
 0001:00019790       ?mapVirtualKey@app@cinder@@YADI@Z 0041a790 f   cinder:AppImplMswBasic.obj
 0001:00019810       ?prepKeyEventModifiers@app@cinder@@YAIXZ 0041a810 f   cinder:AppImplMswBasic.obj
 0001:000198c0       _WndProc@16                0041a8c0 f   cinder:AppImplMswBasic.obj
 0001:0001a2d0       ?privateSetWindowOffset__@AppImplMsw@app@cinder@@UAEXABV?$Vec2@H@3@@Z 0041b2d0 f i cinder:AppImplMswBasic.obj
 0001:0001a2f0       ?quit@AppImplMswBasic@app@cinder@@UAEXXZ 0041b2f0 f i cinder:AppImplMswBasic.obj
 0001:0001a310       ??_EAppImplMswBasic@app@cinder@@UAEPAXI@Z 0041b310 f i cinder:AppImplMswBasic.obj
 0001:0001a310       ??_GAppImplMswBasic@app@cinder@@UAEPAXI@Z 0041b310 f i cinder:AppImplMswBasic.obj
 0001:0001a340       ??1AppImplMswBasic@app@cinder@@UAE@XZ 0041b340 f i cinder:AppImplMswBasic.obj
 0001:0001a3a0       ??1?$map@KV?$Vec2@M@cinder@@U?$less@K@std@@V?$allocator@U?$pair@$$CBKV?$Vec2@M@cinder@@@std@@@4@@std@@QAE@XZ 0041b3a0 f i cinder:AppImplMswBasic.obj
 0001:0001a3c0       ??0ResizeEvent@app@cinder@@QAE@ABV?$Vec2@H@2@@Z 0041b3c0 f i cinder:AppImplMswBasic.obj
 0001:0001a430       ??0Event@app@cinder@@IAE@XZ 0041b430 f i cinder:AppImplMswBasic.obj
 0001:0001a450       ?getFrameRate@Settings@App@app@cinder@@QBEMXZ 0041b450 f i cinder:AppImplMswBasic.obj
 0001:0001a470       ?getElapsedSeconds@App@app@cinder@@QBENXZ 0041b470 f i cinder:AppImplMswBasic.obj
 0001:0001a490       ?getFullScreenWidth@Settings@AppBasic@app@cinder@@QBEHXZ 0041b490 f i cinder:AppImplMswBasic.obj
 0001:0001a4b0       ?getFullScreenHeight@Settings@AppBasic@app@cinder@@QBEHXZ 0041b4b0 f i cinder:AppImplMswBasic.obj
 0001:0001a4d0       ?getDisplay@Settings@AppBasic@app@cinder@@QBEPAVDisplay@4@XZ 0041b4d0 f i cinder:AppImplMswBasic.obj
 0001:0001a4f0       ?getWidth@Display@cinder@@QBEHXZ 0041b4f0 f i cinder:AppImplMswBasic.obj
 0001:0001a510       ?getHeight@Display@cinder@@QBEHXZ 0041b510 f i cinder:AppImplMswBasic.obj
 0001:0001a530       ?getTitle@Settings@App@app@cinder@@QBEABV?$basic_string@DU?$char_traits@D@std@@V?$allocator@D@2@@std@@XZ 0041b530 f i cinder:AppImplMswBasic.obj
 0001:0001a550       ?isClosed@?$PolyLine@V?$Vec2@M@cinder@@@cinder@@QBE_NXZ 0041b550 f i cinder:gl.obj
 0001:0001a550       ?isClosed@?$PolyLine@V?$Vec3@M@cinder@@@cinder@@QBE_NXZ 0041b550 f i cinder:gl.obj
 0001:0001a550       ?isResizable@Settings@App@app@cinder@@QBE_NXZ 0041b550 f i cinder:AppImplMswBasic.obj
 0001:0001a570       ?isMultiTouchEnabled@Settings@AppBasic@app@cinder@@QBE_NXZ 0041b570 f i cinder:AppImplMswBasic.obj
 0001:0001a590       ??0Touch@TouchEvent@app@cinder@@QAE@ABV?$Vec2@M@3@0KNPAX@Z 0041b590 f i cinder:AppImplMswBasic.obj
 0001:0001a5e0       ??0TouchEvent@app@cinder@@QAE@ABV?$vector@VTouch@TouchEvent@app@cinder@@V?$allocator@VTouch@TouchEvent@app@cinder@@@std@@@std@@@Z 0041b5e0 f i cinder:AppImplMswBasic.obj
 0001:0001a650       ?privateSetActiveTouches__@AppBasic@app@cinder@@QAEXABV?$vector@VTouch@TouchEvent@app@cinder@@V?$allocator@VTouch@TouchEvent@app@cinder@@@std@@@std@@@Z 0041b650 f i cinder:AppImplMswBasic.obj
 0001:0001a670       ??0MouseEvent@app@cinder@@QAE@HHHIMK@Z 0041b670 f i cinder:AppImplMswBasic.obj
 0001:0001a6d0       ??0KeyEvent@app@cinder@@QAE@HDII@Z 0041b6d0 f i cinder:AppImplMswBasic.obj
 0001:0001a720       ??0FileDropEvent@app@cinder@@QAE@HHABV?$vector@V?$basic_string@DU?$char_traits@D@std@@V?$allocator@D@2@@std@@V?$allocator@V?$basic_string@DU?$char_traits@D@std@@V?$allocator@D@2@@std@@@2@@std@@@Z 0041b720 f i cinder:AppImplMswBasic.obj
 0001:0001a7a0       ?getPowerManagement@Settings@App@app@cinder@@QBE_NXZ 0041b7a0 f i cinder:AppImplMswBasic.obj
 0001:0001a7c0       ??0?$Vec2@M@cinder@@QAE@ABV01@@Z 0041b7c0 f i basicApp.obj
 0001:0001a7c0       ??4?$Vec2@M@cinder@@QAEAAV01@ABV01@@Z 0041b7c0 f i cinder:AppImplMswBasic.obj
 0001:0001a7f0       ??0?$map@KV?$Vec2@M@cinder@@U?$less@K@std@@V?$allocator@U?$pair@$$CBKV?$Vec2@M@cinder@@@std@@@4@@std@@QAE@XZ 0041b7f0 f i cinder:AppImplMswBasic.obj
 0001:0001a820       ??A?$map@KV?$Vec2@M@cinder@@U?$less@K@std@@V?$allocator@U?$pair@$$CBKV?$Vec2@M@cinder@@@std@@@4@@std@@QAEAAV?$Vec2@M@cinder@@ABK@Z 0041b820 f i cinder:AppImplMswBasic.obj
 0001:0001a8d0       ??1?$_Tree@V?$_Tmap_traits@KV?$Vec2@M@cinder@@U?$less@K@std@@V?$allocator@U?$pair@$$CBKV?$Vec2@M@cinder@@@std@@@4@$0A@@std@@@std@@QAE@XZ 0041b8d0 f i cinder:AppImplMswBasic.obj
 0001:0001a930       ?erase@?$_Tree@V?$_Tmap_traits@KV?$Vec2@M@cinder@@U?$less@K@std@@V?$allocator@U?$pair@$$CBKV?$Vec2@M@cinder@@@std@@@4@$0A@@std@@@std@@QAEIABK@Z 0041b930 f i cinder:AppImplMswBasic.obj
 0001:0001a9b0       ??4?$vector@VTouch@TouchEvent@app@cinder@@V?$allocator@VTouch@TouchEvent@app@cinder@@@std@@@std@@QAEAAV01@ABV01@@Z 0041b9b0 f i cinder:AppImplMswBasic.obj
 0001:0001ab40       ?empty@?$vector@VTouch@TouchEvent@app@cinder@@V?$allocator@VTouch@TouchEvent@app@cinder@@@std@@@std@@QBE_NXZ 0041bb40 f i cinder:AppImplMswBasic.obj
 0001:0001ab60       ?back@?$vector@VTouch@TouchEvent@app@cinder@@V?$allocator@VTouch@TouchEvent@app@cinder@@@std@@@std@@QAEAAVTouch@TouchEvent@app@cinder@@XZ 0041bb60 f i cinder:AppImplMswBasic.obj
 0001:0001ab90       ?push_back@?$vector@VTouch@TouchEvent@app@cinder@@V?$allocator@VTouch@TouchEvent@app@cinder@@@std@@@std@@QAEXABVTouch@TouchEvent@app@cinder@@@Z 0041bb90 f i cinder:AppImplMswBasic.obj
 0001:0001ac10       ??B?$shared_ptr@VImageTarget@cinder@@@boost@@QBEPQ01@PAVImageTarget@cinder@@XZ 0041bc10 f i cinder:ImageIo.obj
 0001:0001ac10       ??B?$shared_ptr@UtagTOUCHINPUT@@@boost@@QBEPQ01@PAUtagTOUCHINPUT@@XZ 0041bc10 f i cinder:AppImplMswBasic.obj
 0001:0001ac30       ??0?$_Tree@V?$_Tmap_traits@KV?$Vec2@M@cinder@@U?$less@K@std@@V?$allocator@U?$pair@$$CBKV?$Vec2@M@cinder@@@std@@@4@$0A@@std@@@std@@QAE@ABU?$less@K@1@ABV?$allocator@U?$pair@$$CBKV?$Vec2@M@cinder@@@std@@@1@@Z 0041bc30 f i cinder:AppImplMswBasic.obj
 0001:0001aca0       ?end@?$_Tree@V?$_Tmap_traits@KV?$Vec2@M@cinder@@U?$less@K@std@@V?$allocator@U?$pair@$$CBKV?$Vec2@M@cinder@@@std@@@4@$0A@@std@@@std@@QAE?AViterator@12@XZ 0041bca0 f i cinder:AppImplMswBasic.obj
 0001:0001aca0       ?end@?$_Tree@V?$_Tmap_traits@V?$basic_string@DU?$char_traits@D@std@@V?$allocator@D@2@@std@@_NU?$less@V?$basic_string@DU?$char_traits@D@std@@V?$allocator@D@2@@std@@@2@V?$allocator@U?$pair@$$CBV?$basic_string@DU?$char_traits@D@std@@V?$allocator@D@2@@std@@_N@std@@@2@$0A@@std@@@std@@QAE?AViterator@12@XZ 0041bca0 f i cinder:gl.obj
 0001:0001acd0       ?insert@?$_Tree@V?$_Tmap_traits@KV?$Vec2@M@cinder@@U?$less@K@std@@V?$allocator@U?$pair@$$CBKV?$Vec2@M@cinder@@@std@@@4@$0A@@std@@@std@@QAE?AViterator@12@Vconst_iterator@12@ABU?$pair@$$CBKV?$Vec2@M@cinder@@@2@@Z 0041bcd0 f i cinder:AppImplMswBasic.obj
 0001:0001b2f0       ?erase@?$_Tree@V?$_Tmap_traits@KV?$Vec2@M@cinder@@U?$less@K@std@@V?$allocator@U?$pair@$$CBKV?$Vec2@M@cinder@@@std@@@4@$0A@@std@@@std@@QAE?AViterator@12@Vconst_iterator@12@0@Z 0041c2f0 f i cinder:AppImplMswBasic.obj
 0001:0001b3a0       ?lower_bound@?$_Tree@V?$_Tmap_traits@KV?$Vec2@M@cinder@@U?$less@K@std@@V?$allocator@U?$pair@$$CBKV?$Vec2@M@cinder@@@std@@@4@$0A@@std@@@std@@QAE?AViterator@12@ABK@Z 0041c3a0 f i cinder:AppImplMswBasic.obj
 0001:0001b3d0       ?equal_range@?$_Tree@V?$_Tmap_traits@KV?$Vec2@M@cinder@@U?$less@K@std@@V?$allocator@U?$pair@$$CBKV?$Vec2@M@cinder@@@std@@@4@$0A@@std@@@std@@QAE?AU?$pair@Viterator@?$_Tree@V?$_Tmap_traits@KV?$Vec2@M@cinder@@U?$less@K@std@@V?$allocator@U?$pair@$$CBKV?$Vec2@M@cinder@@@std@@@4@$0A@@std@@@std@@V123@@2@ABK@Z 0041c3d0 f i cinder:AppImplMswBasic.obj
 0001:0001b3f0       ?_Tidy@?$_Tree@V?$_Tmap_traits@KV?$Vec2@M@cinder@@U?$less@K@std@@V?$allocator@U?$pair@$$CBKV?$Vec2@M@cinder@@@std@@@4@$0A@@std@@@std@@IAEXXZ 0041c3f0 f i cinder:AppImplMswBasic.obj
 0001:0001b4c0       ??R?$less@K@std@@QBE_NABK0@Z 0041c4c0 f i cinder:AppImplMswBasic.obj
 0001:0001b4e0       ?capacity@?$vector@VTouch@TouchEvent@app@cinder@@V?$allocator@VTouch@TouchEvent@app@cinder@@@std@@@std@@QBEIXZ 0041c4e0 f i cinder:AppImplMswBasic.obj
 0001:0001b520       ?insert@?$vector@VTouch@TouchEvent@app@cinder@@V?$allocator@VTouch@TouchEvent@app@cinder@@@std@@@std@@QAE?AV?$_Vector_iterator@VTouch@TouchEvent@app@cinder@@V?$allocator@VTouch@TouchEvent@app@cinder@@@std@@@2@V?$_Vector_const_iterator@VTouch@TouchEvent@app@cinder@@V?$allocator@VTouch@TouchEvent@app@cinder@@@std@@@2@ABVTouch@TouchEvent@app@cinder@@@Z 0041c520 f i cinder:AppImplMswBasic.obj
 0001:0001b5a0       ?clear@?$vector@VTouch@TouchEvent@app@cinder@@V?$allocator@VTouch@TouchEvent@app@cinder@@@std@@@std@@QAEXXZ 0041c5a0 f i cinder:AppImplMswBasic.obj
 0001:0001b600       ?_Ufill@?$vector@VTouch@TouchEvent@app@cinder@@V?$allocator@VTouch@TouchEvent@app@cinder@@@std@@@std@@IAEPAVTouch@TouchEvent@app@cinder@@PAV3456@IABV3456@@Z 0041c600 f i cinder:AppImplMswBasic.obj
 0001:0001b640       ??Diterator@?$_Tree@V?$_Tmap_traits@V?$basic_string@DU?$char_traits@D@std@@V?$allocator@D@2@@std@@_NU?$less@V?$basic_string@DU?$char_traits@D@std@@V?$allocator@D@2@@std@@@2@V?$allocator@U?$pair@$$CBV?$basic_string@DU?$char_traits@D@std@@V?$allocator@D@2@@std@@_N@std@@@2@$0A@@std@@@std@@QBEAAU?$pair@$$CBV?$basic_string@DU?$char_traits@D@std@@V?$allocator@D@2@@std@@_N@2@XZ 0041c640 f i cinder:gl.obj
 0001:0001b640       ??Diterator@?$_Tree@V?$_Tmap_traits@KV?$Vec2@M@cinder@@U?$less@K@std@@V?$allocator@U?$pair@$$CBKV?$Vec2@M@cinder@@@std@@@4@$0A@@std@@@std@@QBEAAU?$pair@$$CBKV?$Vec2@M@cinder@@@2@XZ 0041c640 f i cinder:AppImplMswBasic.obj
 0001:0001b640       ??Cconst_iterator@?$_Tree@V?$_Tmap_traits@V?$basic_string@DU?$char_traits@D@std@@V?$allocator@D@2@@std@@_NU?$less@V?$basic_string@DU?$char_traits@D@std@@V?$allocator@D@2@@std@@@2@V?$allocator@U?$pair@$$CBV?$basic_string@DU?$char_traits@D@std@@V?$allocator@D@2@@std@@_N@std@@@2@$0A@@std@@@std@@QBEPBU?$pair@$$CBV?$basic_string@DU?$char_traits@D@std@@V?$allocator@D@2@@std@@_N@2@XZ 0041c640 f i cinder:gl.obj
 0001:0001b660       ??0?$pair@$$CBKV?$Vec2@M@cinder@@@std@@QAE@ABKABV?$Vec2@M@cinder@@@Z 0041c660 f i cinder:AppImplMswBasic.obj
 0001:0001b690       ??G?$_Vector_iterator@VTouch@TouchEvent@app@cinder@@V?$allocator@VTouch@TouchEvent@app@cinder@@@std@@@std@@QBE?AV01@H@Z 0041c690 f i cinder:AppImplMswBasic.obj
 0001:0001b6d0       ?_Isnil@?$_Tree@V?$_Tmap_traits@KV?$Vec2@M@cinder@@U?$less@K@std@@V?$allocator@U?$pair@$$CBKV?$Vec2@M@cinder@@@std@@@4@$0A@@std@@@std@@KAAADPAU_Node@?$_Tree_nod@V?$_Tmap_traits@KV?$Vec2@M@cinder@@U?$less@K@std@@V?$allocator@U?$pair@$$CBKV?$Vec2@M@cinder@@@std@@@4@$0A@@std@@@2@@Z 0041c6d0 f i cinder:AppImplMswBasic.obj
 0001:0001b6e0       ?begin@?$_Tree@V?$_Tmap_traits@KV?$Vec2@M@cinder@@U?$less@K@std@@V?$allocator@U?$pair@$$CBKV?$Vec2@M@cinder@@@std@@@4@$0A@@std@@@std@@QAE?AViterator@12@XZ 0041c6e0 f i cinder:AppImplMswBasic.obj
 0001:0001b6e0       ?begin@?$_Tree@V?$_Tmap_traits@V?$basic_string@DU?$char_traits@D@std@@V?$allocator@D@2@@std@@_NU?$less@V?$basic_string@DU?$char_traits@D@std@@V?$allocator@D@2@@std@@@2@V?$allocator@U?$pair@$$CBV?$basic_string@DU?$char_traits@D@std@@V?$allocator@D@2@@std@@_N@std@@@2@$0A@@std@@@std@@QAE?AViterator@12@XZ 0041c6e0 f i cinder:gl.obj
 0001:0001b710       ?insert@?$_Tree@V?$_Tmap_traits@KV?$Vec2@M@cinder@@U?$less@K@std@@V?$allocator@U?$pair@$$CBKV?$Vec2@M@cinder@@@std@@@4@$0A@@std@@@std@@QAE?AU?$pair@Viterator@?$_Tree@V?$_Tmap_traits@KV?$Vec2@M@cinder@@U?$less@K@std@@V?$allocator@U?$pair@$$CBKV?$Vec2@M@cinder@@@std@@@4@$0A@@std@@@std@@_N@2@ABU?$pair@$$CBKV?$Vec2@M@cinder@@@2@@Z 0041c710 f i cinder:AppImplMswBasic.obj
 0001:0001b8e0       ?erase@?$_Tree@V?$_Tmap_traits@KV?$Vec2@M@cinder@@U?$less@K@std@@V?$allocator@U?$pair@$$CBKV?$Vec2@M@cinder@@@std@@@4@$0A@@std@@@std@@QAE?AViterator@12@Vconst_iterator@12@@Z 0041c8e0 f i cinder:AppImplMswBasic.obj
 0001:0001c0c0       ?clear@?$_Tree@V?$_Tmap_traits@KV?$Vec2@M@cinder@@U?$less@K@std@@V?$allocator@U?$pair@$$CBKV?$Vec2@M@cinder@@@std@@@4@$0A@@std@@@std@@QAEXXZ 0041d0c0 f i cinder:AppImplMswBasic.obj
 0001:0001c120       ?_Eqrange@?$_Tree@V?$_Tmap_traits@KV?$Vec2@M@cinder@@U?$less@K@std@@V?$allocator@U?$pair@$$CBKV?$Vec2@M@cinder@@@std@@@4@$0A@@std@@@std@@IAE?AU?$pair@Viterator@?$_Tree@V?$_Tmap_traits@KV?$Vec2@M@cinder@@U?$less@K@std@@V?$allocator@U?$pair@$$CBKV?$Vec2@M@cinder@@@std@@@4@$0A@@std@@@std@@V123@@2@ABK@Z 0041d120 f i cinder:AppImplMswBasic.obj
 0001:0001c2d0       ?_Init@?$_Tree@V?$_Tmap_traits@KV?$Vec2@M@cinder@@U?$less@K@std@@V?$allocator@U?$pair@$$CBKV?$Vec2@M@cinder@@@std@@@4@$0A@@std@@@std@@IAEXXZ 0041d2d0 f i cinder:AppImplMswBasic.obj
 0001:0001c340       ?_Insert@?$_Tree@V?$_Tmap_traits@KV?$Vec2@M@cinder@@U?$less@K@std@@V?$allocator@U?$pair@$$CBKV?$Vec2@M@cinder@@@std@@@4@$0A@@std@@@std@@IAE?AViterator@12@_NPAU_Node@?$_Tree_nod@V?$_Tmap_traits@KV?$Vec2@M@cinder@@U?$less@K@std@@V?$allocator@U?$pair@$$CBKV?$Vec2@M@cinder@@@std@@@4@$0A@@std@@@2@ABU?$pair@$$CBKV?$Vec2@M@cinder@@@2@@Z 0041d340 f i cinder:AppImplMswBasic.obj
 0001:0001c7c0       ?_Lbound@?$_Tree@V?$_Tmap_traits@KV?$Vec2@M@cinder@@U?$less@K@std@@V?$allocator@U?$pair@$$CBKV?$Vec2@M@cinder@@@std@@@4@$0A@@std@@@std@@IBEPAU_Node@?$_Tree_nod@V?$_Tmap_traits@KV?$Vec2@M@cinder@@U?$less@K@std@@V?$allocator@U?$pair@$$CBKV?$Vec2@M@cinder@@@std@@@4@$0A@@std@@@2@ABK@Z 0041d7c0 f i cinder:AppImplMswBasic.obj
 0001:0001c850       ??0?$_Tree_val@V?$_Tmap_traits@V?$basic_string@DU?$char_traits@D@std@@V?$allocator@D@2@@std@@V?$multimap@JU?$pair@P6A?AV?$shared_ptr@VImageTarget@cinder@@@boost@@V?$shared_ptr@VDataTarget@cinder@@@2@V?$shared_ptr@VImageSource@cinder@@@2@VOptions@ImageTarget@cinder@@ABV?$basic_string@DU?$char_traits@D@std@@V?$allocator@D@2@@std@@@ZV89@@std@@U?$less@J@2@V?$allocator@U?$pair@$$CBJU?$pair@P6A?AV?$shared_ptr@VImageTarget@cinder@@@boost@@V?$shared_ptr@VDataTarget@cinder@@@2@V?$shared_ptr@VImageSource@cinder@@@2@VOptions@ImageTarget@cinder@@ABV?$basic_string@DU?$char_traits@D@std@@V?$allocator@D@2@@std@@@ZV89@@std@@@std@@@2@@2@U?$less@V?$basic_string@DU?$char_traits@D@std@@V?$allocator@D@2@@std@@@2@V?$allocator@U?$pair@$$CBV?$basic_string@DU?$char_traits@D@std@@V?$allocator@D@2@@std@@V?$multimap@JU?$pair@P6A?AV?$shared_ptr@VImageTarget@cinder@@@boost@@V?$shared_ptr@VDataTarget@cinder@@@2@V?$shared_ptr@VImageSource@cinder@@@2@VOptions@ImageTarget@cinder@@ABV?$basic_string@DU?$char_traits@D@std@@V?$allocator@D@2@@std@@@ZV89@@std@@U?$less@J@2@V?$allocator@U?$pair@$$CBJU?$pair@P6A?AV?$shared_ptr@VImageTarget@cinder@@@boost@@V?$shared_ptr@VDataTarget@cinder@@@2@V?$shared_ptr@VImageSource@cinder@@@2@VOptions@ImageTarget@cinder@@ABV?$basic_string@DU?$char_traits@D@std@@V?$allocator@D@2@@std@@@ZV89@@std@@@std@@@2@@2@@std@@@2@$0A@@std@@@std@@IAE@ABU?$less@V?$basic_string@DU?$char_traits@D@std@@V?$allocator@D@2@@std@@@1@V?$allocator@U?$pair@$$CBV?$basic_string@DU?$char_traits@D@std@@V?$allocator@D@2@@std@@V?$multimap@JU?$pair@P6A?AV?$shared_ptr@VImageTarget@cinder@@@boost@@V?$shared_ptr@VDataTarget@cinder@@@2@V?$shared_ptr@VImageSource@cinder@@@2@VOptions@ImageTarget@cinder@@ABV?$basic_string@DU?$char_traits@D@std@@V?$allocator@D@2@@std@@@ZV89@@std@@U?$less@J@2@V?$allocator@U?$pair@$$CBJU?$pair@P6A?AV?$shared_ptr@VImageTarget@cinder@@@boost@@V?$shared_ptr@VDataTarget@cinder@@@2@V?$shared_ptr@VImageSource@cinder@@@2@VOptions@ImageTarget@cinder@@ABV?$basic_string@DU?$char_traits@D@std@@V?$allocator@D@2@@std@@@ZV89@@std@@@std@@@2@@2@@std@@@1@@Z 0041d850 f i cinder:ImageIo.obj
 0001:0001c850       ??0?$_Tree_val@V?$_Tmap_traits@JU?$pair@P6A?AV?$shared_ptr@VImageTarget@cinder@@@boost@@V?$shared_ptr@VDataTarget@cinder@@@2@V?$shared_ptr@VImageSource@cinder@@@2@VOptions@ImageTarget@cinder@@ABV?$basic_string@DU?$char_traits@D@std@@V?$allocator@D@2@@std@@@ZV89@@std@@U?$less@J@2@V?$allocator@U?$pair@$$CBJU?$pair@P6A?AV?$shared_ptr@VImageTarget@cinder@@@boost@@V?$shared_ptr@VDataTarget@cinder@@@2@V?$shared_ptr@VImageSource@cinder@@@2@VOptions@ImageTarget@cinder@@ABV?$basic_string@DU?$char_traits@D@std@@V?$allocator@D@2@@std@@@ZV89@@std@@@std@@@2@$00@std@@@std@@IAE@ABU?$less@J@1@V?$allocator@U?$pair@$$CBJU?$pair@P6A?AV?$shared_ptr@VImageTarget@cinder@@@boost@@V?$shared_ptr@VDataTarget@cinder@@@2@V?$shared_ptr@VImageSource@cinder@@@2@VOptions@ImageTarget@cinder@@ABV?$basic_string@DU?$char_traits@D@std@@V?$allocator@D@2@@std@@@ZV89@@std@@@std@@@1@@Z 0041d850 f i cinder:ImageIo.obj
 0001:0001c850       ??0?$_Tree_val@V?$_Tmap_traits@JP6A?AV?$shared_ptr@VImageSource@cinder@@@boost@@V?$shared_ptr@VDataSource@cinder@@@2@VOptions@ImageSource@cinder@@@ZU?$less@J@std@@V?$allocator@U?$pair@$$CBJP6A?AV?$shared_ptr@VImageSource@cinder@@@boost@@V?$shared_ptr@VDataSource@cinder@@@2@VOptions@ImageSource@cinder@@@Z@std@@@8@$0A@@std@@@std@@IAE@ABU?$less@J@1@V?$allocator@U?$pair@$$CBJP6A?AV?$shared_ptr@VImageSource@cinder@@@boost@@V?$shared_ptr@VDataSource@cinder@@@2@VOptions@ImageSource@cinder@@@Z@std@@@1@@Z 0041d850 f i cinder:ImageIo.obj
 0001:0001c850       ??0?$_Tree_val@V?$_Tmap_traits@V?$basic_string@DU?$char_traits@D@std@@V?$allocator@D@2@@std@@PBU_GUID@@U?$less@V?$basic_string@DU?$char_traits@D@std@@V?$allocator@D@2@@std@@@2@V?$allocator@U?$pair@$$CBV?$basic_string@DU?$char_traits@D@std@@V?$allocator@D@2@@std@@PBU_GUID@@@std@@@2@$0A@@std@@@std@@IAE@ABU?$less@V?$basic_string@DU?$char_traits@D@std@@V?$allocator@D@2@@std@@@1@V?$allocator@U?$pair@$$CBV?$basic_string@DU?$char_traits@D@std@@V?$allocator@D@2@@std@@PBU_GUID@@@std@@@1@@Z 0041d850 f i cinder:ImageTargetFileWic.obj
 0001:0001c850       ??0?$_Tree_val@V?$_Tmap_traits@V?$basic_string@DU?$char_traits@D@std@@V?$allocator@D@2@@std@@_NU?$less@V?$basic_string@DU?$char_traits@D@std@@V?$allocator@D@2@@std@@@2@V?$allocator@U?$pair@$$CBV?$basic_string@DU?$char_traits@D@std@@V?$allocator@D@2@@std@@_N@std@@@2@$0A@@std@@@std@@IAE@ABU?$less@V?$basic_string@DU?$char_traits@D@std@@V?$allocator@D@2@@std@@@1@V?$allocator@U?$pair@$$CBV?$basic_string@DU?$char_traits@D@std@@V?$allocator@D@2@@std@@_N@std@@@1@@Z 0041d850 f i cinder:gl.obj
 0001:0001c850       ??0?$_Tree_val@V?$_Tmap_traits@V?$basic_string@DU?$char_traits@D@std@@V?$allocator@D@2@@std@@V?$multimap@JP6A?AV?$shared_ptr@VImageSource@cinder@@@boost@@V?$shared_ptr@VDataSource@cinder@@@2@VOptions@ImageSource@cinder@@@ZU?$less@J@std@@V?$allocator@U?$pair@$$CBJP6A?AV?$shared_ptr@VImageSource@cinder@@@boost@@V?$shared_ptr@VDataSource@cinder@@@2@VOptions@ImageSource@cinder@@@Z@std@@@8@@2@U?$less@V?$basic_string@DU?$char_traits@D@std@@V?$allocator@D@2@@std@@@2@V?$allocator@U?$pair@$$CBV?$basic_string@DU?$char_traits@D@std@@V?$allocator@D@2@@std@@V?$multimap@JP6A?AV?$shared_ptr@VImageSource@cinder@@@boost@@V?$shared_ptr@VDataSource@cinder@@@2@VOptions@ImageSource@cinder@@@ZU?$less@J@std@@V?$allocator@U?$pair@$$CBJP6A?AV?$shared_ptr@VImageSource@cinder@@@boost@@V?$shared_ptr@VDataSource@cinder@@@2@VOptions@ImageSource@cinder@@@Z@std@@@8@@2@@std@@@2@$0A@@std@@@std@@IAE@ABU?$less@V?$basic_string@DU?$char_traits@D@std@@V?$allocator@D@2@@std@@@1@V?$allocator@U?$pair@$$CBV?$basic_string@DU?$char_traits@D@std@@V?$allocator@D@2@@std@@V?$multimap@JP6A?AV?$shared_ptr@VImageSource@cinder@@@boost@@V?$shared_ptr@VDataSource@cinder@@@2@VOptions@ImageSource@cinder@@@ZU?$less@J@std@@V?$allocator@U?$pair@$$CBJP6A?AV?$shared_ptr@VImageSource@cinder@@@boost@@V?$shared_ptr@VDataSource@cinder@@@2@VOptions@ImageSource@cinder@@@Z@std@@@8@@2@@std@@@1@@Z 0041d850 f i cinder:ImageIo.obj
 0001:0001c850       ??0?$_Tree_val@V?$_Tmap_traits@KV?$Vec2@M@cinder@@U?$less@K@std@@V?$allocator@U?$pair@$$CBKV?$Vec2@M@cinder@@@std@@@4@$0A@@std@@@std@@IAE@ABU?$less@K@1@V?$allocator@U?$pair@$$CBKV?$Vec2@M@cinder@@@std@@@1@@Z 0041d850 f i cinder:AppImplMswBasic.obj
 0001:0001c850       ??0?$_Tree_val@V?$_Tmap_traits@JP6A?AV?$shared_ptr@VImageSource@cinder@@@boost@@V?$shared_ptr@VDataSource@cinder@@@2@VOptions@ImageSource@cinder@@@ZU?$less@J@std@@V?$allocator@U?$pair@$$CBJP6A?AV?$shared_ptr@VImageSource@cinder@@@boost@@V?$shared_ptr@VDataSource@cinder@@@2@VOptions@ImageSource@cinder@@@Z@std@@@8@$00@std@@@std@@IAE@ABU?$less@J@1@V?$allocator@U?$pair@$$CBJP6A?AV?$shared_ptr@VImageSource@cinder@@@boost@@V?$shared_ptr@VDataSource@cinder@@@2@VOptions@ImageSource@cinder@@@Z@std@@@1@@Z 0041d850 f i cinder:ImageIo.obj
 0001:0001c890       ?erase@?$vector@VTouch@TouchEvent@app@cinder@@V?$allocator@VTouch@TouchEvent@app@cinder@@@std@@@std@@QAE?AV?$_Vector_iterator@VTouch@TouchEvent@app@cinder@@V?$allocator@VTouch@TouchEvent@app@cinder@@@std@@@2@V?$_Vector_const_iterator@VTouch@TouchEvent@app@cinder@@V?$allocator@VTouch@TouchEvent@app@cinder@@@std@@@2@0@Z 0041d890 f i cinder:AppImplMswBasic.obj
 0001:0001c930       ?_Insert_n@?$vector@VTouch@TouchEvent@app@cinder@@V?$allocator@VTouch@TouchEvent@app@cinder@@@std@@@std@@IAEXV?$_Vector_const_iterator@VTouch@TouchEvent@app@cinder@@V?$allocator@VTouch@TouchEvent@app@cinder@@@std@@@2@IABVTouch@TouchEvent@app@cinder@@@Z 0041d930 f i cinder:AppImplMswBasic.obj
 0001:0001ccb0       ??G?$_Vector_const_iterator@VTouch@TouchEvent@app@cinder@@V?$allocator@VTouch@TouchEvent@app@cinder@@@std@@@std@@QBEHABV01@@Z 0041dcb0 f i cinder:AppImplMswBasic.obj
 0001:0001cd00       ??Dconst_iterator@?$_Tree@V?$_Tmap_traits@KV?$Vec2@M@cinder@@U?$less@K@std@@V?$allocator@U?$pair@$$CBKV?$Vec2@M@cinder@@@std@@@4@$0A@@std@@@std@@QBEABU?$pair@$$CBKV?$Vec2@M@cinder@@@2@XZ 0041dd00 f i cinder:AppImplMswBasic.obj
 0001:0001cd00       ??Dconst_iterator@?$_Tree@V?$_Tmap_traits@V?$basic_string@DU?$char_traits@D@std@@V?$allocator@D@2@@std@@_NU?$less@V?$basic_string@DU?$char_traits@D@std@@V?$allocator@D@2@@std@@@2@V?$allocator@U?$pair@$$CBV?$basic_string@DU?$char_traits@D@std@@V?$allocator@D@2@@std@@_N@std@@@2@$0A@@std@@@std@@QBEABU?$pair@$$CBV?$basic_string@DU?$char_traits@D@std@@V?$allocator@D@2@@std@@_N@2@XZ 0041dd00 f i cinder:gl.obj
 0001:0001cd50       ??Econst_iterator@?$_Tree@V?$_Tmap_traits@KV?$Vec2@M@cinder@@U?$less@K@std@@V?$allocator@U?$pair@$$CBKV?$Vec2@M@cinder@@@std@@@4@$0A@@std@@@std@@QAEAAV012@XZ 0041dd50 f i cinder:AppImplMswBasic.obj
 0001:0001cd70       ??Econst_iterator@?$_Tree@V?$_Tmap_traits@KV?$Vec2@M@cinder@@U?$less@K@std@@V?$allocator@U?$pair@$$CBKV?$Vec2@M@cinder@@@std@@@4@$0A@@std@@@std@@QAE?AV012@H@Z 0041dd70 f i cinder:AppImplMswBasic.obj
 0001:0001cdb0       ??Fconst_iterator@?$_Tree@V?$_Tmap_traits@KV?$Vec2@M@cinder@@U?$less@K@std@@V?$allocator@U?$pair@$$CBKV?$Vec2@M@cinder@@@std@@@4@$0A@@std@@@std@@QAEAAV012@XZ 0041ddb0 f i cinder:AppImplMswBasic.obj
 0001:0001cdd0       ??0iterator@?$_Tree@V?$_Tmap_traits@V?$basic_string@DU?$char_traits@D@std@@V?$allocator@D@2@@std@@_NU?$less@V?$basic_string@DU?$char_traits@D@std@@V?$allocator@D@2@@std@@@2@V?$allocator@U?$pair@$$CBV?$basic_string@DU?$char_traits@D@std@@V?$allocator@D@2@@std@@_N@std@@@2@$0A@@std@@@std@@QAE@PAU_Node@?$_Tree_nod@V?$_Tmap_traits@V?$basic_string@DU?$char_traits@D@std@@V?$allocator@D@2@@std@@_NU?$less@V?$basic_string@DU?$char_traits@D@std@@V?$allocator@D@2@@std@@@2@V?$allocator@U?$pair@$$CBV?$basic_string@DU?$char_traits@D@std@@V?$allocator@D@2@@std@@_N@std@@@2@$0A@@std@@@2@PBV12@@Z 0041ddd0 f i cinder:gl.obj
 0001:0001cdd0       ??0iterator@?$_Tree@V?$_Tmap_traits@KV?$Vec2@M@cinder@@U?$less@K@std@@V?$allocator@U?$pair@$$CBKV?$Vec2@M@cinder@@@std@@@4@$0A@@std@@@std@@QAE@PAU_Node@?$_Tree_nod@V?$_Tmap_traits@KV?$Vec2@M@cinder@@U?$less@K@std@@V?$allocator@U?$pair@$$CBKV?$Vec2@M@cinder@@@std@@@4@$0A@@std@@@2@PBV12@@Z 0041ddd0 f i cinder:AppImplMswBasic.obj
 0001:0001cdf0       ??H?$_Vector_iterator@VTouch@TouchEvent@app@cinder@@V?$allocator@VTouch@TouchEvent@app@cinder@@@std@@@std@@QBE?AV01@H@Z 0041ddf0 f i cinder:AppImplMswBasic.obj
 0001:0001ce30       ??Z?$_Vector_iterator@VTouch@TouchEvent@app@cinder@@V?$allocator@VTouch@TouchEvent@app@cinder@@@std@@@std@@QAEAAV01@H@Z 0041de30 f i cinder:AppImplMswBasic.obj
 0001:0001ce50       ?_Color@?$_Tree@V?$_Tmap_traits@KV?$Vec2@M@cinder@@U?$less@K@std@@V?$allocator@U?$pair@$$CBKV?$Vec2@M@cinder@@@std@@@4@$0A@@std@@@std@@KAAADPAU_Node@?$_Tree_nod@V?$_Tmap_traits@KV?$Vec2@M@cinder@@U?$less@K@std@@V?$allocator@U?$pair@$$CBKV?$Vec2@M@cinder@@@std@@@4@$0A@@std@@@2@@Z 0041de50 f i cinder:AppImplMswBasic.obj
 0001:0001ce60       ?max_size@?$_Tree@V?$_Tmap_traits@KV?$Vec2@M@cinder@@U?$less@K@std@@V?$allocator@U?$pair@$$CBKV?$Vec2@M@cinder@@@std@@@4@$0A@@std@@@std@@QBEIXZ 0041de60 f i cinder:AppImplMswBasic.obj
 0001:0001ce80       ?_Erase@?$_Tree@V?$_Tmap_traits@KV?$Vec2@M@cinder@@U?$less@K@std@@V?$allocator@U?$pair@$$CBKV?$Vec2@M@cinder@@@std@@@4@$0A@@std@@@std@@IAEXPAU_Node@?$_Tree_nod@V?$_Tmap_traits@KV?$Vec2@M@cinder@@U?$less@K@std@@V?$allocator@U?$pair@$$CBKV?$Vec2@M@cinder@@@std@@@4@$0A@@std@@@2@@Z 0041de80 f i cinder:AppImplMswBasic.obj
 0001:0001cf00       ?_Lrotate@?$_Tree@V?$_Tmap_traits@KV?$Vec2@M@cinder@@U?$less@K@std@@V?$allocator@U?$pair@$$CBKV?$Vec2@M@cinder@@@std@@@4@$0A@@std@@@std@@IAEXPAU_Node@?$_Tree_nod@V?$_Tmap_traits@KV?$Vec2@M@cinder@@U?$less@K@std@@V?$allocator@U?$pair@$$CBKV?$Vec2@M@cinder@@@std@@@4@$0A@@std@@@2@@Z 0041df00 f i cinder:AppImplMswBasic.obj
 0001:0001d030       ?_Max@?$_Tree@V?$_Tmap_traits@KV?$Vec2@M@cinder@@U?$less@K@std@@V?$allocator@U?$pair@$$CBKV?$Vec2@M@cinder@@@std@@@4@$0A@@std@@@std@@KAPAU_Node@?$_Tree_nod@V?$_Tmap_traits@KV?$Vec2@M@cinder@@U?$less@K@std@@V?$allocator@U?$pair@$$CBKV?$Vec2@M@cinder@@@std@@@4@$0A@@std@@@2@PAU342@@Z 0041e030 f i cinder:AppImplMswBasic.obj
 0001:0001d070       ?_Min@?$_Tree@V?$_Tmap_traits@KV?$Vec2@M@cinder@@U?$less@K@std@@V?$allocator@U?$pair@$$CBKV?$Vec2@M@cinder@@@std@@@4@$0A@@std@@@std@@KAPAU_Node@?$_Tree_nod@V?$_Tmap_traits@KV?$Vec2@M@cinder@@U?$less@K@std@@V?$allocator@U?$pair@$$CBKV?$Vec2@M@cinder@@@std@@@4@$0A@@std@@@2@PAU342@@Z 0041e070 f i cinder:AppImplMswBasic.obj
 0001:0001d0b0       ?_Rrotate@?$_Tree@V?$_Tmap_traits@KV?$Vec2@M@cinder@@U?$less@K@std@@V?$allocator@U?$pair@$$CBKV?$Vec2@M@cinder@@@std@@@4@$0A@@std@@@std@@IAEXPAU_Node@?$_Tree_nod@V?$_Tmap_traits@KV?$Vec2@M@cinder@@U?$less@K@std@@V?$allocator@U?$pair@$$CBKV?$Vec2@M@cinder@@@std@@@4@$0A@@std@@@2@@Z 0041e0b0 f i cinder:AppImplMswBasic.obj
 0001:0001d1e0       ?_Buynode@?$_Tree@V?$_Tmap_traits@KV?$Vec2@M@cinder@@U?$less@K@std@@V?$allocator@U?$pair@$$CBKV?$Vec2@M@cinder@@@std@@@4@$0A@@std@@@std@@IAEPAU_Node@?$_Tree_nod@V?$_Tmap_traits@KV?$Vec2@M@cinder@@U?$less@K@std@@V?$allocator@U?$pair@$$CBKV?$Vec2@M@cinder@@@std@@@4@$0A@@std@@@2@XZ 0041e1e0 f i cinder:AppImplMswBasic.obj
 0001:0001d360       ?_Buynode@?$_Tree@V?$_Tmap_traits@KV?$Vec2@M@cinder@@U?$less@K@std@@V?$allocator@U?$pair@$$CBKV?$Vec2@M@cinder@@@std@@@4@$0A@@std@@@std@@IAEPAU_Node@?$_Tree_nod@V?$_Tmap_traits@KV?$Vec2@M@cinder@@U?$less@K@std@@V?$allocator@U?$pair@$$CBKV?$Vec2@M@cinder@@@std@@@4@$0A@@std@@@2@PAU342@00ABU?$pair@$$CBKV?$Vec2@M@cinder@@@2@D@Z 0041e360 f i cinder:AppImplMswBasic.obj
 0001:0001d450       ??0?$_Tree_ptr@V?$_Tmap_traits@JP6A?AV?$shared_ptr@VImageSource@cinder@@@boost@@V?$shared_ptr@VDataSource@cinder@@@2@VOptions@ImageSource@cinder@@@ZU?$less@J@std@@V?$allocator@U?$pair@$$CBJP6A?AV?$shared_ptr@VImageSource@cinder@@@boost@@V?$shared_ptr@VDataSource@cinder@@@2@VOptions@ImageSource@cinder@@@Z@std@@@8@$00@std@@@std@@IAE@ABU?$less@J@1@V?$allocator@U?$pair@$$CBJP6A?AV?$shared_ptr@VImageSource@cinder@@@boost@@V?$shared_ptr@VDataSource@cinder@@@2@VOptions@ImageSource@cinder@@@Z@std@@@1@@Z 0041e450 f i cinder:ImageIo.obj
 0001:0001d450       ??0?$_Tree_ptr@V?$_Tmap_traits@JP6A?AV?$shared_ptr@VImageSource@cinder@@@boost@@V?$shared_ptr@VDataSource@cinder@@@2@VOptions@ImageSource@cinder@@@ZU?$less@J@std@@V?$allocator@U?$pair@$$CBJP6A?AV?$shared_ptr@VImageSource@cinder@@@boost@@V?$shared_ptr@VDataSource@cinder@@@2@VOptions@ImageSource@cinder@@@Z@std@@@8@$0A@@std@@@std@@IAE@ABU?$less@J@1@V?$allocator@U?$pair@$$CBJP6A?AV?$shared_ptr@VImageSource@cinder@@@boost@@V?$shared_ptr@VDataSource@cinder@@@2@VOptions@ImageSource@cinder@@@Z@std@@@1@@Z 0041e450 f i cinder:ImageIo.obj
 0001:0001d450       ??0?$_Tree_ptr@V?$_Tmap_traits@JU?$pair@P6A?AV?$shared_ptr@VImageTarget@cinder@@@boost@@V?$shared_ptr@VDataTarget@cinder@@@2@V?$shared_ptr@VImageSource@cinder@@@2@VOptions@ImageTarget@cinder@@ABV?$basic_string@DU?$char_traits@D@std@@V?$allocator@D@2@@std@@@ZV89@@std@@U?$less@J@2@V?$allocator@U?$pair@$$CBJU?$pair@P6A?AV?$shared_ptr@VImageTarget@cinder@@@boost@@V?$shared_ptr@VDataTarget@cinder@@@2@V?$shared_ptr@VImageSource@cinder@@@2@VOptions@ImageTarget@cinder@@ABV?$basic_string@DU?$char_traits@D@std@@V?$allocator@D@2@@std@@@ZV89@@std@@@std@@@2@$00@std@@@std@@IAE@ABU?$less@J@1@V?$allocator@U?$pair@$$CBJU?$pair@P6A?AV?$shared_ptr@VImageTarget@cinder@@@boost@@V?$shared_ptr@VDataTarget@cinder@@@2@V?$shared_ptr@VImageSource@cinder@@@2@VOptions@ImageTarget@cinder@@ABV?$basic_string@DU?$char_traits@D@std@@V?$allocator@D@2@@std@@@ZV89@@std@@@std@@@1@@Z 0041e450 f i cinder:ImageIo.obj
 0001:0001d450       ??0?$_Tree_ptr@V?$_Tmap_traits@V?$basic_string@DU?$char_traits@D@std@@V?$allocator@D@2@@std@@V?$multimap@JP6A?AV?$shared_ptr@VImageSource@cinder@@@boost@@V?$shared_ptr@VDataSource@cinder@@@2@VOptions@ImageSource@cinder@@@ZU?$less@J@std@@V?$allocator@U?$pair@$$CBJP6A?AV?$shared_ptr@VImageSource@cinder@@@boost@@V?$shared_ptr@VDataSource@cinder@@@2@VOptions@ImageSource@cinder@@@Z@std@@@8@@2@U?$less@V?$basic_string@DU?$char_traits@D@std@@V?$allocator@D@2@@std@@@2@V?$allocator@U?$pair@$$CBV?$basic_string@DU?$char_traits@D@std@@V?$allocator@D@2@@std@@V?$multimap@JP6A?AV?$shared_ptr@VImageSource@cinder@@@boost@@V?$shared_ptr@VDataSource@cinder@@@2@VOptions@ImageSource@cinder@@@ZU?$less@J@std@@V?$allocator@U?$pair@$$CBJP6A?AV?$shared_ptr@VImageSource@cinder@@@boost@@V?$shared_ptr@VDataSource@cinder@@@2@VOptions@ImageSource@cinder@@@Z@std@@@8@@2@@std@@@2@$0A@@std@@@std@@IAE@ABU?$less@V?$basic_string@DU?$char_traits@D@std@@V?$allocator@D@2@@std@@@1@V?$allocator@U?$pair@$$CBV?$basic_string@DU?$char_traits@D@std@@V?$allocator@D@2@@std@@V?$multimap@JP6A?AV?$shared_ptr@VImageSource@cinder@@@boost@@V?$shared_ptr@VDataSource@cinder@@@2@VOptions@ImageSource@cinder@@@ZU?$less@J@std@@V?$allocator@U?$pair@$$CBJP6A?AV?$shared_ptr@VImageSource@cinder@@@boost@@V?$shared_ptr@VDataSource@cinder@@@2@VOptions@ImageSource@cinder@@@Z@std@@@8@@2@@std@@@1@@Z 0041e450 f i cinder:ImageIo.obj
 0001:0001d450       ??0?$_Tree_ptr@V?$_Tmap_traits@KV?$Vec2@M@cinder@@U?$less@K@std@@V?$allocator@U?$pair@$$CBKV?$Vec2@M@cinder@@@std@@@4@$0A@@std@@@std@@IAE@ABU?$less@K@1@V?$allocator@U?$pair@$$CBKV?$Vec2@M@cinder@@@std@@@1@@Z 0041e450 f i cinder:AppImplMswBasic.obj
 0001:0001d450       ??0?$_Tree_ptr@V?$_Tmap_traits@V?$basic_string@DU?$char_traits@D@std@@V?$allocator@D@2@@std@@_NU?$less@V?$basic_string@DU?$char_traits@D@std@@V?$allocator@D@2@@std@@@2@V?$allocator@U?$pair@$$CBV?$basic_string@DU?$char_traits@D@std@@V?$allocator@D@2@@std@@_N@std@@@2@$0A@@std@@@std@@IAE@ABU?$less@V?$basic_string@DU?$char_traits@D@std@@V?$allocator@D@2@@std@@@1@V?$allocator@U?$pair@$$CBV?$basic_string@DU?$char_traits@D@std@@V?$allocator@D@2@@std@@_N@std@@@1@@Z 0041e450 f i cinder:gl.obj
 0001:0001d450       ??0?$_Tree_ptr@V?$_Tmap_traits@V?$basic_string@DU?$char_traits@D@std@@V?$allocator@D@2@@std@@PBU_GUID@@U?$less@V?$basic_string@DU?$char_traits@D@std@@V?$allocator@D@2@@std@@@2@V?$allocator@U?$pair@$$CBV?$basic_string@DU?$char_traits@D@std@@V?$allocator@D@2@@std@@PBU_GUID@@@std@@@2@$0A@@std@@@std@@IAE@ABU?$less@V?$basic_string@DU?$char_traits@D@std@@V?$allocator@D@2@@std@@@1@V?$allocator@U?$pair@$$CBV?$basic_string@DU?$char_traits@D@std@@V?$allocator@D@2@@std@@PBU_GUID@@@std@@@1@@Z 0041e450 f i cinder:ImageTargetFileWic.obj
 0001:0001d450       ??0?$_Tree_ptr@V?$_Tmap_traits@V?$basic_string@DU?$char_traits@D@std@@V?$allocator@D@2@@std@@V?$multimap@JU?$pair@P6A?AV?$shared_ptr@VImageTarget@cinder@@@boost@@V?$shared_ptr@VDataTarget@cinder@@@2@V?$shared_ptr@VImageSource@cinder@@@2@VOptions@ImageTarget@cinder@@ABV?$basic_string@DU?$char_traits@D@std@@V?$allocator@D@2@@std@@@ZV89@@std@@U?$less@J@2@V?$allocator@U?$pair@$$CBJU?$pair@P6A?AV?$shared_ptr@VImageTarget@cinder@@@boost@@V?$shared_ptr@VDataTarget@cinder@@@2@V?$shared_ptr@VImageSource@cinder@@@2@VOptions@ImageTarget@cinder@@ABV?$basic_string@DU?$char_traits@D@std@@V?$allocator@D@2@@std@@@ZV89@@std@@@std@@@2@@2@U?$less@V?$basic_string@DU?$char_traits@D@std@@V?$allocator@D@2@@std@@@2@V?$allocator@U?$pair@$$CBV?$basic_string@DU?$char_traits@D@std@@V?$allocator@D@2@@std@@V?$multimap@JU?$pair@P6A?AV?$shared_ptr@VImageTarget@cinder@@@boost@@V?$shared_ptr@VDataTarget@cinder@@@2@V?$shared_ptr@VImageSource@cinder@@@2@VOptions@ImageTarget@cinder@@ABV?$basic_string@DU?$char_traits@D@std@@V?$allocator@D@2@@std@@@ZV89@@std@@U?$less@J@2@V?$allocator@U?$pair@$$CBJU?$pair@P6A?AV?$shared_ptr@VImageTarget@cinder@@@boost@@V?$shared_ptr@VDataTarget@cinder@@@2@V?$shared_ptr@VImageSource@cinder@@@2@VOptions@ImageTarget@cinder@@ABV?$basic_string@DU?$char_traits@D@std@@V?$allocator@D@2@@std@@@ZV89@@std@@@std@@@2@@2@@std@@@2@$0A@@std@@@std@@IAE@ABU?$less@V?$basic_string@DU?$char_traits@D@std@@V?$allocator@D@2@@std@@@1@V?$allocator@U?$pair@$$CBV?$basic_string@DU?$char_traits@D@std@@V?$allocator@D@2@@std@@V?$multimap@JU?$pair@P6A?AV?$shared_ptr@VImageTarget@cinder@@@boost@@V?$shared_ptr@VDataTarget@cinder@@@2@V?$shared_ptr@VImageSource@cinder@@@2@VOptions@ImageTarget@cinder@@ABV?$basic_string@DU?$char_traits@D@std@@V?$allocator@D@2@@std@@@ZV89@@std@@U?$less@J@2@V?$allocator@U?$pair@$$CBJU?$pair@P6A?AV?$shared_ptr@VImageTarget@cinder@@@boost@@V?$shared_ptr@VDataTarget@cinder@@@2@V?$shared_ptr@VImageSource@cinder@@@2@VOptions@ImageTarget@cinder@@ABV?$basic_string@DU?$char_traits@D@std@@V?$allocator@D@2@@std@@@ZV89@@std@@@std@@@2@@2@@std@@@1@@Z 0041e450 f i cinder:ImageIo.obj
 0001:0001d490       ??0const_iterator@?$_Tree@V?$_Tmap_traits@V?$basic_string@DU?$char_traits@D@std@@V?$allocator@D@2@@std@@_NU?$less@V?$basic_string@DU?$char_traits@D@std@@V?$allocator@D@2@@std@@@2@V?$allocator@U?$pair@$$CBV?$basic_string@DU?$char_traits@D@std@@V?$allocator@D@2@@std@@_N@std@@@2@$0A@@std@@@std@@QAE@PAU_Node@?$_Tree_nod@V?$_Tmap_traits@V?$basic_string@DU?$char_traits@D@std@@V?$allocator@D@2@@std@@_NU?$less@V?$basic_string@DU?$char_traits@D@std@@V?$allocator@D@2@@std@@@2@V?$allocator@U?$pair@$$CBV?$basic_string@DU?$char_traits@D@std@@V?$allocator@D@2@@std@@_N@std@@@2@$0A@@std@@@2@PBV12@@Z 0041e490 f i cinder:gl.obj
 0001:0001d490       ??0const_iterator@?$_Tree@V?$_Tmap_traits@KV?$Vec2@M@cinder@@U?$less@K@std@@V?$allocator@U?$pair@$$CBKV?$Vec2@M@cinder@@@std@@@4@$0A@@std@@@std@@QAE@PAU_Node@?$_Tree_nod@V?$_Tmap_traits@KV?$Vec2@M@cinder@@U?$less@K@std@@V?$allocator@U?$pair@$$CBKV?$Vec2@M@cinder@@@std@@@4@$0A@@std@@@2@PBV12@@Z 0041e490 f i cinder:AppImplMswBasic.obj
 0001:0001d4d0       ?_Dec@const_iterator@?$_Tree@V?$_Tmap_traits@KV?$Vec2@M@cinder@@U?$less@K@std@@V?$allocator@U?$pair@$$CBKV?$Vec2@M@cinder@@@std@@@4@$0A@@std@@@std@@QAEXXZ 0041e4d0 f i cinder:AppImplMswBasic.obj
 0001:0001d600       ?_Inc@const_iterator@?$_Tree@V?$_Tmap_traits@KV?$Vec2@M@cinder@@U?$less@K@std@@V?$allocator@U?$pair@$$CBKV?$Vec2@M@cinder@@@std@@@4@$0A@@std@@@std@@QAEXXZ 0041e600 f i cinder:AppImplMswBasic.obj
 0001:0001d6e0       ??Fiterator@?$_Tree@V?$_Tmap_traits@KV?$Vec2@M@cinder@@U?$less@K@std@@V?$allocator@U?$pair@$$CBKV?$Vec2@M@cinder@@@std@@@4@$0A@@std@@@std@@QAEAAV012@XZ 0041e6e0 f i cinder:AppImplMswBasic.obj
 0001:0001d700       ??0?$pair@Viterator@?$_Tree@V?$_Tmap_traits@KV?$Vec2@M@cinder@@U?$less@K@std@@V?$allocator@U?$pair@$$CBKV?$Vec2@M@cinder@@@std@@@4@$0A@@std@@@std@@V123@@std@@QAE@ABViterator@?$_Tree@V?$_Tmap_traits@KV?$Vec2@M@cinder@@U?$less@K@std@@V?$allocator@U?$pair@$$CBKV?$Vec2@M@cinder@@@std@@@4@$0A@@std@@@1@0@Z 0041e700 f i cinder:AppImplMswBasic.obj
 0001:0001d740       ??Y?$_Vector_iterator@VTouch@TouchEvent@app@cinder@@V?$allocator@VTouch@TouchEvent@app@cinder@@@std@@@std@@QAEAAV01@H@Z 0041e740 f i cinder:AppImplMswBasic.obj
 0001:0001d760       ??0?$_Tree_nod@V?$_Tmap_traits@V?$basic_string@DU?$char_traits@D@std@@V?$allocator@D@2@@std@@_NU?$less@V?$basic_string@DU?$char_traits@D@std@@V?$allocator@D@2@@std@@@2@V?$allocator@U?$pair@$$CBV?$basic_string@DU?$char_traits@D@std@@V?$allocator@D@2@@std@@_N@std@@@2@$0A@@std@@@std@@IAE@ABU?$less@V?$basic_string@DU?$char_traits@D@std@@V?$allocator@D@2@@std@@@1@V?$allocator@U?$pair@$$CBV?$basic_string@DU?$char_traits@D@std@@V?$allocator@D@2@@std@@_N@std@@@1@@Z 0041e760 f i cinder:gl.obj
 0001:0001d760       ??0?$_Tree_nod@V?$_Tmap_traits@JP6A?AV?$shared_ptr@VImageSource@cinder@@@boost@@V?$shared_ptr@VDataSource@cinder@@@2@VOptions@ImageSource@cinder@@@ZU?$less@J@std@@V?$allocator@U?$pair@$$CBJP6A?AV?$shared_ptr@VImageSource@cinder@@@boost@@V?$shared_ptr@VDataSource@cinder@@@2@VOptions@ImageSource@cinder@@@Z@std@@@8@$0A@@std@@@std@@IAE@ABU?$less@J@1@V?$allocator@U?$pair@$$CBJP6A?AV?$shared_ptr@VImageSource@cinder@@@boost@@V?$shared_ptr@VDataSource@cinder@@@2@VOptions@ImageSource@cinder@@@Z@std@@@1@@Z 0041e760 f i cinder:ImageIo.obj
 0001:0001d760       ??0?$_Tree_nod@V?$_Tmap_traits@KV?$Vec2@M@cinder@@U?$less@K@std@@V?$allocator@U?$pair@$$CBKV?$Vec2@M@cinder@@@std@@@4@$0A@@std@@@std@@IAE@ABU?$less@K@1@V?$allocator@U?$pair@$$CBKV?$Vec2@M@cinder@@@std@@@1@@Z 0041e760 f i cinder:AppImplMswBasic.obj
 0001:0001d760       ??0?$_Tree_nod@V?$_Tmap_traits@JP6A?AV?$shared_ptr@VImageSource@cinder@@@boost@@V?$shared_ptr@VDataSource@cinder@@@2@VOptions@ImageSource@cinder@@@ZU?$less@J@std@@V?$allocator@U?$pair@$$CBJP6A?AV?$shared_ptr@VImageSource@cinder@@@boost@@V?$shared_ptr@VDataSource@cinder@@@2@VOptions@ImageSource@cinder@@@Z@std@@@8@$00@std@@@std@@IAE@ABU?$less@J@1@V?$allocator@U?$pair@$$CBJP6A?AV?$shared_ptr@VImageSource@cinder@@@boost@@V?$shared_ptr@VDataSource@cinder@@@2@VOptions@ImageSource@cinder@@@Z@std@@@1@@Z 0041e760 f i cinder:ImageIo.obj
 0001:0001d760       ??0?$_Tree_nod@V?$_Tmap_traits@V?$basic_string@DU?$char_traits@D@std@@V?$allocator@D@2@@std@@V?$multimap@JU?$pair@P6A?AV?$shared_ptr@VImageTarget@cinder@@@boost@@V?$shared_ptr@VDataTarget@cinder@@@2@V?$shared_ptr@VImageSource@cinder@@@2@VOptions@ImageTarget@cinder@@ABV?$basic_string@DU?$char_traits@D@std@@V?$allocator@D@2@@std@@@ZV89@@std@@U?$less@J@2@V?$allocator@U?$pair@$$CBJU?$pair@P6A?AV?$shared_ptr@VImageTarget@cinder@@@boost@@V?$shared_ptr@VDataTarget@cinder@@@2@V?$shared_ptr@VImageSource@cinder@@@2@VOptions@ImageTarget@cinder@@ABV?$basic_string@DU?$char_traits@D@std@@V?$allocator@D@2@@std@@@ZV89@@std@@@std@@@2@@2@U?$less@V?$basic_string@DU?$char_traits@D@std@@V?$allocator@D@2@@std@@@2@V?$allocator@U?$pair@$$CBV?$basic_string@DU?$char_traits@D@std@@V?$allocator@D@2@@std@@V?$multimap@JU?$pair@P6A?AV?$shared_ptr@VImageTarget@cinder@@@boost@@V?$shared_ptr@VDataTarget@cinder@@@2@V?$shared_ptr@VImageSource@cinder@@@2@VOptions@ImageTarget@cinder@@ABV?$basic_string@DU?$char_traits@D@std@@V?$allocator@D@2@@std@@@ZV89@@std@@U?$less@J@2@V?$allocator@U?$pair@$$CBJU?$pair@P6A?AV?$shared_ptr@VImageTarget@cinder@@@boost@@V?$shared_ptr@VDataTarget@cinder@@@2@V?$shared_ptr@VImageSource@cinder@@@2@VOptions@ImageTarget@cinder@@ABV?$basic_string@DU?$char_traits@D@std@@V?$allocator@D@2@@std@@@ZV89@@std@@@std@@@2@@2@@std@@@2@$0A@@std@@@std@@IAE@ABU?$less@V?$basic_string@DU?$char_traits@D@std@@V?$allocator@D@2@@std@@@1@V?$allocator@U?$pair@$$CBV?$basic_string@DU?$char_traits@D@std@@V?$allocator@D@2@@std@@V?$multimap@JU?$pair@P6A?AV?$shared_ptr@VImageTarget@cinder@@@boost@@V?$shared_ptr@VDataTarget@cinder@@@2@V?$shared_ptr@VImageSource@cinder@@@2@VOptions@ImageTarget@cinder@@ABV?$basic_string@DU?$char_traits@D@std@@V?$allocator@D@2@@std@@@ZV89@@std@@U?$less@J@2@V?$allocator@U?$pair@$$CBJU?$pair@P6A?AV?$shared_ptr@VImageTarget@cinder@@@boost@@V?$shared_ptr@VDataTarget@cinder@@@2@V?$shared_ptr@VImageSource@cinder@@@2@VOptions@ImageTarget@cinder@@ABV?$basic_string@DU?$char_traits@D@std@@V?$allocator@D@2@@std@@@ZV89@@std@@@std@@@2@@2@@std@@@1@@Z 0041e760 f i cinder:ImageIo.obj
 0001:0001d760       ??0?$_Tree_nod@V?$_Tmap_traits@V?$basic_string@DU?$char_traits@D@std@@V?$allocator@D@2@@std@@V?$multimap@JP6A?AV?$shared_ptr@VImageSource@cinder@@@boost@@V?$shared_ptr@VDataSource@cinder@@@2@VOptions@ImageSource@cinder@@@ZU?$less@J@std@@V?$allocator@U?$pair@$$CBJP6A?AV?$shared_ptr@VImageSource@cinder@@@boost@@V?$shared_ptr@VDataSource@cinder@@@2@VOptions@ImageSource@cinder@@@Z@std@@@8@@2@U?$less@V?$basic_string@DU?$char_traits@D@std@@V?$allocator@D@2@@std@@@2@V?$allocator@U?$pair@$$CBV?$basic_string@DU?$char_traits@D@std@@V?$allocator@D@2@@std@@V?$multimap@JP6A?AV?$shared_ptr@VImageSource@cinder@@@boost@@V?$shared_ptr@VDataSource@cinder@@@2@VOptions@ImageSource@cinder@@@ZU?$less@J@std@@V?$allocator@U?$pair@$$CBJP6A?AV?$shared_ptr@VImageSource@cinder@@@boost@@V?$shared_ptr@VDataSource@cinder@@@2@VOptions@ImageSource@cinder@@@Z@std@@@8@@2@@std@@@2@$0A@@std@@@std@@IAE@ABU?$less@V?$basic_string@DU?$char_traits@D@std@@V?$allocator@D@2@@std@@@1@V?$allocator@U?$pair@$$CBV?$basic_string@DU?$char_traits@D@std@@V?$allocator@D@2@@std@@V?$multimap@JP6A?AV?$shared_ptr@VImageSource@cinder@@@boost@@V?$shared_ptr@VDataSource@cinder@@@2@VOptions@ImageSource@cinder@@@ZU?$less@J@std@@V?$allocator@U?$pair@$$CBJP6A?AV?$shared_ptr@VImageSource@cinder@@@boost@@V?$shared_ptr@VDataSource@cinder@@@2@VOptions@ImageSource@cinder@@@Z@std@@@8@@2@@std@@@1@@Z 0041e760 f i cinder:ImageIo.obj
 0001:0001d760       ??0?$_Tree_nod@V?$_Tmap_traits@JU?$pair@P6A?AV?$shared_ptr@VImageTarget@cinder@@@boost@@V?$shared_ptr@VDataTarget@cinder@@@2@V?$shared_ptr@VImageSource@cinder@@@2@VOptions@ImageTarget@cinder@@ABV?$basic_string@DU?$char_traits@D@std@@V?$allocator@D@2@@std@@@ZV89@@std@@U?$less@J@2@V?$allocator@U?$pair@$$CBJU?$pair@P6A?AV?$shared_ptr@VImageTarget@cinder@@@boost@@V?$shared_ptr@VDataTarget@cinder@@@2@V?$shared_ptr@VImageSource@cinder@@@2@VOptions@ImageTarget@cinder@@ABV?$basic_string@DU?$char_traits@D@std@@V?$allocator@D@2@@std@@@ZV89@@std@@@std@@@2@$00@std@@@std@@IAE@ABU?$less@J@1@V?$allocator@U?$pair@$$CBJU?$pair@P6A?AV?$shared_ptr@VImageTarget@cinder@@@boost@@V?$shared_ptr@VDataTarget@cinder@@@2@V?$shared_ptr@VImageSource@cinder@@@2@VOptions@ImageTarget@cinder@@ABV?$basic_string@DU?$char_traits@D@std@@V?$allocator@D@2@@std@@@ZV89@@std@@@std@@@1@@Z 0041e760 f i cinder:ImageIo.obj
 0001:0001d760       ??0?$_Tree_nod@V?$_Tmap_traits@V?$basic_string@DU?$char_traits@D@std@@V?$allocator@D@2@@std@@PBU_GUID@@U?$less@V?$basic_string@DU?$char_traits@D@std@@V?$allocator@D@2@@std@@@2@V?$allocator@U?$pair@$$CBV?$basic_string@DU?$char_traits@D@std@@V?$allocator@D@2@@std@@PBU_GUID@@@std@@@2@$0A@@std@@@std@@IAE@ABU?$less@V?$basic_string@DU?$char_traits@D@std@@V?$allocator@D@2@@std@@@1@V?$allocator@U?$pair@$$CBV?$basic_string@DU?$char_traits@D@std@@V?$allocator@D@2@@std@@PBU_GUID@@@std@@@1@@Z 0041e760 f i cinder:ImageTargetFileWic.obj
 0001:0001d7a0       ?max_size@?$allocator@U?$pair@$$CBKV?$Vec2@M@cinder@@@std@@@std@@QBEIXZ 0041e7a0 f i cinder:AppImplMswBasic.obj
 0001:0001d7a0       ?max_size@?$allocator@U?$pair@HVTexture@gl@cinder@@@std@@@std@@QBEIXZ 0041e7a0 f i cinder:Texture.obj
 0001:0001d7a0       ?max_size@?$allocator@U?$pair@GV?$Vec2@M@cinder@@@std@@@std@@QBEIXZ 0041e7a0 f i cinder:Text.obj
 0001:0001d7d0       ??Y?$_Vector_const_iterator@VTouch@TouchEvent@app@cinder@@V?$allocator@VTouch@TouchEvent@app@cinder@@@std@@@std@@QAEAAV01@H@Z 0041e7d0 f i cinder:AppImplMswBasic.obj
 0001:0001d850       ??0_Node@?$_Tree_nod@V?$_Tmap_traits@KV?$Vec2@M@cinder@@U?$less@K@std@@V?$allocator@U?$pair@$$CBKV?$Vec2@M@cinder@@@std@@@4@$0A@@std@@@std@@QAE@PAU012@00ABU?$pair@$$CBKV?$Vec2@M@cinder@@@2@D@Z 0041e850 f i cinder:AppImplMswBasic.obj
 0001:0001d8a0       ??0?$pair@$$CBKV?$Vec2@M@cinder@@@std@@QAE@ABU01@@Z 0041e8a0 f i cinder:AppImplMswBasic.obj
 0001:0001d8d0       ??0?$_Tmap_traits@V?$basic_string@DU?$char_traits@D@std@@V?$allocator@D@2@@std@@_NU?$less@V?$basic_string@DU?$char_traits@D@std@@V?$allocator@D@2@@std@@@2@V?$allocator@U?$pair@$$CBV?$basic_string@DU?$char_traits@D@std@@V?$allocator@D@2@@std@@_N@std@@@2@$0A@@std@@QAE@U?$less@V?$basic_string@DU?$char_traits@D@std@@V?$allocator@D@2@@std@@@1@V?$allocator@U?$pair@$$CBV?$basic_string@DU?$char_traits@D@std@@V?$allocator@D@2@@std@@_N@std@@@1@@Z 0041e8d0 f i cinder:gl.obj
 0001:0001d8d0       ??0?$_Tmap_traits@KV?$Vec2@M@cinder@@U?$less@K@std@@V?$allocator@U?$pair@$$CBKV?$Vec2@M@cinder@@@std@@@4@$0A@@std@@QAE@U?$less@K@1@V?$allocator@U?$pair@$$CBKV?$Vec2@M@cinder@@@std@@@1@@Z 0041e8d0 f i cinder:AppImplMswBasic.obj
 0001:0001d8d0       ??0?$_Tmap_traits@JP6A?AV?$shared_ptr@VImageSource@cinder@@@boost@@V?$shared_ptr@VDataSource@cinder@@@2@VOptions@ImageSource@cinder@@@ZU?$less@J@std@@V?$allocator@U?$pair@$$CBJP6A?AV?$shared_ptr@VImageSource@cinder@@@boost@@V?$shared_ptr@VDataSource@cinder@@@2@VOptions@ImageSource@cinder@@@Z@std@@@8@$0A@@std@@QAE@U?$less@J@1@V?$allocator@U?$pair@$$CBJP6A?AV?$shared_ptr@VImageSource@cinder@@@boost@@V?$shared_ptr@VDataSource@cinder@@@2@VOptions@ImageSource@cinder@@@Z@std@@@1@@Z 0041e8d0 f i cinder:ImageIo.obj
 0001:0001d8d0       ??0?$_Tmap_traits@JU?$pair@P6A?AV?$shared_ptr@VImageTarget@cinder@@@boost@@V?$shared_ptr@VDataTarget@cinder@@@2@V?$shared_ptr@VImageSource@cinder@@@2@VOptions@ImageTarget@cinder@@ABV?$basic_string@DU?$char_traits@D@std@@V?$allocator@D@2@@std@@@ZV89@@std@@U?$less@J@2@V?$allocator@U?$pair@$$CBJU?$pair@P6A?AV?$shared_ptr@VImageTarget@cinder@@@boost@@V?$shared_ptr@VDataTarget@cinder@@@2@V?$shared_ptr@VImageSource@cinder@@@2@VOptions@ImageTarget@cinder@@ABV?$basic_string@DU?$char_traits@D@std@@V?$allocator@D@2@@std@@@ZV89@@std@@@std@@@2@$00@std@@QAE@U?$less@J@1@V?$allocator@U?$pair@$$CBJU?$pair@P6A?AV?$shared_ptr@VImageTarget@cinder@@@boost@@V?$shared_ptr@VDataTarget@cinder@@@2@V?$shared_ptr@VImageSource@cinder@@@2@VOptions@ImageTarget@cinder@@ABV?$basic_string@DU?$char_traits@D@std@@V?$allocator@D@2@@std@@@ZV89@@std@@@std@@@1@@Z 0041e8d0 f i cinder:ImageIo.obj
 0001:0001d8d0       ??0?$_Tmap_traits@V?$basic_string@DU?$char_traits@D@std@@V?$allocator@D@2@@std@@V?$multimap@JU?$pair@P6A?AV?$shared_ptr@VImageTarget@cinder@@@boost@@V?$shared_ptr@VDataTarget@cinder@@@2@V?$shared_ptr@VImageSource@cinder@@@2@VOptions@ImageTarget@cinder@@ABV?$basic_string@DU?$char_traits@D@std@@V?$allocator@D@2@@std@@@ZV89@@std@@U?$less@J@2@V?$allocator@U?$pair@$$CBJU?$pair@P6A?AV?$shared_ptr@VImageTarget@cinder@@@boost@@V?$shared_ptr@VDataTarget@cinder@@@2@V?$shared_ptr@VImageSource@cinder@@@2@VOptions@ImageTarget@cinder@@ABV?$basic_string@DU?$char_traits@D@std@@V?$allocator@D@2@@std@@@ZV89@@std@@@std@@@2@@2@U?$less@V?$basic_string@DU?$char_traits@D@std@@V?$allocator@D@2@@std@@@2@V?$allocator@U?$pair@$$CBV?$basic_string@DU?$char_traits@D@std@@V?$allocator@D@2@@std@@V?$multimap@JU?$pair@P6A?AV?$shared_ptr@VImageTarget@cinder@@@boost@@V?$shared_ptr@VDataTarget@cinder@@@2@V?$shared_ptr@VImageSource@cinder@@@2@VOptions@ImageTarget@cinder@@ABV?$basic_string@DU?$char_traits@D@std@@V?$allocator@D@2@@std@@@ZV89@@std@@U?$less@J@2@V?$allocator@U?$pair@$$CBJU?$pair@P6A?AV?$shared_ptr@VImageTarget@cinder@@@boost@@V?$shared_ptr@VDataTarget@cinder@@@2@V?$shared_ptr@VImageSource@cinder@@@2@VOptions@ImageTarget@cinder@@ABV?$basic_string@DU?$char_traits@D@std@@V?$allocator@D@2@@std@@@ZV89@@std@@@std@@@2@@2@@std@@@2@$0A@@std@@QAE@U?$less@V?$basic_string@DU?$char_traits@D@std@@V?$allocator@D@2@@std@@@1@V?$allocator@U?$pair@$$CBV?$basic_string@DU?$char_traits@D@std@@V?$allocator@D@2@@std@@V?$multimap@JU?$pair@P6A?AV?$shared_ptr@VImageTarget@cinder@@@boost@@V?$shared_ptr@VDataTarget@cinder@@@2@V?$shared_ptr@VImageSource@cinder@@@2@VOptions@ImageTarget@cinder@@ABV?$basic_string@DU?$char_traits@D@std@@V?$allocator@D@2@@std@@@ZV89@@std@@U?$less@J@2@V?$allocator@U?$pair@$$CBJU?$pair@P6A?AV?$shared_ptr@VImageTarget@cinder@@@boost@@V?$shared_ptr@VDataTarget@cinder@@@2@V?$shared_ptr@VImageSource@cinder@@@2@VOptions@ImageTarget@cinder@@ABV?$basic_string@DU?$char_traits@D@std@@V?$allocator@D@2@@std@@@ZV89@@std@@@std@@@2@@2@@std@@@1@@Z 0041e8d0 f i cinder:ImageIo.obj
 0001:0001d8d0       ??0?$_Tmap_traits@V?$basic_string@DU?$char_traits@D@std@@V?$allocator@D@2@@std@@PBU_GUID@@U?$less@V?$basic_string@DU?$char_traits@D@std@@V?$allocator@D@2@@std@@@2@V?$allocator@U?$pair@$$CBV?$basic_string@DU?$char_traits@D@std@@V?$allocator@D@2@@std@@PBU_GUID@@@std@@@2@$0A@@std@@QAE@U?$less@V?$basic_string@DU?$char_traits@D@std@@V?$allocator@D@2@@std@@@1@V?$allocator@U?$pair@$$CBV?$basic_string@DU?$char_traits@D@std@@V?$allocator@D@2@@std@@PBU_GUID@@@std@@@1@@Z 0041e8d0 f i cinder:ImageTargetFileWic.obj
 0001:0001d8d0       ??0?$_Tmap_traits@V?$basic_string@DU?$char_traits@D@std@@V?$allocator@D@2@@std@@V?$multimap@JP6A?AV?$shared_ptr@VImageSource@cinder@@@boost@@V?$shared_ptr@VDataSource@cinder@@@2@VOptions@ImageSource@cinder@@@ZU?$less@J@std@@V?$allocator@U?$pair@$$CBJP6A?AV?$shared_ptr@VImageSource@cinder@@@boost@@V?$shared_ptr@VDataSource@cinder@@@2@VOptions@ImageSource@cinder@@@Z@std@@@8@@2@U?$less@V?$basic_string@DU?$char_traits@D@std@@V?$allocator@D@2@@std@@@2@V?$allocator@U?$pair@$$CBV?$basic_string@DU?$char_traits@D@std@@V?$allocator@D@2@@std@@V?$multimap@JP6A?AV?$shared_ptr@VImageSource@cinder@@@boost@@V?$shared_ptr@VDataSource@cinder@@@2@VOptions@ImageSource@cinder@@@ZU?$less@J@std@@V?$allocator@U?$pair@$$CBJP6A?AV?$shared_ptr@VImageSource@cinder@@@boost@@V?$shared_ptr@VDataSource@cinder@@@2@VOptions@ImageSource@cinder@@@Z@std@@@8@@2@@std@@@2@$0A@@std@@QAE@U?$less@V?$basic_string@DU?$char_traits@D@std@@V?$allocator@D@2@@std@@@1@V?$allocator@U?$pair@$$CBV?$basic_string@DU?$char_traits@D@std@@V?$allocator@D@2@@std@@V?$multimap@JP6A?AV?$shared_ptr@VImageSource@cinder@@@boost@@V?$shared_ptr@VDataSource@cinder@@@2@VOptions@ImageSource@cinder@@@ZU?$less@J@std@@V?$allocator@U?$pair@$$CBJP6A?AV?$shared_ptr@VImageSource@cinder@@@boost@@V?$shared_ptr@VDataSource@cinder@@@2@VOptions@ImageSource@cinder@@@Z@std@@@8@@2@@std@@@1@@Z 0041e8d0 f i cinder:ImageIo.obj
 0001:0001d8d0       ??0?$_Tmap_traits@JP6A?AV?$shared_ptr@VImageSource@cinder@@@boost@@V?$shared_ptr@VDataSource@cinder@@@2@VOptions@ImageSource@cinder@@@ZU?$less@J@std@@V?$allocator@U?$pair@$$CBJP6A?AV?$shared_ptr@VImageSource@cinder@@@boost@@V?$shared_ptr@VDataSource@cinder@@@2@VOptions@ImageSource@cinder@@@Z@std@@@8@$00@std@@QAE@U?$less@J@1@V?$allocator@U?$pair@$$CBJP6A?AV?$shared_ptr@VImageSource@cinder@@@boost@@V?$shared_ptr@VDataSource@cinder@@@2@VOptions@ImageSource@cinder@@@Z@std@@@1@@Z 0041e8d0 f i cinder:ImageIo.obj
 0001:0001d900       ??$?0UtagTOUCHINPUT@@U?$checked_array_deleter@UtagTOUCHINPUT@@@boost@@@?$shared_ptr@UtagTOUCHINPUT@@@boost@@QAE@PAUtagTOUCHINPUT@@U?$checked_array_deleter@UtagTOUCHINPUT@@@1@@Z 0041e900 f i cinder:AppImplMswBasic.obj
 0001:0001d980       ??$_Distance@Viterator@?$_Tree@V?$_Tmap_traits@KV?$Vec2@M@cinder@@U?$less@K@std@@V?$allocator@U?$pair@$$CBKV?$Vec2@M@cinder@@@std@@@4@$0A@@std@@@std@@I@std@@YAXViterator@?$_Tree@V?$_Tmap_traits@KV?$Vec2@M@cinder@@U?$less@K@std@@V?$allocator@U?$pair@$$CBKV?$Vec2@M@cinder@@@std@@@4@$0A@@std@@@0@0AAI@Z 0041e980 f i cinder:AppImplMswBasic.obj
 0001:0001d9c0       ??$unchecked_copy@PAVTouch@TouchEvent@app@cinder@@PAV1234@@stdext@@YAPAVTouch@TouchEvent@app@cinder@@PAV1234@00@Z 0041e9c0 f i cinder:AppImplMswBasic.obj
 0001:0001da30       ??$_Ucopy@PAVTouch@TouchEvent@app@cinder@@@?$vector@VTouch@TouchEvent@app@cinder@@V?$allocator@VTouch@TouchEvent@app@cinder@@@std@@@std@@IAEPAVTouch@TouchEvent@app@cinder@@PAV2345@00@Z 0041ea30 f i cinder:AppImplMswBasic.obj
 0001:0001da60       ??$unchecked_uninitialized_fill_n@PAVTouch@TouchEvent@app@cinder@@IV1234@V?$allocator@VTouch@TouchEvent@app@cinder@@@std@@@stdext@@YAXPAVTouch@TouchEvent@app@cinder@@IABV1234@AAV?$allocator@VTouch@TouchEvent@app@cinder@@@std@@@Z 0041ea60 f i cinder:AppImplMswBasic.obj
 0001:0001dab0       ??$_Umove@PAVTouch@TouchEvent@app@cinder@@@?$vector@VTouch@TouchEvent@app@cinder@@V?$allocator@VTouch@TouchEvent@app@cinder@@@std@@@std@@IAEPAVTouch@TouchEvent@app@cinder@@PAV2345@00@Z 0041eab0 f i cinder:AppImplMswBasic.obj
 0001:0001dae0       ??$fill@PAVTouch@TouchEvent@app@cinder@@V1234@@std@@YAXPAVTouch@TouchEvent@app@cinder@@0ABV1234@@Z 0041eae0 f i cinder:AppImplMswBasic.obj
 0001:0001db10       ??$_Unchecked_move_backward@PAVTouch@TouchEvent@app@cinder@@PAV1234@@stdext@@YAPAVTouch@TouchEvent@app@cinder@@PAV1234@00@Z 0041eb10 f i cinder:AppImplMswBasic.obj
 0001:0001db80       ??$?0PAUtagTOUCHINPUT@@U?$checked_array_deleter@UtagTOUCHINPUT@@@boost@@@shared_count@detail@boost@@QAE@PAUtagTOUCHINPUT@@U?$checked_array_deleter@UtagTOUCHINPUT@@@2@@Z 0041eb80 f i cinder:AppImplMswBasic.obj
 0001:0001dc60       ??$_Distance2@Viterator@?$_Tree@V?$_Tmap_traits@KV?$Vec2@M@cinder@@U?$less@K@std@@V?$allocator@U?$pair@$$CBKV?$Vec2@M@cinder@@@std@@@4@$0A@@std@@@std@@I@std@@YAXViterator@?$_Tree@V?$_Tmap_traits@KV?$Vec2@M@cinder@@U?$less@K@std@@V?$allocator@U?$pair@$$CBKV?$Vec2@M@cinder@@@std@@@4@$0A@@std@@@0@0AAIUbidirectional_iterator_tag@0@@Z 0041ec60 f i cinder:AppImplMswBasic.obj
 0001:0001dca0       ??$_Copy_opt@PAVTouch@TouchEvent@app@cinder@@PAV1234@@std@@YAPAVTouch@TouchEvent@app@cinder@@PAV1234@00Urandom_access_iterator_tag@0@U_Nonscalar_ptr_iterator_tag@0@U_Range_checked_iterator_tag@0@@Z 0041eca0 f i cinder:AppImplMswBasic.obj
 0001:0001dd00       ??$unchecked_uninitialized_copy@PAVTouch@TouchEvent@app@cinder@@PAV1234@V?$allocator@VTouch@TouchEvent@app@cinder@@@std@@@stdext@@YAPAVTouch@TouchEvent@app@cinder@@PAV1234@00AAV?$allocator@VTouch@TouchEvent@app@cinder@@@std@@@Z 0041ed00 f i cinder:AppImplMswBasic.obj
 0001:0001dd60       ??$_Uninit_fill_n@PAVTouch@TouchEvent@app@cinder@@IV1234@V?$allocator@VTouch@TouchEvent@app@cinder@@@std@@@std@@YAXPAVTouch@TouchEvent@app@cinder@@IABV1234@AAV?$allocator@VTouch@TouchEvent@app@cinder@@@0@U_Nonscalar_ptr_iterator_tag@0@U_Range_checked_iterator_tag@0@@Z 0041ed60 f i cinder:AppImplMswBasic.obj
 0001:0001de20       ??$_Unchecked_uninitialized_move@PAVTouch@TouchEvent@app@cinder@@PAV1234@V?$allocator@VTouch@TouchEvent@app@cinder@@@std@@@stdext@@YAPAVTouch@TouchEvent@app@cinder@@PAV1234@00AAV?$allocator@VTouch@TouchEvent@app@cinder@@@std@@@Z 0041ee20 f i cinder:AppImplMswBasic.obj
 0001:0001de70       ??$_Fill@PAVTouch@TouchEvent@app@cinder@@V1234@@std@@YAXPAVTouch@TouchEvent@app@cinder@@0ABV1234@@Z 0041ee70 f i cinder:AppImplMswBasic.obj
 0001:0001dea0       ??$_Move_backward_opt@PAVTouch@TouchEvent@app@cinder@@PAV1234@Urandom_access_iterator_tag@std@@U_Undefined_move_tag@6@@std@@YAPAVTouch@TouchEvent@app@cinder@@PAV1234@00Urandom_access_iterator_tag@0@U_Undefined_move_tag@0@U_Range_checked_iterator_tag@0@@Z 0041eea0 f i cinder:AppImplMswBasic.obj
 0001:0001def0       ??0Touch@TouchEvent@app@cinder@@QAE@ABV0123@@Z 0041eef0 f i cinder:AppBasic.obj
 0001:0001def0       ??4Touch@TouchEvent@app@cinder@@QAEAAV0123@ABV0123@@Z 0041eef0 f i cinder:AppImplMswBasic.obj
 0001:0001df50       ??Eiterator@?$_Tree@V?$_Tmap_traits@KV?$Vec2@M@cinder@@U?$less@K@std@@V?$allocator@U?$pair@$$CBKV?$Vec2@M@cinder@@@std@@@4@$0A@@std@@@std@@QAEAAV012@XZ 0041ef50 f i cinder:AppImplMswBasic.obj
 0001:0001df70       ??0?$sp_counted_impl_pd@PAUtagTOUCHINPUT@@U?$checked_array_deleter@UtagTOUCHINPUT@@@boost@@@detail@boost@@QAE@PAUtagTOUCHINPUT@@U?$checked_array_deleter@UtagTOUCHINPUT@@@2@@Z 0041ef70 f i cinder:AppImplMswBasic.obj
 0001:0001dfa0       ?get_deleter@?$sp_counted_impl_pd@PAUtagTOUCHINPUT@@U?$checked_array_deleter@UtagTOUCHINPUT@@@boost@@@detail@boost@@UAEPAXABVtype_info@@@Z 0041efa0 f i cinder:AppImplMswBasic.obj
 0001:0001dfe0       ??$_Copy_opt@PAVTouch@TouchEvent@app@cinder@@PAV1234@Uforward_iterator_tag@std@@@std@@YAPAVTouch@TouchEvent@app@cinder@@PAV1234@00Uforward_iterator_tag@0@U_Nonscalar_ptr_iterator_tag@0@U_Range_checked_iterator_tag@0@@Z 0041efe0 f i cinder:AppImplMswBasic.obj
 0001:0001e020       ??$_Uninit_move@PAVTouch@TouchEvent@app@cinder@@PAV1234@V?$allocator@VTouch@TouchEvent@app@cinder@@@std@@U_Undefined_move_tag@6@@std@@YAPAVTouch@TouchEvent@app@cinder@@PAV1234@00AAV?$allocator@VTouch@TouchEvent@app@cinder@@@0@U_Undefined_move_tag@0@U_Range_checked_iterator_tag@0@@Z 0041f020 f i cinder:AppImplMswBasic.obj
 0001:0001e040       ??$_Copy_backward_opt@PAVTouch@TouchEvent@app@cinder@@PAV1234@@std@@YAPAVTouch@TouchEvent@app@cinder@@PAV1234@00Urandom_access_iterator_tag@0@U_Nonscalar_ptr_iterator_tag@0@U_Range_checked_iterator_tag@0@@Z 0041f040 f i cinder:AppImplMswBasic.obj
 0001:0001e0a0       ??$_Copy_backward_opt@PAVTouch@TouchEvent@app@cinder@@PAV1234@Uforward_iterator_tag@std@@@std@@YAPAVTouch@TouchEvent@app@cinder@@PAV1234@00Uforward_iterator_tag@0@U_Nonscalar_ptr_iterator_tag@0@U_Range_checked_iterator_tag@0@@Z 0041f0a0 f i cinder:AppImplMswBasic.obj
 0001:0001e0d0       ??0AppImplMsw@app@cinder@@QAE@PAVApp@12@@Z 0041f0d0 f   cinder:AppImplMsw.obj
 0001:0001e130       ??1AppImplMsw@app@cinder@@UAE@XZ 0041f130 f   cinder:AppImplMsw.obj
 0001:0001e150       ?hideCursor@AppImplMsw@app@cinder@@SAXXZ 0041f150 f   cinder:AppImplMsw.obj
 0001:0001e160       ?showCursor@AppImplMsw@app@cinder@@SAXXZ 0041f160 f   cinder:AppImplMsw.obj
 0001:0001e170       ?mouseLocation@AppImplMsw@app@cinder@@UAE?AV?$Vec2@H@3@XZ 0041f170 f   cinder:AppImplMsw.obj
 0001:0001e1b0       ?loadResource@AppImplMsw@app@cinder@@SA?AVBuffer@3@HABV?$basic_string@DU?$char_traits@D@std@@V?$allocator@D@2@@std@@@Z 0041f1b0 f   cinder:AppImplMsw.obj
 0001:0001e300       ?getAppPath@AppImplMsw@app@cinder@@SA?AV?$basic_string@DU?$char_traits@D@std@@V?$allocator@D@2@@std@@XZ 0041f300 f   cinder:AppImplMsw.obj
 0001:0001e3b0       ?getOpenFilePath@AppImplMsw@app@cinder@@SA?AV?$basic_string@DU?$char_traits@D@std@@V?$allocator@D@2@@std@@ABV45@V?$vector@V?$basic_string@DU?$char_traits@D@std@@V?$allocator@D@2@@std@@V?$allocator@V?$basic_string@DU?$char_traits@D@std@@V?$allocator@D@2@@std@@@2@@5@@Z 0041f3b0 f   cinder:AppImplMsw.obj
 0001:0001e7d0       ?getFolderPathBrowseCallbackProc@?A0x8eddda3c@app@cinder@@YGHPAUHWND__@@IJJ@Z 0041f7d0 f   cinder:AppImplMsw.obj
 0001:0001e800       ?getFolderPath@AppImplMsw@app@cinder@@SA?AV?$basic_string@DU?$char_traits@D@std@@V?$allocator@D@2@@std@@ABV45@@Z 0041f800 f   cinder:AppImplMsw.obj
 0001:0001e9b0       ?getSaveFilePath@AppImplMsw@app@cinder@@SA?AV?$basic_string@DU?$char_traits@D@std@@V?$allocator@D@2@@std@@ABV45@V?$vector@V?$basic_string@DU?$char_traits@D@std@@V?$allocator@D@2@@std@@V?$allocator@V?$basic_string@DU?$char_traits@D@std@@V?$allocator@D@2@@std@@@2@@5@@Z 0041f9b0 f   cinder:AppImplMsw.obj
 0001:0001ee00       ?setWindowSize@AppImplMsw@app@cinder@@UAEXHH@Z 0041fe00 f i cinder:AppImplMsw.obj
 0001:0001ee10       ?setFrameRate@AppImplMsw@app@cinder@@UAEMM@Z 0041fe10 f i cinder:AppImplMsw.obj
 0001:0001ee30       ??0GdiplusStartupInput@Gdiplus@@QAE@P6GXW4DebugEventLevel@1@PAD@ZHH@Z 0041fe30 f i cinder:AppImplMsw.obj
 0001:0001ee70       ??_GAppImplMsw@app@cinder@@UAEPAXI@Z 0041fe70 f i cinder:AppImplMsw.obj
 0001:0001ee70       ??_EAppImplMsw@app@cinder@@UAEPAXI@Z 0041fe70 f i cinder:AppImplMsw.obj
 0001:0001eea0       ??0ResourceLoadExc@app@cinder@@QAE@ABV012@@Z 0041fea0 f i cinder:AppImplMsw.obj
 0001:0001eee0       ??0Exception@cinder@@QAE@ABV01@@Z 0041fee0 f i cinder:AppImplMsw.obj
 0001:0001ef10       ?strrchr@@YAPADPADH@Z      0041ff10 f i cinder:AppImplMsw.obj
 0001:0001ef30       ?get@App@app@cinder@@SAPAV123@XZ 0041ff30 f i cinder:AppImplMsw.obj
 0001:0001ef40       ?empty@?$vector@V?$basic_string@DU?$char_traits@D@std@@V?$allocator@D@2@@std@@V?$allocator@V?$basic_string@DU?$char_traits@D@std@@V?$allocator@D@2@@std@@@2@@std@@QBE_NXZ 0041ff40 f i cinder:AppImplMsw.obj
 0001:0001ef60       ??E?$_Vector_const_iterator@V?$basic_string@DU?$char_traits@D@std@@V?$allocator@D@2@@std@@V?$allocator@V?$basic_string@DU?$char_traits@D@std@@V?$allocator@D@2@@std@@@2@@std@@QAEAAV01@XZ 0041ff60 f i cinder:AppImplMsw.obj
 0001:0001efb0       ??H?$_Vector_const_iterator@V?$basic_string@DU?$char_traits@D@std@@V?$allocator@D@2@@std@@V?$allocator@V?$basic_string@DU?$char_traits@D@std@@V?$allocator@D@2@@std@@@2@@std@@QBE?AV01@H@Z 0041ffb0 f i cinder:AppImplMsw.obj
 0001:0001eff0       ??1Display@cinder@@QAE@XZ  0041fff0 f   cinder:Display.obj
 0001:0001f000       ?getDisplays@Display@cinder@@SAABV?$vector@V?$shared_ptr@VDisplay@cinder@@@boost@@V?$allocator@V?$shared_ptr@VDisplay@cinder@@@boost@@@std@@@std@@XZ 00420000 f   cinder:Display.obj
 0001:0001f010       ?enumMonitorProc@Display@cinder@@SGHPAUHMONITOR__@@PAUHDC__@@PAUtagRECT@@J@Z 00420010 f   cinder:Display.obj
 0001:0001f1c0       ?enumerateDisplays@Display@cinder@@CAXXZ 004201c0 f   cinder:Display.obj
 0001:0001f2a0       ?getMainDisplay@Display@cinder@@SA?AV?$shared_ptr@VDisplay@cinder@@@boost@@XZ 004202a0 f   cinder:Display.obj
 0001:0001f2e0       ??0Display@cinder@@QAE@XZ  004202e0 f i cinder:Display.obj
 0001:0001f2e0       ??0ISequentialStream@@QAE@XZ 004202e0 f i cinder:ImageTargetFileWic.obj
 0001:0001f300       ?size@?$vector@V?$Vec2@M@cinder@@V?$allocator@V?$Vec2@M@cinder@@@std@@@std@@QBEIXZ 00420300 f i cinder:gl.obj
 0001:0001f300       ?size@?$vector@U?$pair@W4CustomAttr@Layout@VboMesh@gl@cinder@@I@std@@V?$allocator@U?$pair@W4CustomAttr@Layout@VboMesh@gl@cinder@@I@std@@@2@@std@@QBEIXZ 00420300 f i cinder:VBO.obj
 0001:0001f300       ?size@?$vector@V?$shared_ptr@VDisplay@cinder@@@boost@@V?$allocator@V?$shared_ptr@VDisplay@cinder@@@boost@@@std@@@std@@QBEIXZ 00420300 f i cinder:Display.obj
 0001:0001f320       ?push_back@?$vector@V?$shared_ptr@VDisplay@cinder@@@boost@@V?$allocator@V?$shared_ptr@VDisplay@cinder@@@boost@@@std@@@std@@QAEXABV?$shared_ptr@VDisplay@cinder@@@boost@@@Z 00420320 f i cinder:Display.obj
 0001:0001f3a0       ?insert@?$vector@V?$shared_ptr@VDisplay@cinder@@@boost@@V?$allocator@V?$shared_ptr@VDisplay@cinder@@@boost@@@std@@@std@@QAE?AV?$_Vector_iterator@V?$shared_ptr@VDisplay@cinder@@@boost@@V?$allocator@V?$shared_ptr@VDisplay@cinder@@@boost@@@std@@@2@V?$_Vector_const_iterator@V?$shared_ptr@VDisplay@cinder@@@boost@@V?$allocator@V?$shared_ptr@VDisplay@cinder@@@boost@@@std@@@2@ABV?$shared_ptr@VDisplay@cinder@@@boost@@@Z 004203a0 f i cinder:Display.obj
 0001:0001f420       ?_Ufill@?$vector@V?$shared_ptr@VDisplay@cinder@@@boost@@V?$allocator@V?$shared_ptr@VDisplay@cinder@@@boost@@@std@@@std@@IAEPAV?$shared_ptr@VDisplay@cinder@@@boost@@PAV34@IABV34@@Z 00420420 f i cinder:Display.obj
 0001:0001f460       ?_Insert_n@?$vector@V?$shared_ptr@VDisplay@cinder@@@boost@@V?$allocator@V?$shared_ptr@VDisplay@cinder@@@boost@@@std@@@std@@IAEXV?$_Vector_const_iterator@V?$shared_ptr@VDisplay@cinder@@@boost@@V?$allocator@V?$shared_ptr@VDisplay@cinder@@@boost@@@std@@@2@IABV?$shared_ptr@VDisplay@cinder@@@boost@@@Z 00420460 f i cinder:Display.obj
 0001:0001f7f0       ?max_size@?$vector@U?$pair@W4CustomAttr@Layout@VboMesh@gl@cinder@@I@std@@V?$allocator@U?$pair@W4CustomAttr@Layout@VboMesh@gl@cinder@@I@std@@@2@@std@@QBEIXZ 004207f0 f i cinder:VBO.obj
 0001:0001f7f0       ?max_size@?$vector@V?$shared_ptr@VDisplay@cinder@@@boost@@V?$allocator@V?$shared_ptr@VDisplay@cinder@@@boost@@@std@@@std@@QBEIXZ 004207f0 f i cinder:Display.obj
 0001:0001f7f0       ?max_size@?$vector@V?$Vec2@M@cinder@@V?$allocator@V?$Vec2@M@cinder@@@std@@@std@@QBEIXZ 004207f0 f i cinder:Path2D.obj
 0001:0001f810       ?_Destroy@?$vector@V?$shared_ptr@VDisplay@cinder@@@boost@@V?$allocator@V?$shared_ptr@VDisplay@cinder@@@boost@@@std@@@std@@IAEXPAV?$shared_ptr@VDisplay@cinder@@@boost@@0@Z 00420810 f i cinder:Display.obj
 0001:0001f840       ??H?$_Vector_iterator@V?$shared_ptr@VDisplay@cinder@@@boost@@V?$allocator@V?$shared_ptr@VDisplay@cinder@@@boost@@@std@@@std@@QBE?AV01@H@Z 00420840 f i cinder:Display.obj
 0001:0001f880       ??G?$_Vector_const_iterator@V?$shared_ptr@VDisplay@cinder@@@boost@@V?$allocator@V?$shared_ptr@VDisplay@cinder@@@boost@@@std@@@std@@QBEHABV01@@Z 00420880 f i cinder:Display.obj
 0001:0001f8d0       ??Y?$_Vector_iterator@V?$shared_ptr@VDisplay@cinder@@@boost@@V?$allocator@V?$shared_ptr@VDisplay@cinder@@@boost@@@std@@@std@@QAEAAV01@H@Z 004208d0 f i cinder:Display.obj
 0001:0001f8f0       ??Y?$_Vector_const_iterator@V?$shared_ptr@VDisplay@cinder@@@boost@@V?$allocator@V?$shared_ptr@VDisplay@cinder@@@boost@@@std@@@std@@QAEAAV01@H@Z 004208f0 f i cinder:Display.obj
 0001:0001f970       ??$?0VDisplay@cinder@@@?$shared_ptr@VDisplay@cinder@@@boost@@QAE@PAVDisplay@cinder@@@Z 00420970 f i cinder:Display.obj
 0001:0001f9f0       ??$swap@V?$shared_ptr@VDisplay@cinder@@@boost@@@std@@YAXAAV?$shared_ptr@VDisplay@cinder@@@boost@@0@Z 004209f0 f i cinder:Display.obj
 0001:0001fa70       ??$unchecked_uninitialized_fill_n@PAV?$shared_ptr@VDisplay@cinder@@@boost@@IV12@V?$allocator@V?$shared_ptr@VDisplay@cinder@@@boost@@@std@@@stdext@@YAXPAV?$shared_ptr@VDisplay@cinder@@@boost@@IABV12@AAV?$allocator@V?$shared_ptr@VDisplay@cinder@@@boost@@@std@@@Z 00420a70 f i cinder:Display.obj
 0001:0001fac0       ??$_Destroy_range@V?$allocator@V?$shared_ptr@VDisplay@cinder@@@boost@@@std@@@std@@YAXPAV?$shared_ptr@VDisplay@cinder@@@boost@@0AAV?$allocator@V?$shared_ptr@VDisplay@cinder@@@boost@@@0@@Z 00420ac0 f i cinder:Display.obj
 0001:0001fb00       ??$_Umove@PAV?$shared_ptr@VDisplay@cinder@@@boost@@@?$vector@V?$shared_ptr@VDisplay@cinder@@@boost@@V?$allocator@V?$shared_ptr@VDisplay@cinder@@@boost@@@std@@@std@@IAEPAV?$shared_ptr@VDisplay@cinder@@@boost@@PAV23@00@Z 00420b00 f i cinder:Display.obj
 0001:0001fb30       ??$fill@PAV?$shared_ptr@VDisplay@cinder@@@boost@@V12@@std@@YAXPAV?$shared_ptr@VDisplay@cinder@@@boost@@0ABV12@@Z 00420b30 f i cinder:Display.obj
 0001:0001fb60       ??$_Unchecked_move_backward@PAV?$shared_ptr@VDisplay@cinder@@@boost@@PAV12@@stdext@@YAPAV?$shared_ptr@VDisplay@cinder@@@boost@@PAV12@00@Z 00420b60 f i cinder:Display.obj
 0001:0001fbd0       ??$?0VDisplay@cinder@@@shared_count@detail@boost@@QAE@PAVDisplay@cinder@@@Z 00420bd0 f i cinder:Display.obj
 0001:0001fca0       ??$_Uninit_fill_n@PAV?$shared_ptr@VDisplay@cinder@@@boost@@IV12@V?$allocator@V?$shared_ptr@VDisplay@cinder@@@boost@@@std@@@std@@YAXPAV?$shared_ptr@VDisplay@cinder@@@boost@@IABV12@AAV?$allocator@V?$shared_ptr@VDisplay@cinder@@@boost@@@0@U_Nonscalar_ptr_iterator_tag@0@U_Range_checked_iterator_tag@0@@Z 00420ca0 f i cinder:Display.obj
 0001:0001fd60       ??$_Destroy_range@V?$allocator@V?$shared_ptr@VDisplay@cinder@@@boost@@@std@@@std@@YAXPAV?$shared_ptr@VDisplay@cinder@@@boost@@0AAV?$allocator@V?$shared_ptr@VDisplay@cinder@@@boost@@@0@U_Nonscalar_ptr_iterator_tag@0@@Z 00420d60 f i cinder:Display.obj
 0001:0001fd90       ??$_Unchecked_uninitialized_move@PAV?$shared_ptr@VDisplay@cinder@@@boost@@PAV12@V?$allocator@V?$shared_ptr@VDisplay@cinder@@@boost@@@std@@@stdext@@YAPAV?$shared_ptr@VDisplay@cinder@@@boost@@PAV12@00AAV?$allocator@V?$shared_ptr@VDisplay@cinder@@@boost@@@std@@@Z 00420d90 f i cinder:Display.obj
 0001:0001fde0       ??$_Fill@PAV?$shared_ptr@VDisplay@cinder@@@boost@@V12@@std@@YAXPAV?$shared_ptr@VDisplay@cinder@@@boost@@0ABV12@@Z 00420de0 f i cinder:Display.obj
 0001:0001fe10       ??$_Move_backward_opt@PAV?$shared_ptr@VDisplay@cinder@@@boost@@PAV12@Urandom_access_iterator_tag@std@@U_Undefined_move_tag@4@@std@@YAPAV?$shared_ptr@VDisplay@cinder@@@boost@@PAV12@00Urandom_access_iterator_tag@0@U_Undefined_move_tag@0@U_Range_checked_iterator_tag@0@@Z 00420e10 f i cinder:Display.obj
 0001:0001fe60       ??$swap@W4SegmentType@Path2d@cinder@@@std@@YAXAAW4SegmentType@Path2d@cinder@@0@Z 00420e60 f i cinder:Path2D.obj
 0001:0001fe60       ??$swap@PAUIWICBitmapFrameEncode@@@std@@YAXAAPAUIWICBitmapFrameEncode@@0@Z 00420e60 f i cinder:ImageTargetFileWic.obj
 0001:0001fe60       ??$swap@PAVOStreamFile@cinder@@@std@@YAXAAPAVOStreamFile@cinder@@0@Z 00420e60 f i cinder:DataTarget.obj
 0001:0001fe60       ??$swap@PAUObj@Vbo@gl@cinder@@@std@@YAXAAPAUObj@Vbo@gl@cinder@@0@Z 00420e60 f i cinder:VBO.obj
 0001:0001fe60       ??$swap@PAE@std@@YAXAAPAE0@Z 00420e60 f i cinder:Texture.obj
 0001:0001fe60       ??$swap@PAUInst@ImageIoRegistrar@cinder@@@std@@YAXAAPAUInst@ImageIoRegistrar@cinder@@0@Z 00420e60 f i cinder:ImageIo.obj
 0001:0001fe60       ??$swap@PAUObj@?$ChannelT@E@cinder@@@std@@YAXAAPAUObj@?$ChannelT@E@cinder@@0@Z 00420e60 f i cinder:Surface.obj
 0001:0001fe60       ??$swap@PAV?$map@V?$basic_string@DU?$char_traits@D@std@@V?$allocator@D@2@@std@@PBU_GUID@@U?$less@V?$basic_string@DU?$char_traits@D@std@@V?$allocator@D@2@@std@@@2@V?$allocator@U?$pair@$$CBV?$basic_string@DU?$char_traits@D@std@@V?$allocator@D@2@@std@@PBU_GUID@@@std@@@2@@std@@@std@@YAXAAPAV?$map@V?$basic_string@DU?$char_traits@D@std@@V?$allocator@D@2@@std@@PBU_GUID@@U?$less@V?$basic_string@DU?$char_traits@D@std@@V?$allocator@D@2@@std@@@2@V?$allocator@U?$pair@$$CBV?$basic_string@DU?$char_traits@D@std@@V?$allocator@D@2@@std@@PBU_GUID@@@std@@@2@@0@0@Z 00420e60 f i cinder:ImageTargetFileWic.obj
 0001:0001fe60       ??$swap@PAUObj@VertexIter@VboMesh@gl@cinder@@@std@@YAXAAPAUObj@VertexIter@VboMesh@gl@cinder@@0@Z 00420e60 f i cinder:VBO.obj
 0001:0001fe60       ??$swap@PAVRenderer@app@cinder@@@std@@YAXAAPAVRenderer@app@cinder@@0@Z 00420e60 f i cinder:App.obj
 0001:0001fe60       ??$swap@PAVIStreamUrlImpl@cinder@@@std@@YAXAAPAVIStreamUrlImpl@cinder@@0@Z 00420e60 f i cinder:Url.obj
 0001:0001fe60       ??$swap@PAUObj@Texture@gl@cinder@@@std@@YAXAAPAUObj@Texture@gl@cinder@@0@Z 00420e60 f i cinder:Texture.obj
 0001:0001fe60       ??$swap@PAV?$basic_dostream@DU?$char_traits@D@std@@@msw@cinder@@@std@@YAXAAPAV?$basic_dostream@DU?$char_traits@D@std@@@msw@cinder@@0@Z 00420e60 f i cinder:App.obj
 0001:0001fe60       ??$swap@PAVObj@Font@cinder@@@std@@YAXAAPAVObj@Font@cinder@@0@Z 00420e60 f i cinder:gl.obj
 0001:0001fe60       ??$swap@PAVDisplay@cinder@@@std@@YAXAAPAVDisplay@cinder@@0@Z 00420e60 f i cinder:Display.obj
 0001:0001fe60       ??$swap@PAX@std@@YAXAAPAX0@Z 00420e60 f i cinder:UrlImplWinInet.obj
 0001:0001fe60       ??$swap@PAVFont@Gdiplus@@@std@@YAXAAPAVFont@Gdiplus@@0@Z 00420e60 f i cinder:Font.obj
 0001:0001fe60       ??$swap@PAUObj@Buffer@cinder@@@std@@YAXAAPAUObj@Buffer@cinder@@0@Z 00420e60 f i cinder:DataSource.obj
 0001:0001fe60       ??$swap@PAUIWICBitmapEncoder@@@std@@YAXAAPAUIWICBitmapEncoder@@0@Z 00420e60 f i cinder:ImageTargetFileWic.obj
 0001:0001fe60       ??$swap@PAUObj@?$SurfaceT@E@cinder@@@std@@YAXAAPAUObj@?$SurfaceT@E@cinder@@0@Z 00420e60 f i cinder:Surface.obj
 0001:0001fe90       ?construct@?$allocator@V?$shared_ptr@VLine@cinder@@@boost@@@std@@QAEXPAV?$shared_ptr@VLine@cinder@@@boost@@ABV34@@Z 00420e90 f i cinder:Text.obj
 0001:0001fe90       ?construct@?$allocator@V?$shared_ptr@VDisplay@cinder@@@boost@@@std@@QAEXPAV?$shared_ptr@VDisplay@cinder@@@boost@@ABV34@@Z 00420e90 f i cinder:Display.obj
 0001:0001feb0       ??0?$sp_counted_impl_p@VDisplay@cinder@@@detail@boost@@QAE@PAVDisplay@cinder@@@Z 00420eb0 f i cinder:Display.obj
 0001:0001fee0       ?dispose@?$sp_counted_impl_p@VDisplay@cinder@@@detail@boost@@UAEXXZ 00420ee0 f i cinder:Display.obj
 0001:0001ff00       ??$checked_delete@VDisplay@cinder@@@boost@@YAXPAVDisplay@cinder@@@Z 00420f00 f i cinder:Display.obj
 0001:0001ff40       ??$_Uninit_move@PAV?$shared_ptr@VDisplay@cinder@@@boost@@PAV12@V?$allocator@V?$shared_ptr@VDisplay@cinder@@@boost@@@std@@U_Undefined_move_tag@4@@std@@YAPAV?$shared_ptr@VDisplay@cinder@@@boost@@PAV12@00AAV?$allocator@V?$shared_ptr@VDisplay@cinder@@@boost@@@0@U_Undefined_move_tag@0@U_Range_checked_iterator_tag@0@@Z 00420f40 f i cinder:Display.obj
 0001:0001ff60       ??$_Copy_backward_opt@PAV?$shared_ptr@VDisplay@cinder@@@boost@@PAV12@@std@@YAPAV?$shared_ptr@VDisplay@cinder@@@boost@@PAV12@00Urandom_access_iterator_tag@0@U_Nonscalar_ptr_iterator_tag@0@U_Range_checked_iterator_tag@0@@Z 00420f60 f i cinder:Display.obj
 0001:0001ffc0       ??$_Construct@V?$shared_ptr@VDisplay@cinder@@@boost@@V12@@std@@YAXPAV?$shared_ptr@VDisplay@cinder@@@boost@@ABV12@@Z 00420fc0 f i cinder:Display.obj
 0001:0001ffc0       ??$_Construct@V?$shared_ptr@VLine@cinder@@@boost@@V12@@std@@YAXPAV?$shared_ptr@VLine@cinder@@@boost@@ABV12@@Z 00420fc0 f i cinder:Text.obj
 0001:00020040       ??_GDisplay@cinder@@QAEPAXI@Z 00421040 f i cinder:Display.obj
 0001:00020070       ??$unchecked_uninitialized_copy@PAV?$shared_ptr@VDisplay@cinder@@@boost@@PAV12@V?$allocator@V?$shared_ptr@VDisplay@cinder@@@boost@@@std@@@stdext@@YAPAV?$shared_ptr@VDisplay@cinder@@@boost@@PAV12@00AAV?$allocator@V?$shared_ptr@VDisplay@cinder@@@boost@@@std@@@Z 00421070 f i cinder:Display.obj
 0001:000200d0       ??$_Copy_backward_opt@PAV?$shared_ptr@VDisplay@cinder@@@boost@@PAV12@Uforward_iterator_tag@std@@@std@@YAPAV?$shared_ptr@VDisplay@cinder@@@boost@@PAV12@00Uforward_iterator_tag@0@U_Nonscalar_ptr_iterator_tag@0@U_Range_checked_iterator_tag@0@@Z 004210d0 f i cinder:Display.obj
 0001:00020100       ??$_Uninit_copy@PAV?$shared_ptr@VDisplay@cinder@@@boost@@PAV12@V?$allocator@V?$shared_ptr@VDisplay@cinder@@@boost@@@std@@@std@@YAPAV?$shared_ptr@VDisplay@cinder@@@boost@@PAV12@00AAV?$allocator@V?$shared_ptr@VDisplay@cinder@@@boost@@@0@U_Nonscalar_ptr_iterator_tag@0@U_Range_checked_iterator_tag@0@@Z 00421100 f i cinder:Display.obj
 0001:000201c0       ??1?$_Vector_val@U?$pair@W4CustomAttr@Layout@VboMesh@gl@cinder@@I@std@@V?$allocator@U?$pair@W4CustomAttr@Layout@VboMesh@gl@cinder@@I@std@@@2@@std@@QAE@XZ 004211c0 f i cinder:VBO.obj
 0001:000201c0       ??1?$_Vector_val@DV?$allocator@D@std@@@std@@QAE@XZ 004211c0 f i cinder:Utilities.obj
 0001:000201c0       ??1?$_Vector_val@U?$pair@KV?$function@$$A6A_NVTouchEvent@app@cinder@@@Z@boost@@@std@@V?$allocator@U?$pair@KV?$function@$$A6A_NVTouchEvent@app@cinder@@@Z@boost@@@std@@@2@@std@@QAE@XZ 004211c0 f i cinder:AppBasic.obj
 0001:000201c0       ??1?$_Tmap_traits@V?$basic_string@DU?$char_traits@D@std@@V?$allocator@D@2@@std@@V?$multimap@JU?$pair@P6A?AV?$shared_ptr@VImageTarget@cinder@@@boost@@V?$shared_ptr@VDataTarget@cinder@@@2@V?$shared_ptr@VImageSource@cinder@@@2@VOptions@ImageTarget@cinder@@ABV?$basic_string@DU?$char_traits@D@std@@V?$allocator@D@2@@std@@@ZV89@@std@@U?$less@J@2@V?$allocator@U?$pair@$$CBJU?$pair@P6A?AV?$shared_ptr@VImageTarget@cinder@@@boost@@V?$shared_ptr@VDataTarget@cinder@@@2@V?$shared_ptr@VImageSource@cinder@@@2@VOptions@ImageTarget@cinder@@ABV?$basic_string@DU?$char_traits@D@std@@V?$allocator@D@2@@std@@@ZV89@@std@@@std@@@2@@2@U?$less@V?$basic_string@DU?$char_traits@D@std@@V?$allocator@D@2@@std@@@2@V?$allocator@U?$pair@$$CBV?$basic_string@DU?$char_traits@D@std@@V?$allocator@D@2@@std@@V?$multimap@JU?$pair@P6A?AV?$shared_ptr@VImageTarget@cinder@@@boost@@V?$shared_ptr@VDataTarget@cinder@@@2@V?$shared_ptr@VImageSource@cinder@@@2@VOptions@ImageTarget@cinder@@ABV?$basic_string@DU?$char_traits@D@std@@V?$allocator@D@2@@std@@@ZV89@@std@@U?$less@J@2@V?$allocator@U?$pair@$$CBJU?$pair@P6A?AV?$shared_ptr@VImageTarget@cinder@@@boost@@V?$shared_ptr@VDataTarget@cinder@@@2@V?$shared_ptr@VImageSource@cinder@@@2@VOptions@ImageTarget@cinder@@ABV?$basic_string@DU?$char_traits@D@std@@V?$allocator@D@2@@std@@@ZV89@@std@@@std@@@2@@2@@std@@@2@$0A@@std@@QAE@XZ 004211c0 f i cinder:ImageIo.obj
 0001:000201c0       ??1?$_Vector_val@U?$pair@KV?$function@$$A6A_NVFileDropEvent@app@cinder@@@Z@boost@@@std@@V?$allocator@U?$pair@KV?$function@$$A6A_NVFileDropEvent@app@cinder@@@Z@boost@@@std@@@2@@std@@QAE@XZ 004211c0 f i cinder:App.obj
 0001:000201c0       ??1?$_Vector_val@URun@cinder@@V?$allocator@URun@cinder@@@std@@@std@@QAE@XZ 004211c0 f i cinder:Text.obj
 0001:000201c0       ??1?$_Tmap_traits@V?$basic_string@DU?$char_traits@D@std@@V?$allocator@D@2@@std@@PBU_GUID@@U?$less@V?$basic_string@DU?$char_traits@D@std@@V?$allocator@D@2@@std@@@2@V?$allocator@U?$pair@$$CBV?$basic_string@DU?$char_traits@D@std@@V?$allocator@D@2@@std@@PBU_GUID@@@std@@@2@$0A@@std@@QAE@XZ 004211c0 f i cinder:ImageTargetFileWic.obj
 0001:000201c0       ??1?$_Tmap_traits@KV?$Vec2@M@cinder@@U?$less@K@std@@V?$allocator@U?$pair@$$CBKV?$Vec2@M@cinder@@@std@@@4@$0A@@std@@QAE@XZ 004211c0 f i cinder:AppImplMswBasic.obj
 0001:000201c0       ??1?$_Vector_val@GV?$allocator@G@std@@@std@@QAE@XZ 004211c0 f i cinder:Font.obj
 0001:000201c0       ??1?$_Tmap_traits@JP6A?AV?$shared_ptr@VImageSource@cinder@@@boost@@V?$shared_ptr@VDataSource@cinder@@@2@VOptions@ImageSource@cinder@@@ZU?$less@J@std@@V?$allocator@U?$pair@$$CBJP6A?AV?$shared_ptr@VImageSource@cinder@@@boost@@V?$shared_ptr@VDataSource@cinder@@@2@VOptions@ImageSource@cinder@@@Z@std@@@8@$0A@@std@@QAE@XZ 004211c0 f i cinder:ImageIo.obj
 0001:000201c0       ??1?$_Deque_map@V?$shared_ptr@VLine@cinder@@@boost@@V?$allocator@V?$shared_ptr@VLine@cinder@@@boost@@@std@@@std@@QAE@XZ 004211c0 f i cinder:Text.obj
 0001:000201c0       ??1?$_Tmap_traits@JU?$pair@P6A?AV?$shared_ptr@VImageTarget@cinder@@@boost@@V?$shared_ptr@VDataTarget@cinder@@@2@V?$shared_ptr@VImageSource@cinder@@@2@VOptions@ImageTarget@cinder@@ABV?$basic_string@DU?$char_traits@D@std@@V?$allocator@D@2@@std@@@ZV89@@std@@U?$less@J@2@V?$allocator@U?$pair@$$CBJU?$pair@P6A?AV?$shared_ptr@VImageTarget@cinder@@@boost@@V?$shared_ptr@VDataTarget@cinder@@@2@V?$shared_ptr@VImageSource@cinder@@@2@VOptions@ImageTarget@cinder@@ABV?$basic_string@DU?$char_traits@D@std@@V?$allocator@D@2@@std@@@ZV89@@std@@@std@@@2@$00@std@@QAE@XZ 004211c0 f i cinder:ImageIo.obj
 0001:000201c0       ??1?$_Tmap_traits@V?$basic_string@DU?$char_traits@D@std@@V?$allocator@D@2@@std@@_NU?$less@V?$basic_string@DU?$char_traits@D@std@@V?$allocator@D@2@@std@@@2@V?$allocator@U?$pair@$$CBV?$basic_string@DU?$char_traits@D@std@@V?$allocator@D@2@@std@@_N@std@@@2@$0A@@std@@QAE@XZ 004211c0 f i cinder:gl.obj
 0001:000201c0       ??1?$_Vector_val@W4SegmentType@Path2d@cinder@@V?$allocator@W4SegmentType@Path2d@cinder@@@std@@@std@@QAE@XZ 004211c0 f i cinder:Path2D.obj
 0001:000201c0       ??1?$_Vector_val@U?$pair@KV?$function@$$A6A_NVResizeEvent@app@cinder@@@Z@boost@@@std@@V?$allocator@U?$pair@KV?$function@$$A6A_NVResizeEvent@app@cinder@@@Z@boost@@@std@@@2@@std@@QAE@XZ 004211c0 f i cinder:App.obj
 0001:000201c0       ??1?$_Tmap_traits@JP6A?AV?$shared_ptr@VImageSource@cinder@@@boost@@V?$shared_ptr@VDataSource@cinder@@@2@VOptions@ImageSource@cinder@@@ZU?$less@J@std@@V?$allocator@U?$pair@$$CBJP6A?AV?$shared_ptr@VImageSource@cinder@@@boost@@V?$shared_ptr@VDataSource@cinder@@@2@VOptions@ImageSource@cinder@@@Z@std@@@8@$00@std@@QAE@XZ 004211c0 f i cinder:ImageIo.obj
 0001:000201c0       ??1?$_Tmap_traits@V?$basic_string@DU?$char_traits@D@std@@V?$allocator@D@2@@std@@V?$multimap@JP6A?AV?$shared_ptr@VImageSource@cinder@@@boost@@V?$shared_ptr@VDataSource@cinder@@@2@VOptions@ImageSource@cinder@@@ZU?$less@J@std@@V?$allocator@U?$pair@$$CBJP6A?AV?$shared_ptr@VImageSource@cinder@@@boost@@V?$shared_ptr@VDataSource@cinder@@@2@VOptions@ImageSource@cinder@@@Z@std@@@8@@2@U?$less@V?$basic_string@DU?$char_traits@D@std@@V?$allocator@D@2@@std@@@2@V?$allocator@U?$pair@$$CBV?$basic_string@DU?$char_traits@D@std@@V?$allocator@D@2@@std@@V?$multimap@JP6A?AV?$shared_ptr@VImageSource@cinder@@@boost@@V?$shared_ptr@VDataSource@cinder@@@2@VOptions@ImageSource@cinder@@@ZU?$less@J@std@@V?$allocator@U?$pair@$$CBJP6A?AV?$shared_ptr@VImageSource@cinder@@@boost@@V?$shared_ptr@VDataSource@cinder@@@2@VOptions@ImageSource@cinder@@@Z@std@@@8@@2@@std@@@2@$0A@@std@@QAE@XZ 004211c0 f i cinder:ImageIo.obj
 0001:000201c0       ??1?$_Vector_val@VPath2d@cinder@@V?$allocator@VPath2d@cinder@@@std@@@std@@QAE@XZ 004211c0 f i cinder:Font.obj
 0001:000201c0       ??1?$_Vector_val@U?$pair@GV?$Vec2@M@cinder@@@std@@V?$allocator@U?$pair@GV?$Vec2@M@cinder@@@std@@@2@@std@@QAE@XZ 004211c0 f i cinder:Text.obj
 0001:000201c0       ??1?$_Vector_val@U?$pair@HVTexture@gl@cinder@@@std@@V?$allocator@U?$pair@HVTexture@gl@cinder@@@std@@@2@@std@@QAE@XZ 004211c0 f i cinder:Texture.obj
 0001:000201c0       ??1?$_Vector_val@U?$pair@KV?$function@$$A6A_NVMouseEvent@app@cinder@@@Z@boost@@@std@@V?$allocator@U?$pair@KV?$function@$$A6A_NVMouseEvent@app@cinder@@@Z@boost@@@std@@@2@@std@@QAE@XZ 004211c0 f i cinder:App.obj
 0001:000201c0       ??1?$_Vector_val@U?$pair@GG@std@@V?$allocator@U?$pair@GG@std@@@2@@std@@QAE@XZ 004211c0 f i cinder:Font.obj
 0001:000201c0       ??1?$_Vector_val@V?$shared_ptr@VDisplay@cinder@@@boost@@V?$allocator@V?$shared_ptr@VDisplay@cinder@@@boost@@@std@@@std@@QAE@XZ 004211c0 f i cinder:Display.obj
 0001:000201c0       ??1?$_Vector_val@_WV?$allocator@_W@std@@@std@@QAE@XZ 004211c0 f i cinder:Utilities.obj
 0001:000201c0       ??1?$_Vector_val@U?$pair@KV?$function@$$A6A_NVKeyEvent@app@cinder@@@Z@boost@@@std@@V?$allocator@U?$pair@KV?$function@$$A6A_NVKeyEvent@app@cinder@@@Z@boost@@@std@@@2@@std@@QAE@XZ 004211c0 f i cinder:App.obj
 0001:000201c0       ??1?$_Vector_val@IV?$allocator@I@std@@@std@@QAE@XZ 004211c0 f i cinder:VBO.obj
 0001:000201c0       ??1?$_Vector_val@HV?$allocator@H@std@@@std@@QAE@XZ 004211c0 f i cinder:VBO.obj
 0001:000201e0       ?_Buy@?$vector@V?$Vec2@M@cinder@@V?$allocator@V?$Vec2@M@cinder@@@std@@@std@@IAE_NI@Z 004211e0 f i cinder:Path2D.obj
 0001:000201e0       ?_Buy@?$vector@V?$shared_ptr@VDisplay@cinder@@@boost@@V?$allocator@V?$shared_ptr@VDisplay@cinder@@@boost@@@std@@@std@@IAE_NI@Z 004211e0 f i cinder:Display.obj
 0001:000201e0       ?_Buy@?$vector@U?$pair@W4CustomAttr@Layout@VboMesh@gl@cinder@@I@std@@V?$allocator@U?$pair@W4CustomAttr@Layout@VboMesh@gl@cinder@@I@std@@@2@@std@@IAE_NI@Z 004211e0 f i cinder:VBO.obj
 0001:00020260       ??1?$_Container_base_aux_alloc_real@V?$allocator@U?$pair@W4CustomAttr@Layout@VboMesh@gl@cinder@@I@std@@@std@@@std@@IAE@XZ 00421260 f i cinder:VBO.obj
 0001:00020260       ??1?$_Container_base_aux_alloc_real@V?$allocator@U?$pair@$$CBJU?$pair@P6A?AV?$shared_ptr@VImageTarget@cinder@@@boost@@V?$shared_ptr@VDataTarget@cinder@@@2@V?$shared_ptr@VImageSource@cinder@@@2@VOptions@ImageTarget@cinder@@ABV?$basic_string@DU?$char_traits@D@std@@V?$allocator@D@2@@std@@@ZV89@@std@@@std@@@std@@@std@@IAE@XZ 00421260 f i cinder:ImageIo.obj
 0001:00020260       ??1?$_Container_base_aux_alloc_real@V?$allocator@U?$pair@GG@std@@@std@@@std@@IAE@XZ 00421260 f i cinder:Font.obj
 0001:00020260       ??1?$_Container_base_aux_alloc_real@V?$allocator@V?$shared_ptr@VDisplay@cinder@@@boost@@@std@@@std@@IAE@XZ 00421260 f i cinder:Display.obj
 0001:00020260       ??1?$_Container_base_aux_alloc_real@V?$allocator@URun@cinder@@@std@@@std@@IAE@XZ 00421260 f i cinder:Text.obj
 0001:00020260       ??1?$_Container_base_aux_alloc_real@V?$allocator@U?$pair@$$CBJP6A?AV?$shared_ptr@VImageSource@cinder@@@boost@@V?$shared_ptr@VDataSource@cinder@@@2@VOptions@ImageSource@cinder@@@Z@std@@@std@@@std@@IAE@XZ 00421260 f i cinder:ImageIo.obj
 0001:00020260       ??1?$_Container_base_aux_alloc_real@V?$allocator@H@std@@@std@@IAE@XZ 00421260 f i cinder:VBO.obj
 0001:00020260       ??1?$_Container_base_aux_alloc_real@V?$allocator@U?$pair@KV?$function@$$A6A_NVMouseEvent@app@cinder@@@Z@boost@@@std@@@std@@@std@@IAE@XZ 00421260 f i cinder:App.obj
 0001:00020260       ??1?$_Container_base_aux_alloc_real@V?$allocator@U?$pair@$$CBV?$basic_string@DU?$char_traits@D@std@@V?$allocator@D@2@@std@@V?$multimap@JP6A?AV?$shared_ptr@VImageSource@cinder@@@boost@@V?$shared_ptr@VDataSource@cinder@@@2@VOptions@ImageSource@cinder@@@ZU?$less@J@std@@V?$allocator@U?$pair@$$CBJP6A?AV?$shared_ptr@VImageSource@cinder@@@boost@@V?$shared_ptr@VDataSource@cinder@@@2@VOptions@ImageSource@cinder@@@Z@std@@@8@@2@@std@@@std@@@std@@IAE@XZ 00421260 f i cinder:ImageIo.obj
 0001:00020260       ??1?$_Container_base_aux_alloc_real@V?$allocator@G@std@@@std@@IAE@XZ 00421260 f i cinder:Font.obj
 0001:00020260       ??1?$_Container_base_aux_alloc_real@V?$allocator@U?$pair@KV?$function@$$A6A_NVResizeEvent@app@cinder@@@Z@boost@@@std@@@std@@@std@@IAE@XZ 00421260 f i cinder:App.obj
 0001:00020260       ??1?$_Container_base_aux_alloc_real@V?$allocator@D@std@@@std@@IAE@XZ 00421260 f i cinder:Utilities.obj
 0001:00020260       ??1?$_Container_base_aux_alloc_real@V?$allocator@U?$pair@$$CBV?$basic_string@DU?$char_traits@D@std@@V?$allocator@D@2@@std@@_N@std@@@std@@@std@@IAE@XZ 00421260 f i cinder:gl.obj
 0001:00020260       ??1?$_Container_base_aux_alloc_real@V?$allocator@_W@std@@@std@@IAE@XZ 00421260 f i cinder:Utilities.obj
 0001:00020260       ??1?$_Container_base_aux_alloc_real@V?$allocator@VPath2d@cinder@@@std@@@std@@IAE@XZ 00421260 f i cinder:Font.obj
 0001:00020260       ??1?$_Container_base_aux_alloc_real@V?$allocator@U?$pair@$$CBV?$basic_string@DU?$char_traits@D@std@@V?$allocator@D@2@@std@@PBU_GUID@@@std@@@std@@@std@@IAE@XZ 00421260 f i cinder:ImageTargetFileWic.obj
 0001:00020260       ??1?$_Container_base_aux_alloc_real@V?$allocator@U?$pair@$$CBKV?$Vec2@M@cinder@@@std@@@std@@@std@@IAE@XZ 00421260 f i cinder:AppImplMswBasic.obj
 0001:00020260       ??1?$_Container_base_aux_alloc_real@V?$allocator@V?$shared_ptr@VLine@cinder@@@boost@@@std@@@std@@IAE@XZ 00421260 f i cinder:Text.obj
 0001:00020260       ??1?$_Container_base_aux_alloc_real@V?$allocator@U?$pair@KV?$function@$$A6A_NVTouchEvent@app@cinder@@@Z@boost@@@std@@@std@@@std@@IAE@XZ 00421260 f i cinder:AppBasic.obj
 0001:00020260       ??1?$_Container_base_aux_alloc_real@V?$allocator@U?$pair@$$CBV?$basic_string@DU?$char_traits@D@std@@V?$allocator@D@2@@std@@V?$multimap@JU?$pair@P6A?AV?$shared_ptr@VImageTarget@cinder@@@boost@@V?$shared_ptr@VDataTarget@cinder@@@2@V?$shared_ptr@VImageSource@cinder@@@2@VOptions@ImageTarget@cinder@@ABV?$basic_string@DU?$char_traits@D@std@@V?$allocator@D@2@@std@@@ZV89@@std@@U?$less@J@2@V?$allocator@U?$pair@$$CBJU?$pair@P6A?AV?$shared_ptr@VImageTarget@cinder@@@boost@@V?$shared_ptr@VDataTarget@cinder@@@2@V?$shared_ptr@VImageSource@cinder@@@2@VOptions@ImageTarget@cinder@@ABV?$basic_string@DU?$char_traits@D@std@@V?$allocator@D@2@@std@@@ZV89@@std@@@std@@@2@@2@@std@@@std@@@std@@IAE@XZ 00421260 f i cinder:ImageIo.obj
 0001:00020260       ??1?$_Container_base_aux_alloc_real@V?$allocator@U?$pair@GV?$Vec2@M@cinder@@@std@@@std@@@std@@IAE@XZ 00421260 f i cinder:Text.obj
 0001:00020260       ??1?$_Container_base_aux_alloc_real@V?$allocator@U?$pair@KV?$function@$$A6A_NVKeyEvent@app@cinder@@@Z@boost@@@std@@@std@@@std@@IAE@XZ 00421260 f i cinder:App.obj
 0001:00020260       ??1?$_Container_base_aux_alloc_real@V?$allocator@W4SegmentType@Path2d@cinder@@@std@@@std@@IAE@XZ 00421260 f i cinder:Path2D.obj
 0001:00020260       ??1?$_Container_base_aux_alloc_real@V?$allocator@U?$pair@KV?$function@$$A6A_NVFileDropEvent@app@cinder@@@Z@boost@@@std@@@std@@@std@@IAE@XZ 00421260 f i cinder:App.obj
 0001:00020260       ??1?$_Container_base_aux_alloc_real@V?$allocator@U?$pair@HVTexture@gl@cinder@@@std@@@std@@@std@@IAE@XZ 00421260 f i cinder:Texture.obj
 0001:00020260       ??1?$_Container_base_aux_alloc_real@V?$allocator@I@std@@@std@@IAE@XZ 00421260 f i cinder:VBO.obj
 0001:000202c0       ??1?$vector@V?$shared_ptr@VDisplay@cinder@@@boost@@V?$allocator@V?$shared_ptr@VDisplay@cinder@@@boost@@@std@@@std@@QAE@XZ 004212c0 f i cinder:Display.obj
 0001:00020320       ?_Tidy@?$vector@V?$shared_ptr@VDisplay@cinder@@@boost@@V?$allocator@V?$shared_ptr@VDisplay@cinder@@@boost@@@std@@@std@@IAEXXZ 00421320 f i cinder:Display.obj
 0001:00020390       ??0Timer@cinder@@QAE@XZ    00421390 f   cinder:Timer.obj
 0001:000203e0       ??0Timer@cinder@@QAE@_N@Z  004213e0 f   cinder:Timer.obj
 0001:00020440       ?start@Timer@cinder@@QAEXXZ 00421440 f   cinder:Timer.obj
 0001:00020470       ?getSeconds@Timer@cinder@@QBENXZ 00421470 f   cinder:Timer.obj
 0001:000204b0       ?stop@Timer@cinder@@QAEXXZ 004214b0 f   cinder:Timer.obj
 0001:000204f0       ?setFilePathHint@DataSource@cinder@@IAEXABV?$basic_string@DU?$char_traits@D@std@@V?$allocator@D@2@@std@@@Z 004214f0 f   cinder:DataSource.obj
 0001:00020510       ?getFilePath@DataSource@cinder@@QAEABV?$basic_string@DU?$char_traits@D@std@@V?$allocator@D@2@@std@@XZ 00421510 f   cinder:DataSource.obj
 0001:00020530       ?getUrl@DataSource@cinder@@QAEABVUrl@2@XZ 00421530 f   cinder:DataSource.obj
 0001:00020550       ?getFilePathHint@DataSource@cinder@@QAEABV?$basic_string@DU?$char_traits@D@std@@V?$allocator@D@2@@std@@XZ 00421550 f   cinder:DataSource.obj
 0001:00020570       ?getBuffer@DataSource@cinder@@QAEAAVBuffer@2@XZ 00421570 f   cinder:DataSource.obj
 0001:000205a0       ?createRef@DataSourcePath@cinder@@SA?AV?$shared_ptr@VDataSourcePath@cinder@@@boost@@ABV?$basic_string@DU?$char_traits@D@std@@V?$allocator@D@2@@std@@@Z 004215a0 f   cinder:DataSource.obj
 0001:00020640       ??0DataSourcePath@cinder@@IAE@ABV?$basic_string@DU?$char_traits@D@std@@V?$allocator@D@2@@std@@@Z 00421640 f   cinder:DataSource.obj
 0001:000206e0       ?createBuffer@DataSourcePath@cinder@@MAEXXZ 004216e0 f   cinder:DataSource.obj
 0001:000207c0       ?createStream@DataSourcePath@cinder@@UAE?AV?$shared_ptr@VIStream@cinder@@@boost@@XZ 004217c0 f   cinder:DataSource.obj
 0001:00020860       ?loadFile@cinder@@YA?AV?$shared_ptr@VDataSourcePath@cinder@@@boost@@ABV?$basic_string@DU?$char_traits@D@std@@V?$allocator@D@2@@std@@@Z 00421860 f   cinder:DataSource.obj
 0001:00020890       ?createRef@DataSourceUrl@cinder@@SA?AV?$shared_ptr@VDataSourceUrl@cinder@@@boost@@ABVUrl@2@@Z 00421890 f   cinder:DataSource.obj
 0001:00020930       ??0DataSourceUrl@cinder@@IAE@ABVUrl@1@@Z 00421930 f   cinder:DataSource.obj
 0001:000209f0       ?createBuffer@DataSourceUrl@cinder@@MAEXXZ 004219f0 f   cinder:DataSource.obj
 0001:00020ab0       ?createStream@DataSourceUrl@cinder@@UAE?AV?$shared_ptr@VIStream@cinder@@@boost@@XZ 00421ab0 f   cinder:DataSource.obj
 0001:00020b50       ?loadUrl@cinder@@YA?AV?$shared_ptr@VDataSourceUrl@cinder@@@boost@@ABVUrl@1@@Z 00421b50 f   cinder:DataSource.obj
 0001:00020b80       ?createRef@DataSourceBuffer@cinder@@SA?AV?$shared_ptr@VDataSourceBuffer@cinder@@@boost@@VBuffer@2@ABV?$basic_string@DU?$char_traits@D@std@@V?$allocator@D@2@@std@@@Z 00421b80 f   cinder:DataSource.obj
 0001:00020c70       ??0DataSourceBuffer@cinder@@IAE@VBuffer@1@@Z 00421c70 f   cinder:DataSource.obj
 0001:00020d40       ?createBuffer@DataSourceBuffer@cinder@@MAEXXZ 00421d40 f   cinder:DataSource.obj
 0001:00020d50       ?createStream@DataSourceBuffer@cinder@@UAE?AV?$shared_ptr@VIStream@cinder@@@boost@@XZ 00421d50 f   cinder:DataSource.obj
 0001:00020e00       ??0Url@cinder@@QAE@XZ      00421e00 f i cinder:DataSource.obj
 0001:00020e20       ??0DataSource@cinder@@IAE@ABV?$basic_string@DU?$char_traits@D@std@@V?$allocator@D@2@@std@@ABVUrl@1@@Z 00421e20 f i cinder:DataSource.obj
 0001:00020eb0       ??0Font@cinder@@QAE@XZ     00421eb0 f i cinder:Text.obj
 0001:00020eb0       ??0?$SurfaceT@E@cinder@@QAE@XZ 00421eb0 f i cinder:Surface.obj
 0001:00020eb0       ??0?$ChannelT@E@cinder@@QAE@XZ 00421eb0 f i cinder:Surface.obj
 0001:00020eb0       ??0Buffer@cinder@@QAE@XZ   00421eb0 f i cinder:DataSource.obj
 0001:00020eb0       ??0Vbo@gl@cinder@@QAE@XZ   00421eb0 f i cinder:VBO.obj
 0001:00020eb0       ??0Texture@gl@cinder@@QAE@XZ 00421eb0 f i cinder:Texture.obj
 0001:00020ed0       ??1DataSource@cinder@@MAE@XZ 00421ed0 f i cinder:DataSource.obj
 0001:00020f50       ??_GDataSource@cinder@@MAEPAXI@Z 00421f50 f i cinder:DataSource.obj
 0001:00020f50       ??_EDataSource@cinder@@MAEPAXI@Z 00421f50 f i cinder:DataSource.obj
 0001:00020f80       ??0Url@cinder@@QAE@ABV01@@Z 00421f80 f i cinder:DataSource.obj
 0001:00020fa0       ??_GDataSourceBuffer@cinder@@UAEPAXI@Z 00421fa0 f i cinder:DataSource.obj
 0001:00020fa0       ??_EDataSourceBuffer@cinder@@UAEPAXI@Z 00421fa0 f i cinder:DataSource.obj
 0001:00020fa0       ??_GDataSourcePath@cinder@@UAEPAXI@Z 00421fa0 f i cinder:DataSource.obj
 0001:00020fa0       ??_EDataSourceUrl@cinder@@UAEPAXI@Z 00421fa0 f i cinder:DataSource.obj
 0001:00020fa0       ??_GDataSourceUrl@cinder@@UAEPAXI@Z 00421fa0 f i cinder:DataSource.obj
 0001:00020fa0       ??_EDataSourcePath@cinder@@UAEPAXI@Z 00421fa0 f i cinder:DataSource.obj
 0001:00020fd0       ??1DataSourceUrl@cinder@@UAE@XZ 00421fd0 f i cinder:DataSource.obj
 0001:00020fd0       ??1DataSourcePath@cinder@@UAE@XZ 00421fd0 f i cinder:DataSource.obj
 0001:00020fd0       ??1DataSourceBuffer@cinder@@UAE@XZ 00421fd0 f i cinder:DataSource.obj
 0001:00021030       ??0StreamExc@cinder@@QAE@XZ 00422030 f i cinder:DataSource.obj
 0001:00021050       ??0StreamExc@cinder@@QAE@ABV01@@Z 00422050 f i cinder:DataSource.obj
 0001:00021080       ?getRowBytes@?$SurfaceT@E@cinder@@QBEJXZ 00422080 f i cinder:Flip.obj
 0001:00021080       ?getDataSize@Buffer@cinder@@QBEIXZ 00422080 f i cinder:DataSource.obj
 0001:00021080       ?getRowBytes@?$ChannelT@E@cinder@@QBEJXZ 00422080 f i cinder:Texture.obj
 0001:00021080       ?getRowBytes@?$ChannelT@M@cinder@@QBEJXZ 00422080 f i cinder:Texture.obj
 0001:000210a0       ??0?$shared_ptr@VImageTarget@cinder@@@boost@@QAE@XZ 004220a0 f i cinder:ImageIo.obj
 0001:000210a0       ??0?$shared_ptr@UInst@ImageIoRegistrar@cinder@@@boost@@QAE@XZ 004220a0 f i cinder:ImageIo.obj
 0001:000210a0       ??0?$shared_ptr@E@boost@@QAE@XZ 004220a0 f i cinder:Texture.obj
 0001:000210a0       ??0?$shared_ptr@VIStreamMem@cinder@@@boost@@QAE@XZ 004220a0 f i cinder:DataSource.obj
 0001:000210a0       ??0?$shared_ptr@VIStreamFile@cinder@@@boost@@QAE@XZ 004220a0 f i cinder:DataSource.obj
 0001:000210a0       ??0?$shared_ptr@V?$basic_dostream@DU?$char_traits@D@std@@@msw@cinder@@@boost@@QAE@XZ 004220a0 f i cinder:App.obj
 0001:000210a0       ??0?$shared_ptr@X@boost@@QAE@XZ 004220a0 f i cinder:UrlImplWinInet.obj
 0001:000210a0       ??0?$shared_ptr@Utss_cleanup_function@detail@boost@@@boost@@QAE@XZ 004220a0 f i cinder:CinderMsw.obj
 0001:000210a0       ??0?$shared_ptr@VFont@Gdiplus@@@boost@@QAE@XZ 004220a0 f i cinder:Font.obj
 0001:000210a0       ??0?$shared_ptr@V?$map@V?$basic_string@DU?$char_traits@D@std@@V?$allocator@D@2@@std@@PBU_GUID@@U?$less@V?$basic_string@DU?$char_traits@D@std@@V?$allocator@D@2@@std@@@2@V?$allocator@U?$pair@$$CBV?$basic_string@DU?$char_traits@D@std@@V?$allocator@D@2@@std@@PBU_GUID@@@std@@@2@@std@@@boost@@QAE@XZ 004220a0 f i cinder:ImageTargetFileWic.obj
 0001:000210a0       ??0?$shared_ptr@UIWICBitmapEncoder@@@boost@@QAE@XZ 004220a0 f i cinder:ImageTargetFileWic.obj
 0001:000210a0       ??0?$shared_ptr@UObj@Buffer@cinder@@@boost@@QAE@XZ 004220a0 f i cinder:DataSource.obj
 0001:000210a0       ??0?$shared_ptr@UObj@?$SurfaceT@E@cinder@@@boost@@QAE@XZ 004220a0 f i cinder:Surface.obj
 0001:000210a0       ??0?$shared_ptr@UObj@?$ChannelT@E@cinder@@@boost@@QAE@XZ 004220a0 f i cinder:Surface.obj
 0001:000210a0       ??0?$shared_ptr@VOStreamFile@cinder@@@boost@@QAE@XZ 004220a0 f i cinder:Stream.obj
 0001:000210a0       ??0?$shared_ptr@VRenderer@app@cinder@@@boost@@QAE@XZ 004220a0 f i cinder:App.obj
 0001:000210a0       ??0?$shared_ptr@UObj@Vbo@gl@cinder@@@boost@@QAE@XZ 004220a0 f i cinder:VBO.obj
 0001:000210a0       ??0?$shared_ptr@UObj@Texture@gl@cinder@@@boost@@QAE@XZ 004220a0 f i cinder:Texture.obj
 0001:000210a0       ??0?$shared_ptr@VIoStreamFile@cinder@@@boost@@QAE@XZ 004220a0 f i cinder:Stream.obj
 0001:000210a0       ??0?$shared_ptr@VIStreamUrlImpl@cinder@@@boost@@QAE@XZ 004220a0 f i cinder:Url.obj
 0001:000210a0       ??0?$shared_ptr@VObj@Font@cinder@@@boost@@QAE@XZ 004220a0 f i cinder:Text.obj
 0001:000210a0       ??0?$shared_ptr@VIStreamUrl@cinder@@@boost@@QAE@XZ 004220a0 f i cinder:DataSource.obj
 0001:000210a0       ??0?$shared_ptr@UIWICBitmapFrameEncode@@@boost@@QAE@XZ 004220a0 f i cinder:ImageTargetFileWic.obj
 0001:000210d0       ??$?0VDataSourcePath@cinder@@@?$shared_ptr@VDataSourcePath@cinder@@@boost@@QAE@PAVDataSourcePath@cinder@@@Z 004220d0 f i cinder:DataSource.obj
 0001:00021150       ??$?0VDataSourceUrl@cinder@@@?$shared_ptr@VDataSourceUrl@cinder@@@boost@@QAE@PAVDataSourceUrl@cinder@@@Z 00422150 f i cinder:DataSource.obj
 0001:000211d0       ??$?0VDataSourceBuffer@cinder@@@?$shared_ptr@VDataSourceBuffer@cinder@@@boost@@QAE@PAVDataSourceBuffer@cinder@@@Z 004221d0 f i cinder:DataSource.obj
 0001:00021250       ??$?0VDataSourcePath@cinder@@@shared_count@detail@boost@@QAE@PAVDataSourcePath@cinder@@@Z 00422250 f i cinder:DataSource.obj
 0001:00021320       ??$?0VDataSourceUrl@cinder@@@shared_count@detail@boost@@QAE@PAVDataSourceUrl@cinder@@@Z 00422320 f i cinder:DataSource.obj
 0001:000213f0       ??$?0VDataSourceBuffer@cinder@@@shared_count@detail@boost@@QAE@PAVDataSourceBuffer@cinder@@@Z 004223f0 f i cinder:DataSource.obj
 0001:000214c0       ??0?$sp_counted_impl_p@VDataSourcePath@cinder@@@detail@boost@@QAE@PAVDataSourcePath@cinder@@@Z 004224c0 f i cinder:DataSource.obj
 0001:000214f0       ??0?$sp_counted_impl_p@VDataSourceUrl@cinder@@@detail@boost@@QAE@PAVDataSourceUrl@cinder@@@Z 004224f0 f i cinder:DataSource.obj
 0001:00021520       ?dispose@?$sp_counted_impl_p@VDataSourcePath@cinder@@@detail@boost@@UAEXXZ 00422520 f i cinder:DataSource.obj
 0001:00021520       ?dispose@?$sp_counted_impl_p@VDataSourceBuffer@cinder@@@detail@boost@@UAEXXZ 00422520 f i cinder:DataSource.obj
 0001:00021520       ?dispose@?$sp_counted_impl_p@VDataSourceUrl@cinder@@@detail@boost@@UAEXXZ 00422520 f i cinder:DataSource.obj
 0001:00021520       ?dispose@?$sp_counted_impl_p@VDataTargetPath@cinder@@@detail@boost@@UAEXXZ 00422520 f i cinder:DataTarget.obj
 0001:00021520       ?dispose@?$sp_counted_impl_p@VDataTargetStream@cinder@@@detail@boost@@UAEXXZ 00422520 f i cinder:DataTarget.obj
 0001:00021540       ??0?$sp_counted_impl_p@VDataSourceBuffer@cinder@@@detail@boost@@QAE@PAVDataSourceBuffer@cinder@@@Z 00422540 f i cinder:DataSource.obj
 0001:00021570       ??$?0V?$rational@J@boost@@@?$AreaT@J@cinder@@QAE@ABV?$AreaT@V?$rational@J@boost@@@1@@Z 00422570 f   cinder:Area.obj
 0001:00021610       ??$?0J@?$AreaT@V?$rational@J@boost@@@cinder@@QAE@ABV?$AreaT@J@1@@Z 00422610 f   cinder:Area.obj
 0001:00021690       ?clippedSrcDst@cinder@@YA?AU?$pair@V?$AreaT@J@cinder@@V?$Vec2@H@2@@std@@ABV?$AreaT@J@1@00ABV?$Vec2@H@1@@Z 00422690 f   cinder:Area.obj
 0001:000217f0       ??0?$rational@J@boost@@QAE@XZ 004227f0 f i cinder:Area.obj
 0001:00021820       ??4?$rational@J@boost@@QAEAAV01@J@Z 00422820 f i cinder:Area.obj
 0001:00021840       ??H?$Vec2@H@cinder@@QBE?BV01@ABV01@@Z 00422840 f i cinder:Area.obj
 0001:00021870       ??G?$Vec2@J@cinder@@QBE?BV01@ABV01@@Z 00422870 f i cinder:Area.obj
 0001:000218a0       ?set@?$AreaT@J@cinder@@QAEXJJJJ@Z 004228a0 f i cinder:Area.obj
 0001:00021910       ?clipBy@?$AreaT@J@cinder@@QAEXABV12@@Z 00422910 f i cinder:Area.obj
 0001:000219f0       ?getClipBy@?$AreaT@J@cinder@@QBE?AV12@ABV12@@Z 004229f0 f i cinder:Area.obj
 0001:00021a50       ?moveULTo@?$AreaT@J@cinder@@QAEXABV?$Vec2@J@2@@Z 00422a50 f i cinder:Area.obj
 0001:00021a90       ?assign@?$rational@J@boost@@QAEAAV12@JJ@Z 00422a90 f i cinder:Area.obj
 0001:00021ac0       ??$make_pair@V?$AreaT@J@cinder@@V?$Vec2@H@2@@std@@YA?AU?$pair@V?$AreaT@J@cinder@@V?$Vec2@H@2@@0@V?$AreaT@J@cinder@@V?$Vec2@H@3@@Z 00422ac0 f i cinder:Area.obj
 0001:00021ae0       ??0?$pair@V?$AreaT@J@cinder@@V?$Vec2@H@2@@std@@QAE@ABV?$AreaT@J@cinder@@ABV?$Vec2@H@3@@Z 00422ae0 f i cinder:Area.obj
 0001:00021b20       ??0bad_rational@boost@@QAE@XZ 00422b20 f i cinder:Area.obj
 0001:00021ba0       ??0domain_error@std@@QAE@ABV?$basic_string@DU?$char_traits@D@std@@V?$allocator@D@2@@1@@Z 00422ba0 f i cinder:Area.obj
 0001:00021bd0       ??1domain_error@std@@UAE@XZ 00422bd0 f i cinder:Area.obj
 0001:00021bf0       ??_Gdomain_error@std@@UAEPAXI@Z 00422bf0 f i cinder:Area.obj
 0001:00021bf0       ??_Edomain_error@std@@UAEPAXI@Z 00422bf0 f i cinder:Area.obj
 0001:00021c20       ??_Gbad_rational@boost@@UAEPAXI@Z 00422c20 f i cinder:Area.obj
 0001:00021c20       ??_Ebad_rational@boost@@UAEPAXI@Z 00422c20 f i cinder:Area.obj
 0001:00021c50       ??1bad_rational@boost@@UAE@XZ 00422c50 f i cinder:Area.obj
 0001:00021c70       ?normalize@?$rational@J@boost@@AAEXXZ 00422c70 f i cinder:Area.obj
 0001:00021d20       ??$gcd@J@math@boost@@YAJABJ0@Z 00422d20 f i cinder:Area.obj
 0001:00021d40       ??0bad_rational@boost@@QAE@ABV01@@Z 00422d40 f i cinder:Area.obj
 0001:00021d70       ??0domain_error@std@@QAE@ABV01@@Z 00422d70 f i cinder:Area.obj
 0001:00021da0       ??R?$gcd_evaluator@J@math@boost@@QBEJABJ0@Z 00422da0 f i cinder:Area.obj
 0001:00021dc0       ??$gcd_optimal@J@detail@math@boost@@YAJABJ0@Z 00422dc0 f i cinder:Area.obj
 0001:00021de0       ??R?$gcd_optimal_evaluator@J@detail@math@boost@@QBEJJJ@Z 00422de0 f i cinder:Area.obj
 0001:00021e40       ??R?$gcd_optimal_evaluator@K@detail@math@boost@@QBEKKK@Z 00422e40 f i cinder:Area.obj
 0001:00021e60       ??$gcd_binary@K@detail@math@boost@@YAKKK@Z 00422e60 f i cinder:Area.obj
 0001:00021f50       ??0Exception@cinder@@QAE@XZ 00422f50 f   cinder:Exception.obj
 0001:00021f70       ___GLeeGetProcAddress      00422f70 f   cinder:GLee.obj
 0001:00021f80       _GLee_Lazy_glBlendColor@16 00422f80 f   cinder:GLee.obj
 0001:00021fc0       _GLee_Lazy_glBlendEquation@4 00422fc0 f   cinder:GLee.obj
 0001:00021fe0       _GLee_Lazy_glDrawRangeElements@24 00422fe0 f   cinder:GLee.obj
 0001:00022020       _GLee_Lazy_glColorTable@24 00423020 f   cinder:GLee.obj
 0001:00022060       _GLee_Lazy_glColorTableParameterfv@12 00423060 f   cinder:GLee.obj
 0001:00022090       _GLee_Lazy_glColorTableParameteriv@12 00423090 f   cinder:GLee.obj
 0001:000220c0       _GLee_Lazy_glCopyColorTable@20 004230c0 f   cinder:GLee.obj
 0001:000220f0       _GLee_Lazy_glGetColorTable@16 004230f0 f   cinder:GLee.obj
 0001:00022120       _GLee_Lazy_glGetColorTableParameterfv@12 00423120 f   cinder:GLee.obj
 0001:00022150       _GLee_Lazy_glGetColorTableParameteriv@12 00423150 f   cinder:GLee.obj
 0001:00022180       _GLee_Lazy_glColorSubTable@24 00423180 f   cinder:GLee.obj
 0001:000221c0       _GLee_Lazy_glCopyColorSubTable@20 004231c0 f   cinder:GLee.obj
 0001:000221f0       _GLee_Lazy_glConvolutionFilter1D@24 004231f0 f   cinder:GLee.obj
 0001:00022230       _GLee_Lazy_glConvolutionFilter2D@28 00423230 f   cinder:GLee.obj
 0001:00022270       _GLee_Lazy_glConvolutionParameterf@12 00423270 f   cinder:GLee.obj
 0001:000222a0       _GLee_Lazy_glConvolutionParameterfv@12 004232a0 f   cinder:GLee.obj
 0001:000222d0       _GLee_Lazy_glConvolutionParameteri@12 004232d0 f   cinder:GLee.obj
 0001:00022300       _GLee_Lazy_glConvolutionParameteriv@12 00423300 f   cinder:GLee.obj
 0001:00022330       _GLee_Lazy_glCopyConvolutionFilter1D@20 00423330 f   cinder:GLee.obj
 0001:00022360       _GLee_Lazy_glCopyConvolutionFilter2D@24 00423360 f   cinder:GLee.obj
 0001:000223a0       _GLee_Lazy_glGetConvolutionFilter@16 004233a0 f   cinder:GLee.obj
 0001:000223d0       _GLee_Lazy_glGetConvolutionParameterfv@12 004233d0 f   cinder:GLee.obj
 0001:00022400       _GLee_Lazy_glGetConvolutionParameteriv@12 00423400 f   cinder:GLee.obj
 0001:00022430       _GLee_Lazy_glGetSeparableFilter@24 00423430 f   cinder:GLee.obj
 0001:00022470       _GLee_Lazy_glSeparableFilter2D@32 00423470 f   cinder:GLee.obj
 0001:000224b0       _GLee_Lazy_glGetHistogram@20 004234b0 f   cinder:GLee.obj
 0001:000224e0       _GLee_Lazy_glGetHistogramParameterfv@12 004234e0 f   cinder:GLee.obj
 0001:00022510       _GLee_Lazy_glGetHistogramParameteriv@12 00423510 f   cinder:GLee.obj
 0001:00022540       _GLee_Lazy_glGetMinmax@20  00423540 f   cinder:GLee.obj
 0001:00022570       _GLee_Lazy_glGetMinmaxParameterfv@12 00423570 f   cinder:GLee.obj
 0001:000225a0       _GLee_Lazy_glGetMinmaxParameteriv@12 004235a0 f   cinder:GLee.obj
 0001:000225d0       _GLee_Lazy_glHistogram@16  004235d0 f   cinder:GLee.obj
 0001:00022600       _GLee_Lazy_glMinmax@12     00423600 f   cinder:GLee.obj
 0001:00022630       _GLee_Lazy_glResetHistogram@4 00423630 f   cinder:GLee.obj
 0001:00022650       _GLee_Lazy_glResetMinmax@4 00423650 f   cinder:GLee.obj
 0001:00022670       _GLee_Lazy_glTexImage3D@40 00423670 f   cinder:GLee.obj
 0001:000226c0       _GLee_Lazy_glTexSubImage3D@44 004236c0 f   cinder:GLee.obj
 0001:00022710       _GLee_Lazy_glCopyTexSubImage3D@36 00423710 f   cinder:GLee.obj
 0001:00022750       _GLee_Lazy_glActiveTexture@4 00423750 f   cinder:GLee.obj
 0001:00022770       _GLee_Lazy_glClientActiveTexture@4 00423770 f   cinder:GLee.obj
 0001:00022790       _GLee_Lazy_glMultiTexCoord1d@12 00423790 f   cinder:GLee.obj
 0001:000227c0       _GLee_Lazy_glMultiTexCoord1dv@8 004237c0 f   cinder:GLee.obj
 0001:000227f0       _GLee_Lazy_glMultiTexCoord1f@8 004237f0 f   cinder:GLee.obj
 0001:00022820       _GLee_Lazy_glMultiTexCoord1fv@8 00423820 f   cinder:GLee.obj
 0001:00022850       _GLee_Lazy_glMultiTexCoord1i@8 00423850 f   cinder:GLee.obj
 0001:00022880       _GLee_Lazy_glMultiTexCoord1iv@8 00423880 f   cinder:GLee.obj
 0001:000228b0       _GLee_Lazy_glMultiTexCoord1s@8 004238b0 f   cinder:GLee.obj
 0001:000228e0       _GLee_Lazy_glMultiTexCoord1sv@8 004238e0 f   cinder:GLee.obj
 0001:00022910       _GLee_Lazy_glMultiTexCoord2d@20 00423910 f   cinder:GLee.obj
 0001:00022940       _GLee_Lazy_glMultiTexCoord2dv@8 00423940 f   cinder:GLee.obj
 0001:00022970       _GLee_Lazy_glMultiTexCoord2f@12 00423970 f   cinder:GLee.obj
 0001:000229a0       _GLee_Lazy_glMultiTexCoord2fv@8 004239a0 f   cinder:GLee.obj
 0001:000229d0       _GLee_Lazy_glMultiTexCoord2i@12 004239d0 f   cinder:GLee.obj
 0001:00022a00       _GLee_Lazy_glMultiTexCoord2iv@8 00423a00 f   cinder:GLee.obj
 0001:00022a30       _GLee_Lazy_glMultiTexCoord2s@12 00423a30 f   cinder:GLee.obj
 0001:00022a60       _GLee_Lazy_glMultiTexCoord2sv@8 00423a60 f   cinder:GLee.obj
 0001:00022a90       _GLee_Lazy_glMultiTexCoord3d@28 00423a90 f   cinder:GLee.obj
 0001:00022ad0       _GLee_Lazy_glMultiTexCoord3dv@8 00423ad0 f   cinder:GLee.obj
 0001:00022b00       _GLee_Lazy_glMultiTexCoord3f@16 00423b00 f   cinder:GLee.obj
 0001:00022b40       _GLee_Lazy_glMultiTexCoord3fv@8 00423b40 f   cinder:GLee.obj
 0001:00022b70       _GLee_Lazy_glMultiTexCoord3i@16 00423b70 f   cinder:GLee.obj
 0001:00022ba0       _GLee_Lazy_glMultiTexCoord3iv@8 00423ba0 f   cinder:GLee.obj
 0001:00022bd0       _GLee_Lazy_glMultiTexCoord3s@16 00423bd0 f   cinder:GLee.obj
 0001:00022c00       _GLee_Lazy_glMultiTexCoord3sv@8 00423c00 f   cinder:GLee.obj
 0001:00022c30       _GLee_Lazy_glMultiTexCoord4d@36 00423c30 f   cinder:GLee.obj
 0001:00022c80       _GLee_Lazy_glMultiTexCoord4dv@8 00423c80 f   cinder:GLee.obj
 0001:00022cb0       _GLee_Lazy_glMultiTexCoord4f@20 00423cb0 f   cinder:GLee.obj
 0001:00022cf0       _GLee_Lazy_glMultiTexCoord4fv@8 00423cf0 f   cinder:GLee.obj
 0001:00022d20       _GLee_Lazy_glMultiTexCoord4i@20 00423d20 f   cinder:GLee.obj
 0001:00022d50       _GLee_Lazy_glMultiTexCoord4iv@8 00423d50 f   cinder:GLee.obj
 0001:00022d80       _GLee_Lazy_glMultiTexCoord4s@20 00423d80 f   cinder:GLee.obj
 0001:00022dc0       _GLee_Lazy_glMultiTexCoord4sv@8 00423dc0 f   cinder:GLee.obj
 0001:00022df0       _GLee_Lazy_glLoadTransposeMatrixf@4 00423df0 f   cinder:GLee.obj
 0001:00022e10       _GLee_Lazy_glLoadTransposeMatrixd@4 00423e10 f   cinder:GLee.obj
 0001:00022e30       _GLee_Lazy_glMultTransposeMatrixf@4 00423e30 f   cinder:GLee.obj
 0001:00022e50       _GLee_Lazy_glMultTransposeMatrixd@4 00423e50 f   cinder:GLee.obj
 0001:00022e70       _GLee_Lazy_glSampleCoverage@8 00423e70 f   cinder:GLee.obj
 0001:00022ea0       _GLee_Lazy_glCompressedTexImage3D@36 00423ea0 f   cinder:GLee.obj
 0001:00022ee0       _GLee_Lazy_glCompressedTexImage2D@32 00423ee0 f   cinder:GLee.obj
 0001:00022f20       _GLee_Lazy_glCompressedTexImage1D@28 00423f20 f   cinder:GLee.obj
 0001:00022f60       _GLee_Lazy_glCompressedTexSubImage3D@44 00423f60 f   cinder:GLee.obj
 0001:00022fb0       _GLee_Lazy_glCompressedTexSubImage2D@36 00423fb0 f   cinder:GLee.obj
 0001:00022ff0       _GLee_Lazy_glCompressedTexSubImage1D@28 00423ff0 f   cinder:GLee.obj
 0001:00023030       _GLee_Lazy_glGetCompressedTexImage@12 00424030 f   cinder:GLee.obj
 0001:00023060       _GLee_Lazy_glBlendFuncSeparate@16 00424060 f   cinder:GLee.obj
 0001:00023090       _GLee_Lazy_glFogCoordf@4   00424090 f   cinder:GLee.obj
 0001:000230b0       _GLee_Lazy_glFogCoordfv@4  004240b0 f   cinder:GLee.obj
 0001:000230d0       _GLee_Lazy_glFogCoordd@8   004240d0 f   cinder:GLee.obj
 0001:00023100       _GLee_Lazy_glFogCoorddv@4  00424100 f   cinder:GLee.obj
 0001:00023120       _GLee_Lazy_glFogCoordPointer@12 00424120 f   cinder:GLee.obj
 0001:00023150       _GLee_Lazy_glMultiDrawArrays@16 00424150 f   cinder:GLee.obj
 0001:00023180       _GLee_Lazy_glMultiDrawElements@20 00424180 f   cinder:GLee.obj
 0001:000231b0       _GLee_Lazy_glPointParameterf@8 004241b0 f   cinder:GLee.obj
 0001:000231e0       _GLee_Lazy_glPointParameterfv@8 004241e0 f   cinder:GLee.obj
 0001:00023210       _GLee_Lazy_glPointParameteri@8 00424210 f   cinder:GLee.obj
 0001:00023240       _GLee_Lazy_glPointParameteriv@8 00424240 f   cinder:GLee.obj
 0001:00023270       _GLee_Lazy_glSecondaryColor3b@12 00424270 f   cinder:GLee.obj
 0001:000232a0       _GLee_Lazy_glSecondaryColor3bv@4 004242a0 f   cinder:GLee.obj
 0001:000232c0       _GLee_Lazy_glSecondaryColor3d@24 004242c0 f   cinder:GLee.obj
 0001:00023300       _GLee_Lazy_glSecondaryColor3dv@4 00424300 f   cinder:GLee.obj
 0001:00023320       _GLee_Lazy_glSecondaryColor3f@12 00424320 f   cinder:GLee.obj
 0001:00023350       _GLee_Lazy_glSecondaryColor3fv@4 00424350 f   cinder:GLee.obj
 0001:00023370       _GLee_Lazy_glSecondaryColor3i@12 00424370 f   cinder:GLee.obj
 0001:000233a0       _GLee_Lazy_glSecondaryColor3iv@4 004243a0 f   cinder:GLee.obj
 0001:000233c0       _GLee_Lazy_glSecondaryColor3s@12 004243c0 f   cinder:GLee.obj
 0001:000233f0       _GLee_Lazy_glSecondaryColor3sv@4 004243f0 f   cinder:GLee.obj
 0001:00023410       _GLee_Lazy_glSecondaryColor3ub@12 00424410 f   cinder:GLee.obj
 0001:00023440       _GLee_Lazy_glSecondaryColor3ubv@4 00424440 f   cinder:GLee.obj
 0001:00023460       _GLee_Lazy_glSecondaryColor3ui@12 00424460 f   cinder:GLee.obj
 0001:00023490       _GLee_Lazy_glSecondaryColor3uiv@4 00424490 f   cinder:GLee.obj
 0001:000234b0       _GLee_Lazy_glSecondaryColor3us@12 004244b0 f   cinder:GLee.obj
 0001:000234e0       _GLee_Lazy_glSecondaryColor3usv@4 004244e0 f   cinder:GLee.obj
 0001:00023500       _GLee_Lazy_glSecondaryColorPointer@16 00424500 f   cinder:GLee.obj
 0001:00023530       _GLee_Lazy_glWindowPos2d@16 00424530 f   cinder:GLee.obj
 0001:00023560       _GLee_Lazy_glWindowPos2dv@4 00424560 f   cinder:GLee.obj
 0001:00023580       _GLee_Lazy_glWindowPos2f@8 00424580 f   cinder:GLee.obj
 0001:000235b0       _GLee_Lazy_glWindowPos2fv@4 004245b0 f   cinder:GLee.obj
 0001:000235d0       _GLee_Lazy_glWindowPos2i@8 004245d0 f   cinder:GLee.obj
 0001:00023600       _GLee_Lazy_glWindowPos2iv@4 00424600 f   cinder:GLee.obj
 0001:00023620       _GLee_Lazy_glWindowPos2s@8 00424620 f   cinder:GLee.obj
 0001:00023650       _GLee_Lazy_glWindowPos2sv@4 00424650 f   cinder:GLee.obj
 0001:00023670       _GLee_Lazy_glWindowPos3d@24 00424670 f   cinder:GLee.obj
 0001:000236b0       _GLee_Lazy_glWindowPos3dv@4 004246b0 f   cinder:GLee.obj
 0001:000236d0       _GLee_Lazy_glWindowPos3f@12 004246d0 f   cinder:GLee.obj
 0001:00023700       _GLee_Lazy_glWindowPos3fv@4 00424700 f   cinder:GLee.obj
 0001:00023720       _GLee_Lazy_glWindowPos3i@12 00424720 f   cinder:GLee.obj
 0001:00023750       _GLee_Lazy_glWindowPos3iv@4 00424750 f   cinder:GLee.obj
 0001:00023770       _GLee_Lazy_glWindowPos3s@12 00424770 f   cinder:GLee.obj
 0001:000237a0       _GLee_Lazy_glWindowPos3sv@4 004247a0 f   cinder:GLee.obj
 0001:000237c0       _GLee_Lazy_glGenQueries@8  004247c0 f   cinder:GLee.obj
 0001:000237f0       _GLee_Lazy_glDeleteQueries@8 004247f0 f   cinder:GLee.obj
 0001:00023820       _GLee_Lazy_glIsQuery@4     00424820 f   cinder:GLee.obj
 0001:00023850       _GLee_Lazy_glBeginQuery@8  00424850 f   cinder:GLee.obj
 0001:00023880       _GLee_Lazy_glEndQuery@4    00424880 f   cinder:GLee.obj
 0001:000238a0       _GLee_Lazy_glGetQueryiv@12 004248a0 f   cinder:GLee.obj
 0001:000238d0       _GLee_Lazy_glGetQueryObjectiv@12 004248d0 f   cinder:GLee.obj
 0001:00023900       _GLee_Lazy_glGetQueryObjectuiv@12 00424900 f   cinder:GLee.obj
 0001:00023930       _GLee_Lazy_glBindBuffer@8  00424930 f   cinder:GLee.obj
 0001:00023960       _GLee_Lazy_glDeleteBuffers@8 00424960 f   cinder:GLee.obj
 0001:00023990       _GLee_Lazy_glGenBuffers@8  00424990 f   cinder:GLee.obj
 0001:000239c0       _GLee_Lazy_glIsBuffer@4    004249c0 f   cinder:GLee.obj
 0001:000239f0       _GLee_Lazy_glBufferData@16 004249f0 f   cinder:GLee.obj
 0001:00023a20       _GLee_Lazy_glBufferSubData@16 00424a20 f   cinder:GLee.obj
 0001:00023a50       _GLee_Lazy_glGetBufferSubData@16 00424a50 f   cinder:GLee.obj
 0001:00023a80       _GLee_Lazy_glMapBuffer@8   00424a80 f   cinder:GLee.obj
 0001:00023ab0       _GLee_Lazy_glUnmapBuffer@4 00424ab0 f   cinder:GLee.obj
 0001:00023ae0       _GLee_Lazy_glGetBufferParameteriv@12 00424ae0 f   cinder:GLee.obj
 0001:00023b10       _GLee_Lazy_glGetBufferPointerv@12 00424b10 f   cinder:GLee.obj
 0001:00023b40       _GLee_Lazy_glBlendEquationSeparate@8 00424b40 f   cinder:GLee.obj
 0001:00023b70       _GLee_Lazy_glDrawBuffers@8 00424b70 f   cinder:GLee.obj
 0001:00023ba0       _GLee_Lazy_glStencilOpSeparate@16 00424ba0 f   cinder:GLee.obj
 0001:00023bd0       _GLee_Lazy_glStencilFuncSeparate@16 00424bd0 f   cinder:GLee.obj
 0001:00023c00       _GLee_Lazy_glStencilMaskSeparate@8 00424c00 f   cinder:GLee.obj
 0001:00023c30       _GLee_Lazy_glAttachShader@8 00424c30 f   cinder:GLee.obj
 0001:00023c60       _GLee_Lazy_glBindAttribLocation@12 00424c60 f   cinder:GLee.obj
 0001:00023c90       _GLee_Lazy_glCompileShader@4 00424c90 f   cinder:GLee.obj
 0001:00023cb0       _GLee_Lazy_glCreateProgram@0 00424cb0 f   cinder:GLee.obj
 0001:00023cd0       _GLee_Lazy_glCreateShader@4 00424cd0 f   cinder:GLee.obj
 0001:00023d00       _GLee_Lazy_glDeleteProgram@4 00424d00 f   cinder:GLee.obj
 0001:00023d20       _GLee_Lazy_glDeleteShader@4 00424d20 f   cinder:GLee.obj
 0001:00023d40       _GLee_Lazy_glDetachShader@8 00424d40 f   cinder:GLee.obj
 0001:00023d70       _GLee_Lazy_glDisableVertexAttribArray@4 00424d70 f   cinder:GLee.obj
 0001:00023d90       _GLee_Lazy_glEnableVertexAttribArray@4 00424d90 f   cinder:GLee.obj
 0001:00023db0       _GLee_Lazy_glGetActiveAttrib@28 00424db0 f   cinder:GLee.obj
 0001:00023df0       _GLee_Lazy_glGetActiveUniform@28 00424df0 f   cinder:GLee.obj
 0001:00023e30       _GLee_Lazy_glGetAttachedShaders@16 00424e30 f   cinder:GLee.obj
 0001:00023e60       _GLee_Lazy_glGetAttribLocation@8 00424e60 f   cinder:GLee.obj
 0001:00023e90       _GLee_Lazy_glGetProgramiv@12 00424e90 f   cinder:GLee.obj
 0001:00023ec0       _GLee_Lazy_glGetProgramInfoLog@16 00424ec0 f   cinder:GLee.obj
 0001:00023ef0       _GLee_Lazy_glGetShaderiv@12 00424ef0 f   cinder:GLee.obj
 0001:00023f20       _GLee_Lazy_glGetShaderInfoLog@16 00424f20 f   cinder:GLee.obj
 0001:00023f50       _GLee_Lazy_glGetShaderSource@16 00424f50 f   cinder:GLee.obj
 0001:00023f80       _GLee_Lazy_glGetUniformLocation@8 00424f80 f   cinder:GLee.obj
 0001:00023fb0       _GLee_Lazy_glGetUniformfv@12 00424fb0 f   cinder:GLee.obj
 0001:00023fe0       _GLee_Lazy_glGetUniformiv@12 00424fe0 f   cinder:GLee.obj
 0001:00024010       _GLee_Lazy_glGetVertexAttribdv@12 00425010 f   cinder:GLee.obj
 0001:00024040       _GLee_Lazy_glGetVertexAttribfv@12 00425040 f   cinder:GLee.obj
 0001:00024070       _GLee_Lazy_glGetVertexAttribiv@12 00425070 f   cinder:GLee.obj
 0001:000240a0       _GLee_Lazy_glGetVertexAttribPointerv@12 004250a0 f   cinder:GLee.obj
 0001:000240d0       _GLee_Lazy_glIsProgram@4   004250d0 f   cinder:GLee.obj
 0001:00024100       _GLee_Lazy_glIsShader@4    00425100 f   cinder:GLee.obj
 0001:00024130       _GLee_Lazy_glLinkProgram@4 00425130 f   cinder:GLee.obj
 0001:00024150       _GLee_Lazy_glShaderSource@16 00425150 f   cinder:GLee.obj
 0001:00024180       _GLee_Lazy_glUseProgram@4  00425180 f   cinder:GLee.obj
 0001:000241a0       _GLee_Lazy_glUniform1f@8   004251a0 f   cinder:GLee.obj
 0001:000241d0       _GLee_Lazy_glUniform2f@12  004251d0 f   cinder:GLee.obj
 0001:00024200       _GLee_Lazy_glUniform3f@16  00425200 f   cinder:GLee.obj
 0001:00024240       _GLee_Lazy_glUniform4f@20  00425240 f   cinder:GLee.obj
 0001:00024280       _GLee_Lazy_glUniform1i@8   00425280 f   cinder:GLee.obj
 0001:000242b0       _GLee_Lazy_glUniform2i@12  004252b0 f   cinder:GLee.obj
 0001:000242e0       _GLee_Lazy_glUniform3i@16  004252e0 f   cinder:GLee.obj
 0001:00024310       _GLee_Lazy_glUniform4i@20  00425310 f   cinder:GLee.obj
 0001:00024340       _GLee_Lazy_glUniform1fv@12 00425340 f   cinder:GLee.obj
 0001:00024370       _GLee_Lazy_glUniform2fv@12 00425370 f   cinder:GLee.obj
 0001:000243a0       _GLee_Lazy_glUniform3fv@12 004253a0 f   cinder:GLee.obj
 0001:000243d0       _GLee_Lazy_glUniform4fv@12 004253d0 f   cinder:GLee.obj
 0001:00024400       _GLee_Lazy_glUniform1iv@12 00425400 f   cinder:GLee.obj
 0001:00024430       _GLee_Lazy_glUniform2iv@12 00425430 f   cinder:GLee.obj
 0001:00024460       _GLee_Lazy_glUniform3iv@12 00425460 f   cinder:GLee.obj
 0001:00024490       _GLee_Lazy_glUniform4iv@12 00425490 f   cinder:GLee.obj
 0001:000244c0       _GLee_Lazy_glUniformMatrix2fv@16 004254c0 f   cinder:GLee.obj
 0001:000244f0       _GLee_Lazy_glUniformMatrix3fv@16 004254f0 f   cinder:GLee.obj
 0001:00024520       _GLee_Lazy_glUniformMatrix4fv@16 00425520 f   cinder:GLee.obj
 0001:00024550       _GLee_Lazy_glValidateProgram@4 00425550 f   cinder:GLee.obj
 0001:00024570       _GLee_Lazy_glVertexAttrib1d@12 00425570 f   cinder:GLee.obj
 0001:000245a0       _GLee_Lazy_glVertexAttrib1dv@8 004255a0 f   cinder:GLee.obj
 0001:000245d0       _GLee_Lazy_glVertexAttrib1f@8 004255d0 f   cinder:GLee.obj
 0001:00024600       _GLee_Lazy_glVertexAttrib1fv@8 00425600 f   cinder:GLee.obj
 0001:00024630       _GLee_Lazy_glVertexAttrib1s@8 00425630 f   cinder:GLee.obj
 0001:00024660       _GLee_Lazy_glVertexAttrib1sv@8 00425660 f   cinder:GLee.obj
 0001:00024690       _GLee_Lazy_glVertexAttrib2d@20 00425690 f   cinder:GLee.obj
 0001:000246c0       _GLee_Lazy_glVertexAttrib2dv@8 004256c0 f   cinder:GLee.obj
 0001:000246f0       _GLee_Lazy_glVertexAttrib2f@12 004256f0 f   cinder:GLee.obj
 0001:00024720       _GLee_Lazy_glVertexAttrib2fv@8 00425720 f   cinder:GLee.obj
 0001:00024750       _GLee_Lazy_glVertexAttrib2s@12 00425750 f   cinder:GLee.obj
 0001:00024780       _GLee_Lazy_glVertexAttrib2sv@8 00425780 f   cinder:GLee.obj
 0001:000247b0       _GLee_Lazy_glVertexAttrib3d@28 004257b0 f   cinder:GLee.obj
 0001:000247f0       _GLee_Lazy_glVertexAttrib3dv@8 004257f0 f   cinder:GLee.obj
 0001:00024820       _GLee_Lazy_glVertexAttrib3f@16 00425820 f   cinder:GLee.obj
 0001:00024860       _GLee_Lazy_glVertexAttrib3fv@8 00425860 f   cinder:GLee.obj
 0001:00024890       _GLee_Lazy_glVertexAttrib3s@16 00425890 f   cinder:GLee.obj
 0001:000248c0       _GLee_Lazy_glVertexAttrib3sv@8 004258c0 f   cinder:GLee.obj
 0001:000248f0       _GLee_Lazy_glVertexAttrib4Nbv@8 004258f0 f   cinder:GLee.obj
 0001:00024920       _GLee_Lazy_glVertexAttrib4Niv@8 00425920 f   cinder:GLee.obj
 0001:00024950       _GLee_Lazy_glVertexAttrib4Nsv@8 00425950 f   cinder:GLee.obj
 0001:00024980       _GLee_Lazy_glVertexAttrib4Nub@20 00425980 f   cinder:GLee.obj
 0001:000249c0       _GLee_Lazy_glVertexAttrib4Nubv@8 004259c0 f   cinder:GLee.obj
 0001:000249f0       _GLee_Lazy_glVertexAttrib4Nuiv@8 004259f0 f   cinder:GLee.obj
 0001:00024a20       _GLee_Lazy_glVertexAttrib4Nusv@8 00425a20 f   cinder:GLee.obj
 0001:00024a50       _GLee_Lazy_glVertexAttrib4bv@8 00425a50 f   cinder:GLee.obj
 0001:00024a80       _GLee_Lazy_glVertexAttrib4d@36 00425a80 f   cinder:GLee.obj
 0001:00024ad0       _GLee_Lazy_glVertexAttrib4dv@8 00425ad0 f   cinder:GLee.obj
 0001:00024b00       _GLee_Lazy_glVertexAttrib4f@20 00425b00 f   cinder:GLee.obj
 0001:00024b40       _GLee_Lazy_glVertexAttrib4fv@8 00425b40 f   cinder:GLee.obj
 0001:00024b70       _GLee_Lazy_glVertexAttrib4iv@8 00425b70 f   cinder:GLee.obj
 0001:00024ba0       _GLee_Lazy_glVertexAttrib4s@20 00425ba0 f   cinder:GLee.obj
 0001:00024be0       _GLee_Lazy_glVertexAttrib4sv@8 00425be0 f   cinder:GLee.obj
 0001:00024c10       _GLee_Lazy_glVertexAttrib4ubv@8 00425c10 f   cinder:GLee.obj
 0001:00024c40       _GLee_Lazy_glVertexAttrib4uiv@8 00425c40 f   cinder:GLee.obj
 0001:00024c70       _GLee_Lazy_glVertexAttrib4usv@8 00425c70 f   cinder:GLee.obj
 0001:00024ca0       _GLee_Lazy_glVertexAttribPointer@24 00425ca0 f   cinder:GLee.obj
 0001:00024ce0       _GLee_Lazy_glUniformMatrix2x3fv@16 00425ce0 f   cinder:GLee.obj
 0001:00024d10       _GLee_Lazy_glUniformMatrix3x2fv@16 00425d10 f   cinder:GLee.obj
 0001:00024d40       _GLee_Lazy_glUniformMatrix2x4fv@16 00425d40 f   cinder:GLee.obj
 0001:00024d70       _GLee_Lazy_glUniformMatrix4x2fv@16 00425d70 f   cinder:GLee.obj
 0001:00024da0       _GLee_Lazy_glUniformMatrix3x4fv@16 00425da0 f   cinder:GLee.obj
 0001:00024dd0       _GLee_Lazy_glUniformMatrix4x3fv@16 00425dd0 f   cinder:GLee.obj
 0001:00024e00       _GLee_Lazy_glColorMaski@20 00425e00 f   cinder:GLee.obj
 0001:00024e40       _GLee_Lazy_glGetBooleani_v@12 00425e40 f   cinder:GLee.obj
 0001:00024e70       _GLee_Lazy_glGetIntegeri_v@12 00425e70 f   cinder:GLee.obj
 0001:00024ea0       _GLee_Lazy_glEnablei@8     00425ea0 f   cinder:GLee.obj
 0001:00024ed0       _GLee_Lazy_glDisablei@8    00425ed0 f   cinder:GLee.obj
 0001:00024f00       _GLee_Lazy_glIsEnabledi@8  00425f00 f   cinder:GLee.obj
 0001:00024f30       _GLee_Lazy_glBeginTransformFeedback@4 00425f30 f   cinder:GLee.obj
 0001:00024f50       _GLee_Lazy_glEndTransformFeedback@0 00425f50 f   cinder:GLee.obj
 0001:00024f70       _GLee_Lazy_glBindBufferRange@20 00425f70 f   cinder:GLee.obj
 0001:00024fa0       _GLee_Lazy_glBindBufferBase@12 00425fa0 f   cinder:GLee.obj
 0001:00024fd0       _GLee_Lazy_glTransformFeedbackVaryings@16 00425fd0 f   cinder:GLee.obj
 0001:00025000       _GLee_Lazy_glGetTransformFeedbackVarying@12 00426000 f   cinder:GLee.obj
 0001:00025030       _GLee_Lazy_glClampColor@8  00426030 f   cinder:GLee.obj
 0001:00025060       _GLee_Lazy_glBeginConditionalRender@8 00426060 f   cinder:GLee.obj
 0001:00025090       _GLee_Lazy_glEndConditionalRender@0 00426090 f   cinder:GLee.obj
 0001:000250b0       _GLee_Lazy_glVertexAttribI1i@8 004260b0 f   cinder:GLee.obj
 0001:000250e0       _GLee_Lazy_glVertexAttribI2i@12 004260e0 f   cinder:GLee.obj
 0001:00025110       _GLee_Lazy_glVertexAttribI3i@16 00426110 f   cinder:GLee.obj
 0001:00025140       _GLee_Lazy_glVertexAttribI4i@20 00426140 f   cinder:GLee.obj
 0001:00025170       _GLee_Lazy_glVertexAttribI1ui@8 00426170 f   cinder:GLee.obj
 0001:000251a0       _GLee_Lazy_glVertexAttribI2ui@12 004261a0 f   cinder:GLee.obj
 0001:000251d0       _GLee_Lazy_glVertexAttribI3ui@16 004261d0 f   cinder:GLee.obj
 0001:00025200       _GLee_Lazy_glVertexAttribI4ui@20 00426200 f   cinder:GLee.obj
 0001:00025230       _GLee_Lazy_glVertexAttribI1iv@8 00426230 f   cinder:GLee.obj
 0001:00025260       _GLee_Lazy_glVertexAttribI2iv@8 00426260 f   cinder:GLee.obj
 0001:00025290       _GLee_Lazy_glVertexAttribI3iv@8 00426290 f   cinder:GLee.obj
 0001:000252c0       _GLee_Lazy_glVertexAttribI4iv@8 004262c0 f   cinder:GLee.obj
 0001:000252f0       _GLee_Lazy_glVertexAttribI1uiv@8 004262f0 f   cinder:GLee.obj
 0001:00025320       _GLee_Lazy_glVertexAttribI2uiv@8 00426320 f   cinder:GLee.obj
 0001:00025350       _GLee_Lazy_glVertexAttribI3uiv@8 00426350 f   cinder:GLee.obj
 0001:00025380       _GLee_Lazy_glVertexAttribI4uiv@8 00426380 f   cinder:GLee.obj
 0001:000253b0       _GLee_Lazy_glVertexAttribI4bv@8 004263b0 f   cinder:GLee.obj
 0001:000253e0       _GLee_Lazy_glVertexAttribI4sv@8 004263e0 f   cinder:GLee.obj
 0001:00025410       _GLee_Lazy_glVertexAttribI4ubv@8 00426410 f   cinder:GLee.obj
 0001:00025440       _GLee_Lazy_glVertexAttribI4usv@8 00426440 f   cinder:GLee.obj
 0001:00025470       _GLee_Lazy_glVertexAttribIPointer@20 00426470 f   cinder:GLee.obj
 0001:000254a0       _GLee_Lazy_glGetVertexAttribIiv@12 004264a0 f   cinder:GLee.obj
 0001:000254d0       _GLee_Lazy_glGetVertexAttribIuiv@12 004264d0 f   cinder:GLee.obj
 0001:00025500       _GLee_Lazy_glGetUniformuiv@12 00426500 f   cinder:GLee.obj
 0001:00025530       _GLee_Lazy_glBindFragDataLocation@12 00426530 f   cinder:GLee.obj
 0001:00025560       _GLee_Lazy_glGetFragDataLocation@8 00426560 f   cinder:GLee.obj
 0001:00025590       _GLee_Lazy_glUniform1ui@8  00426590 f   cinder:GLee.obj
 0001:000255c0       _GLee_Lazy_glUniform2ui@12 004265c0 f   cinder:GLee.obj
 0001:000255f0       _GLee_Lazy_glUniform3ui@16 004265f0 f   cinder:GLee.obj
 0001:00025620       _GLee_Lazy_glUniform4ui@20 00426620 f   cinder:GLee.obj
 0001:00025650       _GLee_Lazy_glUniform1uiv@12 00426650 f   cinder:GLee.obj
 0001:00025680       _GLee_Lazy_glUniform2uiv@12 00426680 f   cinder:GLee.obj
 0001:000256b0       _GLee_Lazy_glUniform3uiv@12 004266b0 f   cinder:GLee.obj
 0001:000256e0       _GLee_Lazy_glUniform4uiv@12 004266e0 f   cinder:GLee.obj
 0001:00025710       _GLee_Lazy_glTexParameterIiv@12 00426710 f   cinder:GLee.obj
 0001:00025740       _GLee_Lazy_glTexParameterIuiv@12 00426740 f   cinder:GLee.obj
 0001:00025770       _GLee_Lazy_glGetTexParameterIiv@12 00426770 f   cinder:GLee.obj
 0001:000257a0       _GLee_Lazy_glGetTexParameterIuiv@12 004267a0 f   cinder:GLee.obj
 0001:000257d0       _GLee_Lazy_glClearBufferiv@12 004267d0 f   cinder:GLee.obj
 0001:00025800       _GLee_Lazy_glClearBufferuiv@12 00426800 f   cinder:GLee.obj
 0001:00025830       _GLee_Lazy_glClearBufferfv@12 00426830 f   cinder:GLee.obj
 0001:00025860       _GLee_Lazy_glClearBufferfi@16 00426860 f   cinder:GLee.obj
 0001:00025890       _GLee_Lazy_glGetStringi@8  00426890 f   cinder:GLee.obj
 0001:000258c0       _GLee_Lazy_glActiveTextureARB@4 004268c0 f   cinder:GLee.obj
 0001:000258e0       _GLee_Lazy_glClientActiveTextureARB@4 004268e0 f   cinder:GLee.obj
 0001:00025900       _GLee_Lazy_glMultiTexCoord1dARB@12 00426900 f   cinder:GLee.obj
 0001:00025930       _GLee_Lazy_glMultiTexCoord1dvARB@8 00426930 f   cinder:GLee.obj
 0001:00025960       _GLee_Lazy_glMultiTexCoord1fARB@8 00426960 f   cinder:GLee.obj
 0001:00025990       _GLee_Lazy_glMultiTexCoord1fvARB@8 00426990 f   cinder:GLee.obj
 0001:000259c0       _GLee_Lazy_glMultiTexCoord1iARB@8 004269c0 f   cinder:GLee.obj
 0001:000259f0       _GLee_Lazy_glMultiTexCoord1ivARB@8 004269f0 f   cinder:GLee.obj
 0001:00025a20       _GLee_Lazy_glMultiTexCoord1sARB@8 00426a20 f   cinder:GLee.obj
 0001:00025a50       _GLee_Lazy_glMultiTexCoord1svARB@8 00426a50 f   cinder:GLee.obj
 0001:00025a80       _GLee_Lazy_glMultiTexCoord2dARB@20 00426a80 f   cinder:GLee.obj
 0001:00025ab0       _GLee_Lazy_glMultiTexCoord2dvARB@8 00426ab0 f   cinder:GLee.obj
 0001:00025ae0       _GLee_Lazy_glMultiTexCoord2fARB@12 00426ae0 f   cinder:GLee.obj
 0001:00025b10       _GLee_Lazy_glMultiTexCoord2fvARB@8 00426b10 f   cinder:GLee.obj
 0001:00025b40       _GLee_Lazy_glMultiTexCoord2iARB@12 00426b40 f   cinder:GLee.obj
 0001:00025b70       _GLee_Lazy_glMultiTexCoord2ivARB@8 00426b70 f   cinder:GLee.obj
 0001:00025ba0       _GLee_Lazy_glMultiTexCoord2sARB@12 00426ba0 f   cinder:GLee.obj
 0001:00025bd0       _GLee_Lazy_glMultiTexCoord2svARB@8 00426bd0 f   cinder:GLee.obj
 0001:00025c00       _GLee_Lazy_glMultiTexCoord3dARB@28 00426c00 f   cinder:GLee.obj
 0001:00025c40       _GLee_Lazy_glMultiTexCoord3dvARB@8 00426c40 f   cinder:GLee.obj
 0001:00025c70       _GLee_Lazy_glMultiTexCoord3fARB@16 00426c70 f   cinder:GLee.obj
 0001:00025cb0       _GLee_Lazy_glMultiTexCoord3fvARB@8 00426cb0 f   cinder:GLee.obj
 0001:00025ce0       _GLee_Lazy_glMultiTexCoord3iARB@16 00426ce0 f   cinder:GLee.obj
 0001:00025d10       _GLee_Lazy_glMultiTexCoord3ivARB@8 00426d10 f   cinder:GLee.obj
 0001:00025d40       _GLee_Lazy_glMultiTexCoord3sARB@16 00426d40 f   cinder:GLee.obj
 0001:00025d70       _GLee_Lazy_glMultiTexCoord3svARB@8 00426d70 f   cinder:GLee.obj
 0001:00025da0       _GLee_Lazy_glMultiTexCoord4dARB@36 00426da0 f   cinder:GLee.obj
 0001:00025df0       _GLee_Lazy_glMultiTexCoord4dvARB@8 00426df0 f   cinder:GLee.obj
 0001:00025e20       _GLee_Lazy_glMultiTexCoord4fARB@20 00426e20 f   cinder:GLee.obj
 0001:00025e60       _GLee_Lazy_glMultiTexCoord4fvARB@8 00426e60 f   cinder:GLee.obj
 0001:00025e90       _GLee_Lazy_glMultiTexCoord4iARB@20 00426e90 f   cinder:GLee.obj
 0001:00025ec0       _GLee_Lazy_glMultiTexCoord4ivARB@8 00426ec0 f   cinder:GLee.obj
 0001:00025ef0       _GLee_Lazy_glMultiTexCoord4sARB@20 00426ef0 f   cinder:GLee.obj
 0001:00025f30       _GLee_Lazy_glMultiTexCoord4svARB@8 00426f30 f   cinder:GLee.obj
 0001:00025f60       _GLee_Lazy_glLoadTransposeMatrixfARB@4 00426f60 f   cinder:GLee.obj
 0001:00025f80       _GLee_Lazy_glLoadTransposeMatrixdARB@4 00426f80 f   cinder:GLee.obj
 0001:00025fa0       _GLee_Lazy_glMultTransposeMatrixfARB@4 00426fa0 f   cinder:GLee.obj
 0001:00025fc0       _GLee_Lazy_glMultTransposeMatrixdARB@4 00426fc0 f   cinder:GLee.obj
 0001:00025fe0       _GLee_Lazy_glSampleCoverageARB@8 00426fe0 f   cinder:GLee.obj
 0001:00026010       _GLee_Lazy_glCompressedTexImage3DARB@36 00427010 f   cinder:GLee.obj
 0001:00026050       _GLee_Lazy_glCompressedTexImage2DARB@32 00427050 f   cinder:GLee.obj
 0001:00026090       _GLee_Lazy_glCompressedTexImage1DARB@28 00427090 f   cinder:GLee.obj
 0001:000260d0       _GLee_Lazy_glCompressedTexSubImage3DARB@44 004270d0 f   cinder:GLee.obj
 0001:00026120       _GLee_Lazy_glCompressedTexSubImage2DARB@36 00427120 f   cinder:GLee.obj
 0001:00026160       _GLee_Lazy_glCompressedTexSubImage1DARB@28 00427160 f   cinder:GLee.obj
 0001:000261a0       _GLee_Lazy_glGetCompressedTexImageARB@12 004271a0 f   cinder:GLee.obj
 0001:000261d0       _GLee_Lazy_glPointParameterfARB@8 004271d0 f   cinder:GLee.obj
 0001:00026200       _GLee_Lazy_glPointParameterfvARB@8 00427200 f   cinder:GLee.obj
 0001:00026230       _GLee_Lazy_glWeightbvARB@8 00427230 f   cinder:GLee.obj
 0001:00026260       _GLee_Lazy_glWeightsvARB@8 00427260 f   cinder:GLee.obj
 0001:00026290       _GLee_Lazy_glWeightivARB@8 00427290 f   cinder:GLee.obj
 0001:000262c0       _GLee_Lazy_glWeightfvARB@8 004272c0 f   cinder:GLee.obj
 0001:000262f0       _GLee_Lazy_glWeightdvARB@8 004272f0 f   cinder:GLee.obj
 0001:00026320       _GLee_Lazy_glWeightubvARB@8 00427320 f   cinder:GLee.obj
 0001:00026350       _GLee_Lazy_glWeightusvARB@8 00427350 f   cinder:GLee.obj
 0001:00026380       _GLee_Lazy_glWeightuivARB@8 00427380 f   cinder:GLee.obj
 0001:000263b0       _GLee_Lazy_glWeightPointerARB@16 004273b0 f   cinder:GLee.obj
 0001:000263e0       _GLee_Lazy_glVertexBlendARB@4 004273e0 f   cinder:GLee.obj
 0001:00026400       _GLee_Lazy_glCurrentPaletteMatrixARB@4 00427400 f   cinder:GLee.obj
 0001:00026420       _GLee_Lazy_glMatrixIndexubvARB@8 00427420 f   cinder:GLee.obj
 0001:00026450       _GLee_Lazy_glMatrixIndexusvARB@8 00427450 f   cinder:GLee.obj
 0001:00026480       _GLee_Lazy_glMatrixIndexuivARB@8 00427480 f   cinder:GLee.obj
 0001:000264b0       _GLee_Lazy_glMatrixIndexPointerARB@16 004274b0 f   cinder:GLee.obj
 0001:000264e0       _GLee_Lazy_glWindowPos2dARB@16 004274e0 f   cinder:GLee.obj
 0001:00026510       _GLee_Lazy_glWindowPos2dvARB@4 00427510 f   cinder:GLee.obj
 0001:00026530       _GLee_Lazy_glWindowPos2fARB@8 00427530 f   cinder:GLee.obj
 0001:00026560       _GLee_Lazy_glWindowPos2fvARB@4 00427560 f   cinder:GLee.obj
 0001:00026580       _GLee_Lazy_glWindowPos2iARB@8 00427580 f   cinder:GLee.obj
 0001:000265b0       _GLee_Lazy_glWindowPos2ivARB@4 004275b0 f   cinder:GLee.obj
 0001:000265d0       _GLee_Lazy_glWindowPos2sARB@8 004275d0 f   cinder:GLee.obj
 0001:00026600       _GLee_Lazy_glWindowPos2svARB@4 00427600 f   cinder:GLee.obj
 0001:00026620       _GLee_Lazy_glWindowPos3dARB@24 00427620 f   cinder:GLee.obj
 0001:00026660       _GLee_Lazy_glWindowPos3dvARB@4 00427660 f   cinder:GLee.obj
 0001:00026680       _GLee_Lazy_glWindowPos3fARB@12 00427680 f   cinder:GLee.obj
 0001:000266b0       _GLee_Lazy_glWindowPos3fvARB@4 004276b0 f   cinder:GLee.obj
 0001:000266d0       _GLee_Lazy_glWindowPos3iARB@12 004276d0 f   cinder:GLee.obj
 0001:00026700       _GLee_Lazy_glWindowPos3ivARB@4 00427700 f   cinder:GLee.obj
 0001:00026720       _GLee_Lazy_glWindowPos3sARB@12 00427720 f   cinder:GLee.obj
 0001:00026750       _GLee_Lazy_glWindowPos3svARB@4 00427750 f   cinder:GLee.obj
 0001:00026770       _GLee_Lazy_glVertexAttrib1dARB@12 00427770 f   cinder:GLee.obj
 0001:000267a0       _GLee_Lazy_glVertexAttrib1dvARB@8 004277a0 f   cinder:GLee.obj
 0001:000267d0       _GLee_Lazy_glVertexAttrib1fARB@8 004277d0 f   cinder:GLee.obj
 0001:00026800       _GLee_Lazy_glVertexAttrib1fvARB@8 00427800 f   cinder:GLee.obj
 0001:00026830       _GLee_Lazy_glVertexAttrib1sARB@8 00427830 f   cinder:GLee.obj
 0001:00026860       _GLee_Lazy_glVertexAttrib1svARB@8 00427860 f   cinder:GLee.obj
 0001:00026890       _GLee_Lazy_glVertexAttrib2dARB@20 00427890 f   cinder:GLee.obj
 0001:000268c0       _GLee_Lazy_glVertexAttrib2dvARB@8 004278c0 f   cinder:GLee.obj
 0001:000268f0       _GLee_Lazy_glVertexAttrib2fARB@12 004278f0 f   cinder:GLee.obj
 0001:00026920       _GLee_Lazy_glVertexAttrib2fvARB@8 00427920 f   cinder:GLee.obj
 0001:00026950       _GLee_Lazy_glVertexAttrib2sARB@12 00427950 f   cinder:GLee.obj
 0001:00026980       _GLee_Lazy_glVertexAttrib2svARB@8 00427980 f   cinder:GLee.obj
 0001:000269b0       _GLee_Lazy_glVertexAttrib3dARB@28 004279b0 f   cinder:GLee.obj
 0001:000269f0       _GLee_Lazy_glVertexAttrib3dvARB@8 004279f0 f   cinder:GLee.obj
 0001:00026a20       _GLee_Lazy_glVertexAttrib3fARB@16 00427a20 f   cinder:GLee.obj
 0001:00026a60       _GLee_Lazy_glVertexAttrib3fvARB@8 00427a60 f   cinder:GLee.obj
 0001:00026a90       _GLee_Lazy_glVertexAttrib3sARB@16 00427a90 f   cinder:GLee.obj
 0001:00026ac0       _GLee_Lazy_glVertexAttrib3svARB@8 00427ac0 f   cinder:GLee.obj
 0001:00026af0       _GLee_Lazy_glVertexAttrib4NbvARB@8 00427af0 f   cinder:GLee.obj
 0001:00026b20       _GLee_Lazy_glVertexAttrib4NivARB@8 00427b20 f   cinder:GLee.obj
 0001:00026b50       _GLee_Lazy_glVertexAttrib4NsvARB@8 00427b50 f   cinder:GLee.obj
 0001:00026b80       _GLee_Lazy_glVertexAttrib4NubARB@20 00427b80 f   cinder:GLee.obj
 0001:00026bc0       _GLee_Lazy_glVertexAttrib4NubvARB@8 00427bc0 f   cinder:GLee.obj
 0001:00026bf0       _GLee_Lazy_glVertexAttrib4NuivARB@8 00427bf0 f   cinder:GLee.obj
 0001:00026c20       _GLee_Lazy_glVertexAttrib4NusvARB@8 00427c20 f   cinder:GLee.obj
 0001:00026c50       _GLee_Lazy_glVertexAttrib4bvARB@8 00427c50 f   cinder:GLee.obj
 0001:00026c80       _GLee_Lazy_glVertexAttrib4dARB@36 00427c80 f   cinder:GLee.obj
 0001:00026cd0       _GLee_Lazy_glVertexAttrib4dvARB@8 00427cd0 f   cinder:GLee.obj
 0001:00026d00       _GLee_Lazy_glVertexAttrib4fARB@20 00427d00 f   cinder:GLee.obj
 0001:00026d40       _GLee_Lazy_glVertexAttrib4fvARB@8 00427d40 f   cinder:GLee.obj
 0001:00026d70       _GLee_Lazy_glVertexAttrib4ivARB@8 00427d70 f   cinder:GLee.obj
 0001:00026da0       _GLee_Lazy_glVertexAttrib4sARB@20 00427da0 f   cinder:GLee.obj
 0001:00026de0       _GLee_Lazy_glVertexAttrib4svARB@8 00427de0 f   cinder:GLee.obj
 0001:00026e10       _GLee_Lazy_glVertexAttrib4ubvARB@8 00427e10 f   cinder:GLee.obj
 0001:00026e40       _GLee_Lazy_glVertexAttrib4uivARB@8 00427e40 f   cinder:GLee.obj
 0001:00026e70       _GLee_Lazy_glVertexAttrib4usvARB@8 00427e70 f   cinder:GLee.obj
 0001:00026ea0       _GLee_Lazy_glVertexAttribPointerARB@24 00427ea0 f   cinder:GLee.obj
 0001:00026ee0       _GLee_Lazy_glEnableVertexAttribArrayARB@4 00427ee0 f   cinder:GLee.obj
 0001:00026f00       _GLee_Lazy_glDisableVertexAttribArrayARB@4 00427f00 f   cinder:GLee.obj
 0001:00026f20       _GLee_Lazy_glProgramStringARB@16 00427f20 f   cinder:GLee.obj
 0001:00026f50       _GLee_Lazy_glBindProgramARB@8 00427f50 f   cinder:GLee.obj
 0001:00026f80       _GLee_Lazy_glDeleteProgramsARB@8 00427f80 f   cinder:GLee.obj
 0001:00026fb0       _GLee_Lazy_glGenProgramsARB@8 00427fb0 f   cinder:GLee.obj
 0001:00026fe0       _GLee_Lazy_glProgramEnvParameter4dARB@40 00427fe0 f   cinder:GLee.obj
 0001:00027030       _GLee_Lazy_glProgramEnvParameter4dvARB@12 00428030 f   cinder:GLee.obj
 0001:00027060       _GLee_Lazy_glProgramEnvParameter4fARB@24 00428060 f   cinder:GLee.obj
 0001:000270a0       _GLee_Lazy_glProgramEnvParameter4fvARB@12 004280a0 f   cinder:GLee.obj
 0001:000270d0       _GLee_Lazy_glProgramLocalParameter4dARB@40 004280d0 f   cinder:GLee.obj
 0001:00027120       _GLee_Lazy_glProgramLocalParameter4dvARB@12 00428120 f   cinder:GLee.obj
 0001:00027150       _GLee_Lazy_glProgramLocalParameter4fARB@24 00428150 f   cinder:GLee.obj
 0001:00027190       _GLee_Lazy_glProgramLocalParameter4fvARB@12 00428190 f   cinder:GLee.obj
 0001:000271c0       _GLee_Lazy_glGetProgramEnvParameterdvARB@12 004281c0 f   cinder:GLee.obj
 0001:000271f0       _GLee_Lazy_glGetProgramEnvParameterfvARB@12 004281f0 f   cinder:GLee.obj
 0001:00027220       _GLee_Lazy_glGetProgramLocalParameterdvARB@12 00428220 f   cinder:GLee.obj
 0001:00027250       _GLee_Lazy_glGetProgramLocalParameterfvARB@12 00428250 f   cinder:GLee.obj
 0001:00027280       _GLee_Lazy_glGetProgramivARB@12 00428280 f   cinder:GLee.obj
 0001:000272b0       _GLee_Lazy_glGetProgramStringARB@12 004282b0 f   cinder:GLee.obj
 0001:000272e0       _GLee_Lazy_glGetVertexAttribdvARB@12 004282e0 f   cinder:GLee.obj
 0001:00027310       _GLee_Lazy_glGetVertexAttribfvARB@12 00428310 f   cinder:GLee.obj
 0001:00027340       _GLee_Lazy_glGetVertexAttribivARB@12 00428340 f   cinder:GLee.obj
 0001:00027370       _GLee_Lazy_glGetVertexAttribPointervARB@12 00428370 f   cinder:GLee.obj
 0001:000273a0       _GLee_Lazy_glIsProgramARB@4 004283a0 f   cinder:GLee.obj
 0001:000273d0       _GLee_Lazy_glBindBufferARB@8 004283d0 f   cinder:GLee.obj
 0001:00027400       _GLee_Lazy_glDeleteBuffersARB@8 00428400 f   cinder:GLee.obj
 0001:00027430       _GLee_Lazy_glGenBuffersARB@8 00428430 f   cinder:GLee.obj
 0001:00027460       _GLee_Lazy_glIsBufferARB@4 00428460 f   cinder:GLee.obj
 0001:00027490       _GLee_Lazy_glBufferDataARB@16 00428490 f   cinder:GLee.obj
 0001:000274c0       _GLee_Lazy_glBufferSubDataARB@16 004284c0 f   cinder:GLee.obj
 0001:000274f0       _GLee_Lazy_glGetBufferSubDataARB@16 004284f0 f   cinder:GLee.obj
 0001:00027520       _GLee_Lazy_glMapBufferARB@8 00428520 f   cinder:GLee.obj
 0001:00027550       _GLee_Lazy_glUnmapBufferARB@4 00428550 f   cinder:GLee.obj
 0001:00027580       _GLee_Lazy_glGetBufferParameterivARB@12 00428580 f   cinder:GLee.obj
 0001:000275b0       _GLee_Lazy_glGetBufferPointervARB@12 004285b0 f   cinder:GLee.obj
 0001:000275e0       _GLee_Lazy_glGenQueriesARB@8 004285e0 f   cinder:GLee.obj
 0001:00027610       _GLee_Lazy_glDeleteQueriesARB@8 00428610 f   cinder:GLee.obj
 0001:00027640       _GLee_Lazy_glIsQueryARB@4  00428640 f   cinder:GLee.obj
 0001:00027670       _GLee_Lazy_glBeginQueryARB@8 00428670 f   cinder:GLee.obj
 0001:000276a0       _GLee_Lazy_glEndQueryARB@4 004286a0 f   cinder:GLee.obj
 0001:000276c0       _GLee_Lazy_glGetQueryivARB@12 004286c0 f   cinder:GLee.obj
 0001:000276f0       _GLee_Lazy_glGetQueryObjectivARB@12 004286f0 f   cinder:GLee.obj
 0001:00027720       _GLee_Lazy_glGetQueryObjectuivARB@12 00428720 f   cinder:GLee.obj
 0001:00027750       _GLee_Lazy_glDeleteObjectARB@4 00428750 f   cinder:GLee.obj
 0001:00027770       _GLee_Lazy_glGetHandleARB@4 00428770 f   cinder:GLee.obj
 0001:000277a0       _GLee_Lazy_glDetachObjectARB@8 004287a0 f   cinder:GLee.obj
 0001:000277d0       _GLee_Lazy_glCreateShaderObjectARB@4 004287d0 f   cinder:GLee.obj
 0001:00027800       _GLee_Lazy_glShaderSourceARB@16 00428800 f   cinder:GLee.obj
 0001:00027830       _GLee_Lazy_glCompileShaderARB@4 00428830 f   cinder:GLee.obj
 0001:00027850       _GLee_Lazy_glCreateProgramObjectARB@0 00428850 f   cinder:GLee.obj
 0001:00027870       _GLee_Lazy_glAttachObjectARB@8 00428870 f   cinder:GLee.obj
 0001:000278a0       _GLee_Lazy_glLinkProgramARB@4 004288a0 f   cinder:GLee.obj
 0001:000278c0       _GLee_Lazy_glUseProgramObjectARB@4 004288c0 f   cinder:GLee.obj
 0001:000278e0       _GLee_Lazy_glValidateProgramARB@4 004288e0 f   cinder:GLee.obj
 0001:00027900       _GLee_Lazy_glUniform1fARB@8 00428900 f   cinder:GLee.obj
 0001:00027930       _GLee_Lazy_glUniform2fARB@12 00428930 f   cinder:GLee.obj
 0001:00027960       _GLee_Lazy_glUniform3fARB@16 00428960 f   cinder:GLee.obj
 0001:000279a0       _GLee_Lazy_glUniform4fARB@20 004289a0 f   cinder:GLee.obj
 0001:000279e0       _GLee_Lazy_glUniform1iARB@8 004289e0 f   cinder:GLee.obj
 0001:00027a10       _GLee_Lazy_glUniform2iARB@12 00428a10 f   cinder:GLee.obj
 0001:00027a40       _GLee_Lazy_glUniform3iARB@16 00428a40 f   cinder:GLee.obj
 0001:00027a70       _GLee_Lazy_glUniform4iARB@20 00428a70 f   cinder:GLee.obj
 0001:00027aa0       _GLee_Lazy_glUniform1fvARB@12 00428aa0 f   cinder:GLee.obj
 0001:00027ad0       _GLee_Lazy_glUniform2fvARB@12 00428ad0 f   cinder:GLee.obj
 0001:00027b00       _GLee_Lazy_glUniform3fvARB@12 00428b00 f   cinder:GLee.obj
 0001:00027b30       _GLee_Lazy_glUniform4fvARB@12 00428b30 f   cinder:GLee.obj
 0001:00027b60       _GLee_Lazy_glUniform1ivARB@12 00428b60 f   cinder:GLee.obj
 0001:00027b90       _GLee_Lazy_glUniform2ivARB@12 00428b90 f   cinder:GLee.obj
 0001:00027bc0       _GLee_Lazy_glUniform3ivARB@12 00428bc0 f   cinder:GLee.obj
 0001:00027bf0       _GLee_Lazy_glUniform4ivARB@12 00428bf0 f   cinder:GLee.obj
 0001:00027c20       _GLee_Lazy_glUniformMatrix2fvARB@16 00428c20 f   cinder:GLee.obj
 0001:00027c50       _GLee_Lazy_glUniformMatrix3fvARB@16 00428c50 f   cinder:GLee.obj
 0001:00027c80       _GLee_Lazy_glUniformMatrix4fvARB@16 00428c80 f   cinder:GLee.obj
 0001:00027cb0       _GLee_Lazy_glGetObjectParameterfvARB@12 00428cb0 f   cinder:GLee.obj
 0001:00027ce0       _GLee_Lazy_glGetObjectParameterivARB@12 00428ce0 f   cinder:GLee.obj
 0001:00027d10       _GLee_Lazy_glGetInfoLogARB@16 00428d10 f   cinder:GLee.obj
 0001:00027d40       _GLee_Lazy_glGetAttachedObjectsARB@16 00428d40 f   cinder:GLee.obj
 0001:00027d70       _GLee_Lazy_glGetUniformLocationARB@8 00428d70 f   cinder:GLee.obj
 0001:00027da0       _GLee_Lazy_glGetActiveUniformARB@28 00428da0 f   cinder:GLee.obj
 0001:00027de0       _GLee_Lazy_glGetUniformfvARB@12 00428de0 f   cinder:GLee.obj
 0001:00027e10       _GLee_Lazy_glGetUniformivARB@12 00428e10 f   cinder:GLee.obj
 0001:00027e40       _GLee_Lazy_glGetShaderSourceARB@16 00428e40 f   cinder:GLee.obj
 0001:00027e70       _GLee_Lazy_glBindAttribLocationARB@12 00428e70 f   cinder:GLee.obj
 0001:00027ea0       _GLee_Lazy_glGetActiveAttribARB@28 00428ea0 f   cinder:GLee.obj
 0001:00027ee0       _GLee_Lazy_glGetAttribLocationARB@8 00428ee0 f   cinder:GLee.obj
 0001:00027f10       _GLee_Lazy_glDrawBuffersARB@8 00428f10 f   cinder:GLee.obj
 0001:00027f40       _GLee_Lazy_glClampColorARB@8 00428f40 f   cinder:GLee.obj
 0001:00027f70       _GLee_Lazy_glDrawArraysInstancedARB@16 00428f70 f   cinder:GLee.obj
 0001:00027fa0       _GLee_Lazy_glDrawElementsInstancedARB@20 00428fa0 f   cinder:GLee.obj
 0001:00027fd0       _GLee_Lazy_glIsRenderbuffer@4 00428fd0 f   cinder:GLee.obj
 0001:00028000       _GLee_Lazy_glBindRenderbuffer@8 00429000 f   cinder:GLee.obj
 0001:00028030       _GLee_Lazy_glDeleteRenderbuffers@8 00429030 f   cinder:GLee.obj
 0001:00028060       _GLee_Lazy_glGenRenderbuffers@8 00429060 f   cinder:GLee.obj
 0001:00028090       _GLee_Lazy_glRenderbufferStorage@16 00429090 f   cinder:GLee.obj
 0001:000280c0       _GLee_Lazy_glGetRenderbufferParameteriv@12 004290c0 f   cinder:GLee.obj
 0001:000280f0       _GLee_Lazy_glIsFramebuffer@4 004290f0 f   cinder:GLee.obj
 0001:00028120       _GLee_Lazy_glBindFramebuffer@8 00429120 f   cinder:GLee.obj
 0001:00028150       _GLee_Lazy_glDeleteFramebuffers@8 00429150 f   cinder:GLee.obj
 0001:00028180       _GLee_Lazy_glGenFramebuffers@8 00429180 f   cinder:GLee.obj
 0001:000281b0       _GLee_Lazy_glCheckFramebufferStatus@4 004291b0 f   cinder:GLee.obj
 0001:000281e0       _GLee_Lazy_glFramebufferTexture1D@20 004291e0 f   cinder:GLee.obj
 0001:00028210       _GLee_Lazy_glFramebufferTexture2D@20 00429210 f   cinder:GLee.obj
 0001:00028240       _GLee_Lazy_glFramebufferTexture3D@24 00429240 f   cinder:GLee.obj
 0001:00028280       _GLee_Lazy_glFramebufferRenderbuffer@16 00429280 f   cinder:GLee.obj
 0001:000282b0       _GLee_Lazy_glGetFramebufferAttachmentParameteriv@16 004292b0 f   cinder:GLee.obj
 0001:000282e0       _GLee_Lazy_glGenerateMipmap@4 004292e0 f   cinder:GLee.obj
 0001:00028300       _GLee_Lazy_glBlitFramebuffer@40 00429300 f   cinder:GLee.obj
 0001:00028350       _GLee_Lazy_glRenderbufferStorageMultisample@20 00429350 f   cinder:GLee.obj
 0001:00028380       _GLee_Lazy_glFramebufferTextureLayer@20 00429380 f   cinder:GLee.obj
 0001:000283b0       _GLee_Lazy_glProgramParameteriARB@12 004293b0 f   cinder:GLee.obj
 0001:000283e0       _GLee_Lazy_glFramebufferTextureARB@16 004293e0 f   cinder:GLee.obj
 0001:00028410       _GLee_Lazy_glFramebufferTextureLayerARB@20 00429410 f   cinder:GLee.obj
 0001:00028440       _GLee_Lazy_glFramebufferTextureFaceARB@20 00429440 f   cinder:GLee.obj
 0001:00028470       _GLee_Lazy_glVertexAttribDivisor@8 00429470 f   cinder:GLee.obj
 0001:000284a0       _GLee_Lazy_glMapBufferRange@16 004294a0 f   cinder:GLee.obj
 0001:000284d0       _GLee_Lazy_glFlushMappedBufferRange@12 004294d0 f   cinder:GLee.obj
 0001:00028500       _GLee_Lazy_glTexBufferARB@12 00429500 f   cinder:GLee.obj
 0001:00028530       _GLee_Lazy_glBindVertexArray@4 00429530 f   cinder:GLee.obj
 0001:00028550       _GLee_Lazy_glDeleteVertexArrays@8 00429550 f   cinder:GLee.obj
 0001:00028580       _GLee_Lazy_glGenVertexArrays@8 00429580 f   cinder:GLee.obj
 0001:000285b0       _GLee_Lazy_glIsVertexArray@4 004295b0 f   cinder:GLee.obj
 0001:000285e0       _GLee_Lazy_glBlendColorEXT@16 004295e0 f   cinder:GLee.obj
 0001:00028620       _GLee_Lazy_glPolygonOffsetEXT@8 00429620 f   cinder:GLee.obj
 0001:00028650       _GLee_Lazy_glTexImage3DEXT@40 00429650 f   cinder:GLee.obj
 0001:000286a0       _GLee_Lazy_glTexSubImage3DEXT@44 004296a0 f   cinder:GLee.obj
 0001:000286f0       _GLee_Lazy_glGetTexFilterFuncSGIS@12 004296f0 f   cinder:GLee.obj
 0001:00028720       _GLee_Lazy_glTexFilterFuncSGIS@16 00429720 f   cinder:GLee.obj
 0001:00028750       _GLee_Lazy_glTexSubImage1DEXT@28 00429750 f   cinder:GLee.obj
 0001:00028790       _GLee_Lazy_glTexSubImage2DEXT@36 00429790 f   cinder:GLee.obj
 0001:000287d0       _GLee_Lazy_glCopyTexImage1DEXT@28 004297d0 f   cinder:GLee.obj
 0001:00028810       _GLee_Lazy_glCopyTexImage2DEXT@32 00429810 f   cinder:GLee.obj
 0001:00028850       _GLee_Lazy_glCopyTexSubImage1DEXT@24 00429850 f   cinder:GLee.obj
 0001:00028890       _GLee_Lazy_glCopyTexSubImage2DEXT@32 00429890 f   cinder:GLee.obj
 0001:000288d0       _GLee_Lazy_glCopyTexSubImage3DEXT@36 004298d0 f   cinder:GLee.obj
 0001:00028910       _GLee_Lazy_glGetHistogramEXT@20 00429910 f   cinder:GLee.obj
 0001:00028940       _GLee_Lazy_glGetHistogramParameterfvEXT@12 00429940 f   cinder:GLee.obj
 0001:00028970       _GLee_Lazy_glGetHistogramParameterivEXT@12 00429970 f   cinder:GLee.obj
 0001:000289a0       _GLee_Lazy_glGetMinmaxEXT@20 004299a0 f   cinder:GLee.obj
 0001:000289d0       _GLee_Lazy_glGetMinmaxParameterfvEXT@12 004299d0 f   cinder:GLee.obj
 0001:00028a00       _GLee_Lazy_glGetMinmaxParameterivEXT@12 00429a00 f   cinder:GLee.obj
 0001:00028a30       _GLee_Lazy_glHistogramEXT@16 00429a30 f   cinder:GLee.obj
 0001:00028a60       _GLee_Lazy_glMinmaxEXT@12  00429a60 f   cinder:GLee.obj
 0001:00028a90       _GLee_Lazy_glResetHistogramEXT@4 00429a90 f   cinder:GLee.obj
 0001:00028ab0       _GLee_Lazy_glResetMinmaxEXT@4 00429ab0 f   cinder:GLee.obj
 0001:00028ad0       _GLee_Lazy_glConvolutionFilter1DEXT@24 00429ad0 f   cinder:GLee.obj
 0001:00028b10       _GLee_Lazy_glConvolutionFilter2DEXT@28 00429b10 f   cinder:GLee.obj
 0001:00028b50       _GLee_Lazy_glConvolutionParameterfEXT@12 00429b50 f   cinder:GLee.obj
 0001:00028b80       _GLee_Lazy_glConvolutionParameterfvEXT@12 00429b80 f   cinder:GLee.obj
 0001:00028bb0       _GLee_Lazy_glConvolutionParameteriEXT@12 00429bb0 f   cinder:GLee.obj
 0001:00028be0       _GLee_Lazy_glConvolutionParameterivEXT@12 00429be0 f   cinder:GLee.obj
 0001:00028c10       _GLee_Lazy_glCopyConvolutionFilter1DEXT@20 00429c10 f   cinder:GLee.obj
 0001:00028c40       _GLee_Lazy_glCopyConvolutionFilter2DEXT@24 00429c40 f   cinder:GLee.obj
 0001:00028c80       _GLee_Lazy_glGetConvolutionFilterEXT@16 00429c80 f   cinder:GLee.obj
 0001:00028cb0       _GLee_Lazy_glGetConvolutionParameterfvEXT@12 00429cb0 f   cinder:GLee.obj
 0001:00028ce0       _GLee_Lazy_glGetConvolutionParameterivEXT@12 00429ce0 f   cinder:GLee.obj
 0001:00028d10       _GLee_Lazy_glGetSeparableFilterEXT@24 00429d10 f   cinder:GLee.obj
 0001:00028d50       _GLee_Lazy_glSeparableFilter2DEXT@32 00429d50 f   cinder:GLee.obj
 0001:00028d90       _GLee_Lazy_glColorTableSGI@24 00429d90 f   cinder:GLee.obj
 0001:00028dd0       _GLee_Lazy_glColorTableParameterfvSGI@12 00429dd0 f   cinder:GLee.obj
 0001:00028e00       _GLee_Lazy_glColorTableParameterivSGI@12 00429e00 f   cinder:GLee.obj
 0001:00028e30       _GLee_Lazy_glCopyColorTableSGI@20 00429e30 f   cinder:GLee.obj
 0001:00028e60       _GLee_Lazy_glGetColorTableSGI@16 00429e60 f   cinder:GLee.obj
 0001:00028e90       _GLee_Lazy_glGetColorTableParameterfvSGI@12 00429e90 f   cinder:GLee.obj
 0001:00028ec0       _GLee_Lazy_glGetColorTableParameterivSGI@12 00429ec0 f   cinder:GLee.obj
 0001:00028ef0       _GLee_Lazy_glPixelTexGenParameteriSGIS@8 00429ef0 f   cinder:GLee.obj
 0001:00028f20       _GLee_Lazy_glPixelTexGenParameterivSGIS@8 00429f20 f   cinder:GLee.obj
 0001:00028f50       _GLee_Lazy_glPixelTexGenParameterfSGIS@8 00429f50 f   cinder:GLee.obj
 0001:00028f80       _GLee_Lazy_glPixelTexGenParameterfvSGIS@8 00429f80 f   cinder:GLee.obj
 0001:00028fb0       _GLee_Lazy_glGetPixelTexGenParameterivSGIS@8 00429fb0 f   cinder:GLee.obj
 0001:00028fe0       _GLee_Lazy_glGetPixelTexGenParameterfvSGIS@8 00429fe0 f   cinder:GLee.obj
 0001:00029010       _GLee_Lazy_glPixelTexGenSGIX@4 0042a010 f   cinder:GLee.obj
 0001:00029030       _GLee_Lazy_glTexImage4DSGIS@44 0042a030 f   cinder:GLee.obj
 0001:00029080       _GLee_Lazy_glTexSubImage4DSGIS@52 0042a080 f   cinder:GLee.obj
 0001:000290d0       _GLee_Lazy_glAreTexturesResidentEXT@12 0042a0d0 f   cinder:GLee.obj
 0001:00029100       _GLee_Lazy_glBindTextureEXT@8 0042a100 f   cinder:GLee.obj
 0001:00029130       _GLee_Lazy_glDeleteTexturesEXT@8 0042a130 f   cinder:GLee.obj
 0001:00029160       _GLee_Lazy_glGenTexturesEXT@8 0042a160 f   cinder:GLee.obj
 0001:00029190       _GLee_Lazy_glIsTextureEXT@4 0042a190 f   cinder:GLee.obj
 0001:000291c0       _GLee_Lazy_glPrioritizeTexturesEXT@12 0042a1c0 f   cinder:GLee.obj
 0001:000291f0       _GLee_Lazy_glDetailTexFuncSGIS@12 0042a1f0 f   cinder:GLee.obj
 0001:00029220       _GLee_Lazy_glGetDetailTexFuncSGIS@8 0042a220 f   cinder:GLee.obj
 0001:00029250       _GLee_Lazy_glSharpenTexFuncSGIS@12 0042a250 f   cinder:GLee.obj
 0001:00029280       _GLee_Lazy_glGetSharpenTexFuncSGIS@8 0042a280 f   cinder:GLee.obj
 0001:000292b0       _GLee_Lazy_glSampleMaskSGIS@8 0042a2b0 f   cinder:GLee.obj
 0001:000292e0       _GLee_Lazy_glSamplePatternSGIS@4 0042a2e0 f   cinder:GLee.obj
 0001:00029300       _GLee_Lazy_glBlendEquationEXT@4 0042a300 f   cinder:GLee.obj
 0001:00029320       _GLee_Lazy_glSpriteParameterfSGIX@8 0042a320 f   cinder:GLee.obj
 0001:00029350       _GLee_Lazy_glSpriteParameterfvSGIX@8 0042a350 f   cinder:GLee.obj
 0001:00029380       _GLee_Lazy_glSpriteParameteriSGIX@8 0042a380 f   cinder:GLee.obj
 0001:000293b0       _GLee_Lazy_glSpriteParameterivSGIX@8 0042a3b0 f   cinder:GLee.obj
 0001:000293e0       _GLee_Lazy_glPointParameterfEXT@8 0042a3e0 f   cinder:GLee.obj
 0001:00029410       _GLee_Lazy_glPointParameterfvEXT@8 0042a410 f   cinder:GLee.obj
 0001:00029440       _GLee_Lazy_glPointParameterfSGIS@8 0042a440 f   cinder:GLee.obj
 0001:00029470       _GLee_Lazy_glPointParameterfvSGIS@8 0042a470 f   cinder:GLee.obj
 0001:000294a0       _GLee_Lazy_glGetInstrumentsSGIX@0 0042a4a0 f   cinder:GLee.obj
 0001:000294c0       _GLee_Lazy_glInstrumentsBufferSGIX@8 0042a4c0 f   cinder:GLee.obj
 0001:000294f0       _GLee_Lazy_glPollInstrumentsSGIX@4 0042a4f0 f   cinder:GLee.obj
 0001:00029520       _GLee_Lazy_glReadInstrumentsSGIX@4 0042a520 f   cinder:GLee.obj
 0001:00029540       _GLee_Lazy_glStartInstrumentsSGIX@0 0042a540 f   cinder:GLee.obj
 0001:00029560       _GLee_Lazy_glStopInstrumentsSGIX@4 0042a560 f   cinder:GLee.obj
 0001:00029580       _GLee_Lazy_glFrameZoomSGIX@4 0042a580 f   cinder:GLee.obj
 0001:000295a0       _GLee_Lazy_glTagSampleBufferSGIX@0 0042a5a0 f   cinder:GLee.obj
 0001:000295c0       _GLee_Lazy_glDeformationMap3dSGIX@80 0042a5c0 f   cinder:GLee.obj
 0001:00029630       _GLee_Lazy_glDeformationMap3fSGIX@56 0042a630 f   cinder:GLee.obj
 0001:000296a0       _GLee_Lazy_glDeformSGIX@4  0042a6a0 f   cinder:GLee.obj
 0001:000296c0       _GLee_Lazy_glLoadIdentityDeformationMapSGIX@4 0042a6c0 f   cinder:GLee.obj
 0001:000296e0       _GLee_Lazy_glReferencePlaneSGIX@4 0042a6e0 f   cinder:GLee.obj
 0001:00029700       _GLee_Lazy_glFlushRasterSGIX@0 0042a700 f   cinder:GLee.obj
 0001:00029720       _GLee_Lazy_glFogFuncSGIS@8 0042a720 f   cinder:GLee.obj
 0001:00029750       _GLee_Lazy_glGetFogFuncSGIS@4 0042a750 f   cinder:GLee.obj
 0001:00029770       _GLee_Lazy_glImageTransformParameteriHP@12 0042a770 f   cinder:GLee.obj
 0001:000297a0       _GLee_Lazy_glImageTransformParameterfHP@12 0042a7a0 f   cinder:GLee.obj
 0001:000297d0       _GLee_Lazy_glImageTransformParameterivHP@12 0042a7d0 f   cinder:GLee.obj
 0001:00029800       _GLee_Lazy_glImageTransformParameterfvHP@12 0042a800 f   cinder:GLee.obj
 0001:00029830       _GLee_Lazy_glGetImageTransformParameterivHP@12 0042a830 f   cinder:GLee.obj
 0001:00029860       _GLee_Lazy_glGetImageTransformParameterfvHP@12 0042a860 f   cinder:GLee.obj
 0001:00029890       _GLee_Lazy_glColorSubTableEXT@24 0042a890 f   cinder:GLee.obj
 0001:000298d0       _GLee_Lazy_glCopyColorSubTableEXT@20 0042a8d0 f   cinder:GLee.obj
 0001:00029900       _GLee_Lazy_glHintPGI@8     0042a900 f   cinder:GLee.obj
 0001:00029930       _GLee_Lazy_glGetListParameterfvSGIX@12 0042a930 f   cinder:GLee.obj
 0001:00029960       _GLee_Lazy_glGetListParameterivSGIX@12 0042a960 f   cinder:GLee.obj
 0001:00029990       _GLee_Lazy_glListParameterfSGIX@12 0042a990 f   cinder:GLee.obj
 0001:000299c0       _GLee_Lazy_glListParameterfvSGIX@12 0042a9c0 f   cinder:GLee.obj
 0001:000299f0       _GLee_Lazy_glListParameteriSGIX@12 0042a9f0 f   cinder:GLee.obj
 0001:00029a20       _GLee_Lazy_glListParameterivSGIX@12 0042aa20 f   cinder:GLee.obj
 0001:00029a50       _GLee_Lazy_glIndexMaterialEXT@8 0042aa50 f   cinder:GLee.obj
 0001:00029a80       _GLee_Lazy_glIndexFuncEXT@8 0042aa80 f   cinder:GLee.obj
 0001:00029ab0       _GLee_Lazy_glLockArraysEXT@8 0042aab0 f   cinder:GLee.obj
 0001:00029ae0       _GLee_Lazy_glUnlockArraysEXT@0 0042aae0 f   cinder:GLee.obj
 0001:00029b00       _GLee_Lazy_glCullParameterdvEXT@8 0042ab00 f   cinder:GLee.obj
 0001:00029b30       _GLee_Lazy_glCullParameterfvEXT@8 0042ab30 f   cinder:GLee.obj
 0001:00029b60       _GLee_Lazy_glFragmentColorMaterialSGIX@8 0042ab60 f   cinder:GLee.obj
 0001:00029b90       _GLee_Lazy_glFragmentLightfSGIX@12 0042ab90 f   cinder:GLee.obj
 0001:00029bc0       _GLee_Lazy_glFragmentLightfvSGIX@12 0042abc0 f   cinder:GLee.obj
 0001:00029bf0       _GLee_Lazy_glFragmentLightiSGIX@12 0042abf0 f   cinder:GLee.obj
 0001:00029c20       _GLee_Lazy_glFragmentLightivSGIX@12 0042ac20 f   cinder:GLee.obj
 0001:00029c50       _GLee_Lazy_glFragmentLightModelfSGIX@8 0042ac50 f   cinder:GLee.obj
 0001:00029c80       _GLee_Lazy_glFragmentLightModelfvSGIX@8 0042ac80 f   cinder:GLee.obj
 0001:00029cb0       _GLee_Lazy_glFragmentLightModeliSGIX@8 0042acb0 f   cinder:GLee.obj
 0001:00029ce0       _GLee_Lazy_glFragmentLightModelivSGIX@8 0042ace0 f   cinder:GLee.obj
 0001:00029d10       _GLee_Lazy_glFragmentMaterialfSGIX@12 0042ad10 f   cinder:GLee.obj
 0001:00029d40       _GLee_Lazy_glFragmentMaterialfvSGIX@12 0042ad40 f   cinder:GLee.obj
 0001:00029d70       _GLee_Lazy_glFragmentMaterialiSGIX@12 0042ad70 f   cinder:GLee.obj
 0001:00029da0       _GLee_Lazy_glFragmentMaterialivSGIX@12 0042ada0 f   cinder:GLee.obj
 0001:00029dd0       _GLee_Lazy_glGetFragmentLightfvSGIX@12 0042add0 f   cinder:GLee.obj
 0001:00029e00       _GLee_Lazy_glGetFragmentLightivSGIX@12 0042ae00 f   cinder:GLee.obj
 0001:00029e30       _GLee_Lazy_glGetFragmentMaterialfvSGIX@12 0042ae30 f   cinder:GLee.obj
 0001:00029e60       _GLee_Lazy_glGetFragmentMaterialivSGIX@12 0042ae60 f   cinder:GLee.obj
 0001:00029e90       _GLee_Lazy_glLightEnviSGIX@8 0042ae90 f   cinder:GLee.obj
 0001:00029ec0       _GLee_Lazy_glDrawRangeElementsEXT@24 0042aec0 f   cinder:GLee.obj
 0001:00029f00       _GLee_Lazy_glApplyTextureEXT@4 0042af00 f   cinder:GLee.obj
 0001:00029f20       _GLee_Lazy_glTextureLightEXT@4 0042af20 f   cinder:GLee.obj
 0001:00029f40       _GLee_Lazy_glTextureMaterialEXT@8 0042af40 f   cinder:GLee.obj
 0001:00029f70       _GLee_Lazy_glAsyncMarkerSGIX@4 0042af70 f   cinder:GLee.obj
 0001:00029f90       _GLee_Lazy_glFinishAsyncSGIX@4 0042af90 f   cinder:GLee.obj
 0001:00029fc0       _GLee_Lazy_glPollAsyncSGIX@4 0042afc0 f   cinder:GLee.obj
 0001:00029ff0       _GLee_Lazy_glGenAsyncMarkersSGIX@4 0042aff0 f   cinder:GLee.obj
 0001:0002a020       _GLee_Lazy_glDeleteAsyncMarkersSGIX@8 0042b020 f   cinder:GLee.obj
 0001:0002a050       _GLee_Lazy_glIsAsyncMarkerSGIX@4 0042b050 f   cinder:GLee.obj
 0001:0002a080       _GLee_Lazy_glVertexPointervINTEL@12 0042b080 f   cinder:GLee.obj
 0001:0002a0b0       _GLee_Lazy_glNormalPointervINTEL@8 0042b0b0 f   cinder:GLee.obj
 0001:0002a0e0       _GLee_Lazy_glColorPointervINTEL@12 0042b0e0 f   cinder:GLee.obj
 0001:0002a110       _GLee_Lazy_glTexCoordPointervINTEL@12 0042b110 f   cinder:GLee.obj
 0001:0002a140       _GLee_Lazy_glPixelTransformParameteriEXT@12 0042b140 f   cinder:GLee.obj
 0001:0002a170       _GLee_Lazy_glPixelTransformParameterfEXT@12 0042b170 f   cinder:GLee.obj
 0001:0002a1a0       _GLee_Lazy_glPixelTransformParameterivEXT@12 0042b1a0 f   cinder:GLee.obj
 0001:0002a1d0       _GLee_Lazy_glPixelTransformParameterfvEXT@12 0042b1d0 f   cinder:GLee.obj
 0001:0002a200       _GLee_Lazy_glSecondaryColor3bEXT@12 0042b200 f   cinder:GLee.obj
 0001:0002a230       _GLee_Lazy_glSecondaryColor3bvEXT@4 0042b230 f   cinder:GLee.obj
 0001:0002a250       _GLee_Lazy_glSecondaryColor3dEXT@24 0042b250 f   cinder:GLee.obj
 0001:0002a290       _GLee_Lazy_glSecondaryColor3dvEXT@4 0042b290 f   cinder:GLee.obj
 0001:0002a2b0       _GLee_Lazy_glSecondaryColor3fEXT@12 0042b2b0 f   cinder:GLee.obj
 0001:0002a2e0       _GLee_Lazy_glSecondaryColor3fvEXT@4 0042b2e0 f   cinder:GLee.obj
 0001:0002a300       _GLee_Lazy_glSecondaryColor3iEXT@12 0042b300 f   cinder:GLee.obj
 0001:0002a330       _GLee_Lazy_glSecondaryColor3ivEXT@4 0042b330 f   cinder:GLee.obj
 0001:0002a350       _GLee_Lazy_glSecondaryColor3sEXT@12 0042b350 f   cinder:GLee.obj
 0001:0002a380       _GLee_Lazy_glSecondaryColor3svEXT@4 0042b380 f   cinder:GLee.obj
 0001:0002a3a0       _GLee_Lazy_glSecondaryColor3ubEXT@12 0042b3a0 f   cinder:GLee.obj
 0001:0002a3d0       _GLee_Lazy_glSecondaryColor3ubvEXT@4 0042b3d0 f   cinder:GLee.obj
 0001:0002a3f0       _GLee_Lazy_glSecondaryColor3uiEXT@12 0042b3f0 f   cinder:GLee.obj
 0001:0002a420       _GLee_Lazy_glSecondaryColor3uivEXT@4 0042b420 f   cinder:GLee.obj
 0001:0002a440       _GLee_Lazy_glSecondaryColor3usEXT@12 0042b440 f   cinder:GLee.obj
 0001:0002a470       _GLee_Lazy_glSecondaryColor3usvEXT@4 0042b470 f   cinder:GLee.obj
 0001:0002a490       _GLee_Lazy_glSecondaryColorPointerEXT@16 0042b490 f   cinder:GLee.obj
 0001:0002a4c0       _GLee_Lazy_glTextureNormalEXT@4 0042b4c0 f   cinder:GLee.obj
 0001:0002a4e0       _GLee_Lazy_glMultiDrawArraysEXT@16 0042b4e0 f   cinder:GLee.obj
 0001:0002a510       _GLee_Lazy_glMultiDrawElementsEXT@20 0042b510 f   cinder:GLee.obj
 0001:0002a540       _GLee_Lazy_glFogCoordfEXT@4 0042b540 f   cinder:GLee.obj
 0001:0002a560       _GLee_Lazy_glFogCoordfvEXT@4 0042b560 f   cinder:GLee.obj
 0001:0002a580       _GLee_Lazy_glFogCoorddEXT@8 0042b580 f   cinder:GLee.obj
 0001:0002a5b0       _GLee_Lazy_glFogCoorddvEXT@4 0042b5b0 f   cinder:GLee.obj
 0001:0002a5d0       _GLee_Lazy_glFogCoordPointerEXT@12 0042b5d0 f   cinder:GLee.obj
 0001:0002a600       _GLee_Lazy_glTangent3bEXT@12 0042b600 f   cinder:GLee.obj
 0001:0002a630       _GLee_Lazy_glTangent3bvEXT@4 0042b630 f   cinder:GLee.obj
 0001:0002a650       _GLee_Lazy_glTangent3dEXT@24 0042b650 f   cinder:GLee.obj
 0001:0002a690       _GLee_Lazy_glTangent3dvEXT@4 0042b690 f   cinder:GLee.obj
 0001:0002a6b0       _GLee_Lazy_glTangent3fEXT@12 0042b6b0 f   cinder:GLee.obj
 0001:0002a6e0       _GLee_Lazy_glTangent3fvEXT@4 0042b6e0 f   cinder:GLee.obj
 0001:0002a700       _GLee_Lazy_glTangent3iEXT@12 0042b700 f   cinder:GLee.obj
 0001:0002a730       _GLee_Lazy_glTangent3ivEXT@4 0042b730 f   cinder:GLee.obj
 0001:0002a750       _GLee_Lazy_glTangent3sEXT@12 0042b750 f   cinder:GLee.obj
 0001:0002a780       _GLee_Lazy_glTangent3svEXT@4 0042b780 f   cinder:GLee.obj
 0001:0002a7a0       _GLee_Lazy_glBinormal3bEXT@12 0042b7a0 f   cinder:GLee.obj
 0001:0002a7d0       _GLee_Lazy_glBinormal3bvEXT@4 0042b7d0 f   cinder:GLee.obj
 0001:0002a7f0       _GLee_Lazy_glBinormal3dEXT@24 0042b7f0 f   cinder:GLee.obj
 0001:0002a830       _GLee_Lazy_glBinormal3dvEXT@4 0042b830 f   cinder:GLee.obj
 0001:0002a850       _GLee_Lazy_glBinormal3fEXT@12 0042b850 f   cinder:GLee.obj
 0001:0002a880       _GLee_Lazy_glBinormal3fvEXT@4 0042b880 f   cinder:GLee.obj
 0001:0002a8a0       _GLee_Lazy_glBinormal3iEXT@12 0042b8a0 f   cinder:GLee.obj
 0001:0002a8d0       _GLee_Lazy_glBinormal3ivEXT@4 0042b8d0 f   cinder:GLee.obj
 0001:0002a8f0       _GLee_Lazy_glBinormal3sEXT@12 0042b8f0 f   cinder:GLee.obj
 0001:0002a920       _GLee_Lazy_glBinormal3svEXT@4 0042b920 f   cinder:GLee.obj
 0001:0002a940       _GLee_Lazy_glTangentPointerEXT@12 0042b940 f   cinder:GLee.obj
 0001:0002a970       _GLee_Lazy_glBinormalPointerEXT@12 0042b970 f   cinder:GLee.obj
 0001:0002a9a0       _GLee_Lazy_glFinishTextureSUNX@0 0042b9a0 f   cinder:GLee.obj
 0001:0002a9c0       _GLee_Lazy_glGlobalAlphaFactorbSUN@4 0042b9c0 f   cinder:GLee.obj
 0001:0002a9e0       _GLee_Lazy_glGlobalAlphaFactorsSUN@4 0042b9e0 f   cinder:GLee.obj
 0001:0002aa00       _GLee_Lazy_glGlobalAlphaFactoriSUN@4 0042ba00 f   cinder:GLee.obj
 0001:0002aa20       _GLee_Lazy_glGlobalAlphaFactorfSUN@4 0042ba20 f   cinder:GLee.obj
 0001:0002aa40       _GLee_Lazy_glGlobalAlphaFactordSUN@8 0042ba40 f   cinder:GLee.obj
 0001:0002aa70       _GLee_Lazy_glGlobalAlphaFactorubSUN@4 0042ba70 f   cinder:GLee.obj
 0001:0002aa90       _GLee_Lazy_glGlobalAlphaFactorusSUN@4 0042ba90 f   cinder:GLee.obj
 0001:0002aab0       _GLee_Lazy_glGlobalAlphaFactoruiSUN@4 0042bab0 f   cinder:GLee.obj
 0001:0002aad0       _GLee_Lazy_glReplacementCodeuiSUN@4 0042bad0 f   cinder:GLee.obj
 0001:0002aaf0       _GLee_Lazy_glReplacementCodeusSUN@4 0042baf0 f   cinder:GLee.obj
 0001:0002ab10       _GLee_Lazy_glReplacementCodeubSUN@4 0042bb10 f   cinder:GLee.obj
 0001:0002ab30       _GLee_Lazy_glReplacementCodeuivSUN@4 0042bb30 f   cinder:GLee.obj
 0001:0002ab50       _GLee_Lazy_glReplacementCodeusvSUN@4 0042bb50 f   cinder:GLee.obj
 0001:0002ab70       _GLee_Lazy_glReplacementCodeubvSUN@4 0042bb70 f   cinder:GLee.obj
 0001:0002ab90       _GLee_Lazy_glReplacementCodePointerSUN@12 0042bb90 f   cinder:GLee.obj
 0001:0002abc0       _GLee_Lazy_glColor4ubVertex2fSUN@24 0042bbc0 f   cinder:GLee.obj
 0001:0002ac00       _GLee_Lazy_glColor4ubVertex2fvSUN@8 0042bc00 f   cinder:GLee.obj
 0001:0002ac30       _GLee_Lazy_glColor4ubVertex3fSUN@28 0042bc30 f   cinder:GLee.obj
 0001:0002ac80       _GLee_Lazy_glColor4ubVertex3fvSUN@8 0042bc80 f   cinder:GLee.obj
 0001:0002acb0       _GLee_Lazy_glColor3fVertex3fSUN@24 0042bcb0 f   cinder:GLee.obj
 0001:0002ad00       _GLee_Lazy_glColor3fVertex3fvSUN@8 0042bd00 f   cinder:GLee.obj
 0001:0002ad30       _GLee_Lazy_glNormal3fVertex3fSUN@24 0042bd30 f   cinder:GLee.obj
 0001:0002ad80       _GLee_Lazy_glNormal3fVertex3fvSUN@8 0042bd80 f   cinder:GLee.obj
 0001:0002adb0       _GLee_Lazy_glColor4fNormal3fVertex3fSUN@40 0042bdb0 f   cinder:GLee.obj
 0001:0002ae10       _GLee_Lazy_glColor4fNormal3fVertex3fvSUN@12 0042be10 f   cinder:GLee.obj
 0001:0002ae40       _GLee_Lazy_glTexCoord2fVertex3fSUN@20 0042be40 f   cinder:GLee.obj
 0001:0002ae80       _GLee_Lazy_glTexCoord2fVertex3fvSUN@8 0042be80 f   cinder:GLee.obj
 0001:0002aeb0       _GLee_Lazy_glTexCoord4fVertex4fSUN@32 0042beb0 f   cinder:GLee.obj
 0001:0002af10       _GLee_Lazy_glTexCoord4fVertex4fvSUN@8 0042bf10 f   cinder:GLee.obj
 0001:0002af40       _GLee_Lazy_glTexCoord2fColor4ubVertex3fSUN@36 0042bf40 f   cinder:GLee.obj
 0001:0002af90       _GLee_Lazy_glTexCoord2fColor4ubVertex3fvSUN@12 0042bf90 f   cinder:GLee.obj
 0001:0002afc0       _GLee_Lazy_glTexCoord2fColor3fVertex3fSUN@32 0042bfc0 f   cinder:GLee.obj
 0001:0002b020       _GLee_Lazy_glTexCoord2fColor3fVertex3fvSUN@12 0042c020 f   cinder:GLee.obj
 0001:0002b050       _GLee_Lazy_glTexCoord2fNormal3fVertex3fSUN@32 0042c050 f   cinder:GLee.obj
 0001:0002b0b0       _GLee_Lazy_glTexCoord2fNormal3fVertex3fvSUN@12 0042c0b0 f   cinder:GLee.obj
 0001:0002b0e0       _GLee_Lazy_glTexCoord2fColor4fNormal3fVertex3fSUN@48 0042c0e0 f   cinder:GLee.obj
 0001:0002b150       _GLee_Lazy_glTexCoord2fColor4fNormal3fVertex3fvSUN@16 0042c150 f   cinder:GLee.obj
 0001:0002b180       _GLee_Lazy_glTexCoord4fColor4fNormal3fVertex4fSUN@60 0042c180 f   cinder:GLee.obj
 0001:0002b210       _GLee_Lazy_glTexCoord4fColor4fNormal3fVertex4fvSUN@16 0042c210 f   cinder:GLee.obj
 0001:0002b240       _GLee_Lazy_glReplacementCodeuiVertex3fSUN@16 0042c240 f   cinder:GLee.obj
 0001:0002b280       _GLee_Lazy_glReplacementCodeuiVertex3fvSUN@8 0042c280 f   cinder:GLee.obj
 0001:0002b2b0       _GLee_Lazy_glReplacementCodeuiColor4ubVertex3fSUN@32 0042c2b0 f   cinder:GLee.obj
 0001:0002b300       _GLee_Lazy_glReplacementCodeuiColor4ubVertex3fvSUN@12 0042c300 f   cinder:GLee.obj
 0001:0002b330       _GLee_Lazy_glReplacementCodeuiColor3fVertex3fSUN@28 0042c330 f   cinder:GLee.obj
 0001:0002b380       _GLee_Lazy_glReplacementCodeuiColor3fVertex3fvSUN@12 0042c380 f   cinder:GLee.obj
 0001:0002b3b0       _GLee_Lazy_glReplacementCodeuiNormal3fVertex3fSUN@28 0042c3b0 f   cinder:GLee.obj
 0001:0002b400       _GLee_Lazy_glReplacementCodeuiNormal3fVertex3fvSUN@12 0042c400 f   cinder:GLee.obj
 0001:0002b430       _GLee_Lazy_glReplacementCodeuiColor4fNormal3fVertex3fSUN@44 0042c430 f   cinder:GLee.obj
 0001:0002b4a0       _GLee_Lazy_glReplacementCodeuiColor4fNormal3fVertex3fvSUN@16 0042c4a0 f   cinder:GLee.obj
 0001:0002b4d0       _GLee_Lazy_glReplacementCodeuiTexCoord2fVertex3fSUN@24 0042c4d0 f   cinder:GLee.obj
 0001:0002b510       _GLee_Lazy_glReplacementCodeuiTexCoord2fVertex3fvSUN@12 0042c510 f   cinder:GLee.obj
 0001:0002b540       _GLee_Lazy_glReplacementCodeuiTexCoord2fNormal3fVertex3fSUN@36 0042c540 f   cinder:GLee.obj
 0001:0002b5a0       _GLee_Lazy_glReplacementCodeuiTexCoord2fNormal3fVertex3fvSUN@16 0042c5a0 f   cinder:GLee.obj
 0001:0002b5d0       _GLee_Lazy_glReplacementCodeuiTexCoord2fColor4fNormal3fVertex3fSUN@52 0042c5d0 f   cinder:GLee.obj
 0001:0002b650       _GLee_Lazy_glReplacementCodeuiTexCoord2fColor4fNormal3fVertex3fvSUN@20 0042c650 f   cinder:GLee.obj
 0001:0002b680       _GLee_Lazy_glBlendFuncSeparateEXT@16 0042c680 f   cinder:GLee.obj
 0001:0002b6b0       _GLee_Lazy_glVertexWeightfEXT@4 0042c6b0 f   cinder:GLee.obj
 0001:0002b6d0       _GLee_Lazy_glVertexWeightfvEXT@4 0042c6d0 f   cinder:GLee.obj
 0001:0002b6f0       _GLee_Lazy_glVertexWeightPointerEXT@16 0042c6f0 f   cinder:GLee.obj
 0001:0002b720       _GLee_Lazy_glFlushVertexArrayRangeNV@0 0042c720 f   cinder:GLee.obj
 0001:0002b740       _GLee_Lazy_glVertexArrayRangeNV@8 0042c740 f   cinder:GLee.obj
 0001:0002b770       _GLee_Lazy_glCombinerParameterfvNV@8 0042c770 f   cinder:GLee.obj
 0001:0002b7a0       _GLee_Lazy_glCombinerParameterfNV@8 0042c7a0 f   cinder:GLee.obj
 0001:0002b7d0       _GLee_Lazy_glCombinerParameterivNV@8 0042c7d0 f   cinder:GLee.obj
 0001:0002b800       _GLee_Lazy_glCombinerParameteriNV@8 0042c800 f   cinder:GLee.obj
 0001:0002b830       _GLee_Lazy_glCombinerInputNV@24 0042c830 f   cinder:GLee.obj
 0001:0002b870       _GLee_Lazy_glCombinerOutputNV@40 0042c870 f   cinder:GLee.obj
 0001:0002b8c0       _GLee_Lazy_glFinalCombinerInputNV@16 0042c8c0 f   cinder:GLee.obj
 0001:0002b8f0       _GLee_Lazy_glGetCombinerInputParameterfvNV@20 0042c8f0 f   cinder:GLee.obj
 0001:0002b920       _GLee_Lazy_glGetCombinerInputParameterivNV@20 0042c920 f   cinder:GLee.obj
 0001:0002b950       _GLee_Lazy_glGetCombinerOutputParameterfvNV@16 0042c950 f   cinder:GLee.obj
 0001:0002b980       _GLee_Lazy_glGetCombinerOutputParameterivNV@16 0042c980 f   cinder:GLee.obj
 0001:0002b9b0       _GLee_Lazy_glGetFinalCombinerInputParameterfvNV@12 0042c9b0 f   cinder:GLee.obj
 0001:0002b9e0       _GLee_Lazy_glGetFinalCombinerInputParameterivNV@12 0042c9e0 f   cinder:GLee.obj
 0001:0002ba10       _GLee_Lazy_glResizeBuffersMESA@0 0042ca10 f   cinder:GLee.obj
 0001:0002ba30       _GLee_Lazy_glWindowPos2dMESA@16 0042ca30 f   cinder:GLee.obj
 0001:0002ba60       _GLee_Lazy_glWindowPos2dvMESA@4 0042ca60 f   cinder:GLee.obj
 0001:0002ba80       _GLee_Lazy_glWindowPos2fMESA@8 0042ca80 f   cinder:GLee.obj
 0001:0002bab0       _GLee_Lazy_glWindowPos2fvMESA@4 0042cab0 f   cinder:GLee.obj
 0001:0002bad0       _GLee_Lazy_glWindowPos2iMESA@8 0042cad0 f   cinder:GLee.obj
 0001:0002bb00       _GLee_Lazy_glWindowPos2ivMESA@4 0042cb00 f   cinder:GLee.obj
 0001:0002bb20       _GLee_Lazy_glWindowPos2sMESA@8 0042cb20 f   cinder:GLee.obj
 0001:0002bb50       _GLee_Lazy_glWindowPos2svMESA@4 0042cb50 f   cinder:GLee.obj
 0001:0002bb70       _GLee_Lazy_glWindowPos3dMESA@24 0042cb70 f   cinder:GLee.obj
 0001:0002bbb0       _GLee_Lazy_glWindowPos3dvMESA@4 0042cbb0 f   cinder:GLee.obj
 0001:0002bbd0       _GLee_Lazy_glWindowPos3fMESA@12 0042cbd0 f   cinder:GLee.obj
 0001:0002bc00       _GLee_Lazy_glWindowPos3fvMESA@4 0042cc00 f   cinder:GLee.obj
 0001:0002bc20       _GLee_Lazy_glWindowPos3iMESA@12 0042cc20 f   cinder:GLee.obj
 0001:0002bc50       _GLee_Lazy_glWindowPos3ivMESA@4 0042cc50 f   cinder:GLee.obj
 0001:0002bc70       _GLee_Lazy_glWindowPos3sMESA@12 0042cc70 f   cinder:GLee.obj
 0001:0002bca0       _GLee_Lazy_glWindowPos3svMESA@4 0042cca0 f   cinder:GLee.obj
 0001:0002bcc0       _GLee_Lazy_glWindowPos4dMESA@32 0042ccc0 f   cinder:GLee.obj
 0001:0002bd00       _GLee_Lazy_glWindowPos4dvMESA@4 0042cd00 f   cinder:GLee.obj
 0001:0002bd20       _GLee_Lazy_glWindowPos4fMESA@16 0042cd20 f   cinder:GLee.obj
 0001:0002bd60       _GLee_Lazy_glWindowPos4fvMESA@4 0042cd60 f   cinder:GLee.obj
 0001:0002bd80       _GLee_Lazy_glWindowPos4iMESA@16 0042cd80 f   cinder:GLee.obj
 0001:0002bdb0       _GLee_Lazy_glWindowPos4ivMESA@4 0042cdb0 f   cinder:GLee.obj
 0001:0002bdd0       _GLee_Lazy_glWindowPos4sMESA@16 0042cdd0 f   cinder:GLee.obj
 0001:0002be00       _GLee_Lazy_glWindowPos4svMESA@4 0042ce00 f   cinder:GLee.obj
 0001:0002be20       _GLee_Lazy_glMultiModeDrawArraysIBM@20 0042ce20 f   cinder:GLee.obj
 0001:0002be50       _GLee_Lazy_glMultiModeDrawElementsIBM@24 0042ce50 f   cinder:GLee.obj
 0001:0002be90       _GLee_Lazy_glColorPointerListIBM@20 0042ce90 f   cinder:GLee.obj
 0001:0002bec0       _GLee_Lazy_glSecondaryColorPointerListIBM@20 0042cec0 f   cinder:GLee.obj
 0001:0002bef0       _GLee_Lazy_glEdgeFlagPointerListIBM@12 0042cef0 f   cinder:GLee.obj
 0001:0002bf20       _GLee_Lazy_glFogCoordPointerListIBM@16 0042cf20 f   cinder:GLee.obj
 0001:0002bf50       _GLee_Lazy_glIndexPointerListIBM@16 0042cf50 f   cinder:GLee.obj
 0001:0002bf80       _GLee_Lazy_glNormalPointerListIBM@16 0042cf80 f   cinder:GLee.obj
 0001:0002bfb0       _GLee_Lazy_glTexCoordPointerListIBM@20 0042cfb0 f   cinder:GLee.obj
 0001:0002bfe0       _GLee_Lazy_glVertexPointerListIBM@20 0042cfe0 f   cinder:GLee.obj
 0001:0002c010       _GLee_Lazy_glTbufferMask3DFX@4 0042d010 f   cinder:GLee.obj
 0001:0002c030       _GLee_Lazy_glSampleMaskEXT@8 0042d030 f   cinder:GLee.obj
 0001:0002c060       _GLee_Lazy_glSamplePatternEXT@4 0042d060 f   cinder:GLee.obj
 0001:0002c080       _GLee_Lazy_glTextureColorMaskSGIS@16 0042d080 f   cinder:GLee.obj
 0001:0002c0b0       _GLee_Lazy_glDeleteFencesNV@8 0042d0b0 f   cinder:GLee.obj
 0001:0002c0e0       _GLee_Lazy_glGenFencesNV@8 0042d0e0 f   cinder:GLee.obj
 0001:0002c110       _GLee_Lazy_glIsFenceNV@4   0042d110 f   cinder:GLee.obj
 0001:0002c140       _GLee_Lazy_glTestFenceNV@4 0042d140 f   cinder:GLee.obj
 0001:0002c170       _GLee_Lazy_glGetFenceivNV@12 0042d170 f   cinder:GLee.obj
 0001:0002c1a0       _GLee_Lazy_glFinishFenceNV@4 0042d1a0 f   cinder:GLee.obj
 0001:0002c1c0       _GLee_Lazy_glSetFenceNV@8  0042d1c0 f   cinder:GLee.obj
 0001:0002c1f0       _GLee_Lazy_glMapControlPointsNV@36 0042d1f0 f   cinder:GLee.obj
 0001:0002c230       _GLee_Lazy_glMapParameterivNV@12 0042d230 f   cinder:GLee.obj
 0001:0002c260       _GLee_Lazy_glMapParameterfvNV@12 0042d260 f   cinder:GLee.obj
 0001:0002c290       _GLee_Lazy_glGetMapControlPointsNV@28 0042d290 f   cinder:GLee.obj
 0001:0002c2d0       _GLee_Lazy_glGetMapParameterivNV@12 0042d2d0 f   cinder:GLee.obj
 0001:0002c300       _GLee_Lazy_glGetMapParameterfvNV@12 0042d300 f   cinder:GLee.obj
 0001:0002c330       _GLee_Lazy_glGetMapAttribParameterivNV@16 0042d330 f   cinder:GLee.obj
 0001:0002c360       _GLee_Lazy_glGetMapAttribParameterfvNV@16 0042d360 f   cinder:GLee.obj
 0001:0002c390       _GLee_Lazy_glEvalMapsNV@8  0042d390 f   cinder:GLee.obj
 0001:0002c3c0       _GLee_Lazy_glCombinerStageParameterfvNV@12 0042d3c0 f   cinder:GLee.obj
 0001:0002c3f0       _GLee_Lazy_glGetCombinerStageParameterfvNV@12 0042d3f0 f   cinder:GLee.obj
 0001:0002c420       _GLee_Lazy_glAreProgramsResidentNV@12 0042d420 f   cinder:GLee.obj
 0001:0002c450       _GLee_Lazy_glBindProgramNV@8 0042d450 f   cinder:GLee.obj
 0001:0002c480       _GLee_Lazy_glDeleteProgramsNV@8 0042d480 f   cinder:GLee.obj
 0001:0002c4b0       _GLee_Lazy_glExecuteProgramNV@12 0042d4b0 f   cinder:GLee.obj
 0001:0002c4e0       _GLee_Lazy_glGenProgramsNV@8 0042d4e0 f   cinder:GLee.obj
 0001:0002c510       _GLee_Lazy_glGetProgramParameterdvNV@16 0042d510 f   cinder:GLee.obj
 0001:0002c540       _GLee_Lazy_glGetProgramParameterfvNV@16 0042d540 f   cinder:GLee.obj
 0001:0002c570       _GLee_Lazy_glGetProgramivNV@12 0042d570 f   cinder:GLee.obj
 0001:0002c5a0       _GLee_Lazy_glGetProgramStringNV@12 0042d5a0 f   cinder:GLee.obj
 0001:0002c5d0       _GLee_Lazy_glGetTrackMatrixivNV@16 0042d5d0 f   cinder:GLee.obj
 0001:0002c600       _GLee_Lazy_glGetVertexAttribdvNV@12 0042d600 f   cinder:GLee.obj
 0001:0002c630       _GLee_Lazy_glGetVertexAttribfvNV@12 0042d630 f   cinder:GLee.obj
 0001:0002c660       _GLee_Lazy_glGetVertexAttribivNV@12 0042d660 f   cinder:GLee.obj
 0001:0002c690       _GLee_Lazy_glGetVertexAttribPointervNV@12 0042d690 f   cinder:GLee.obj
 0001:0002c6c0       _GLee_Lazy_glIsProgramNV@4 0042d6c0 f   cinder:GLee.obj
 0001:0002c6f0       _GLee_Lazy_glLoadProgramNV@16 0042d6f0 f   cinder:GLee.obj
 0001:0002c720       _GLee_Lazy_glProgramParameter4dNV@40 0042d720 f   cinder:GLee.obj
 0001:0002c770       _GLee_Lazy_glProgramParameter4dvNV@12 0042d770 f   cinder:GLee.obj
 0001:0002c7a0       _GLee_Lazy_glProgramParameter4fNV@24 0042d7a0 f   cinder:GLee.obj
 0001:0002c7e0       _GLee_Lazy_glProgramParameter4fvNV@12 0042d7e0 f   cinder:GLee.obj
 0001:0002c810       _GLee_Lazy_glProgramParameters4dvNV@16 0042d810 f   cinder:GLee.obj
 0001:0002c840       _GLee_Lazy_glProgramParameters4fvNV@16 0042d840 f   cinder:GLee.obj
 0001:0002c870       _GLee_Lazy_glRequestResidentProgramsNV@8 0042d870 f   cinder:GLee.obj
 0001:0002c8a0       _GLee_Lazy_glTrackMatrixNV@16 0042d8a0 f   cinder:GLee.obj
 0001:0002c8d0       _GLee_Lazy_glVertexAttribPointerNV@20 0042d8d0 f   cinder:GLee.obj
 0001:0002c900       _GLee_Lazy_glVertexAttrib1dNV@12 0042d900 f   cinder:GLee.obj
 0001:0002c930       _GLee_Lazy_glVertexAttrib1dvNV@8 0042d930 f   cinder:GLee.obj
 0001:0002c960       _GLee_Lazy_glVertexAttrib1fNV@8 0042d960 f   cinder:GLee.obj
 0001:0002c990       _GLee_Lazy_glVertexAttrib1fvNV@8 0042d990 f   cinder:GLee.obj
 0001:0002c9c0       _GLee_Lazy_glVertexAttrib1sNV@8 0042d9c0 f   cinder:GLee.obj
 0001:0002c9f0       _GLee_Lazy_glVertexAttrib1svNV@8 0042d9f0 f   cinder:GLee.obj
 0001:0002ca20       _GLee_Lazy_glVertexAttrib2dNV@20 0042da20 f   cinder:GLee.obj
 0001:0002ca50       _GLee_Lazy_glVertexAttrib2dvNV@8 0042da50 f   cinder:GLee.obj
 0001:0002ca80       _GLee_Lazy_glVertexAttrib2fNV@12 0042da80 f   cinder:GLee.obj
 0001:0002cab0       _GLee_Lazy_glVertexAttrib2fvNV@8 0042dab0 f   cinder:GLee.obj
 0001:0002cae0       _GLee_Lazy_glVertexAttrib2sNV@12 0042dae0 f   cinder:GLee.obj
 0001:0002cb10       _GLee_Lazy_glVertexAttrib2svNV@8 0042db10 f   cinder:GLee.obj
 0001:0002cb40       _GLee_Lazy_glVertexAttrib3dNV@28 0042db40 f   cinder:GLee.obj
 0001:0002cb80       _GLee_Lazy_glVertexAttrib3dvNV@8 0042db80 f   cinder:GLee.obj
 0001:0002cbb0       _GLee_Lazy_glVertexAttrib3fNV@16 0042dbb0 f   cinder:GLee.obj
 0001:0002cbf0       _GLee_Lazy_glVertexAttrib3fvNV@8 0042dbf0 f   cinder:GLee.obj
 0001:0002cc20       _GLee_Lazy_glVertexAttrib3sNV@16 0042dc20 f   cinder:GLee.obj
 0001:0002cc50       _GLee_Lazy_glVertexAttrib3svNV@8 0042dc50 f   cinder:GLee.obj
 0001:0002cc80       _GLee_Lazy_glVertexAttrib4dNV@36 0042dc80 f   cinder:GLee.obj
 0001:0002ccd0       _GLee_Lazy_glVertexAttrib4dvNV@8 0042dcd0 f   cinder:GLee.obj
 0001:0002cd00       _GLee_Lazy_glVertexAttrib4fNV@20 0042dd00 f   cinder:GLee.obj
 0001:0002cd40       _GLee_Lazy_glVertexAttrib4fvNV@8 0042dd40 f   cinder:GLee.obj
 0001:0002cd70       _GLee_Lazy_glVertexAttrib4sNV@20 0042dd70 f   cinder:GLee.obj
 0001:0002cdb0       _GLee_Lazy_glVertexAttrib4svNV@8 0042ddb0 f   cinder:GLee.obj
 0001:0002cde0       _GLee_Lazy_glVertexAttrib4ubNV@20 0042dde0 f   cinder:GLee.obj
 0001:0002ce20       _GLee_Lazy_glVertexAttrib4ubvNV@8 0042de20 f   cinder:GLee.obj
 0001:0002ce50       _GLee_Lazy_glVertexAttribs1dvNV@12 0042de50 f   cinder:GLee.obj
 0001:0002ce80       _GLee_Lazy_glVertexAttribs1fvNV@12 0042de80 f   cinder:GLee.obj
 0001:0002ceb0       _GLee_Lazy_glVertexAttribs1svNV@12 0042deb0 f   cinder:GLee.obj
 0001:0002cee0       _GLee_Lazy_glVertexAttribs2dvNV@12 0042dee0 f   cinder:GLee.obj
 0001:0002cf10       _GLee_Lazy_glVertexAttribs2fvNV@12 0042df10 f   cinder:GLee.obj
 0001:0002cf40       _GLee_Lazy_glVertexAttribs2svNV@12 0042df40 f   cinder:GLee.obj
 0001:0002cf70       _GLee_Lazy_glVertexAttribs3dvNV@12 0042df70 f   cinder:GLee.obj
 0001:0002cfa0       _GLee_Lazy_glVertexAttribs3fvNV@12 0042dfa0 f   cinder:GLee.obj
 0001:0002cfd0       _GLee_Lazy_glVertexAttribs3svNV@12 0042dfd0 f   cinder:GLee.obj
 0001:0002d000       _GLee_Lazy_glVertexAttribs4dvNV@12 0042e000 f   cinder:GLee.obj
 0001:0002d030       _GLee_Lazy_glVertexAttribs4fvNV@12 0042e030 f   cinder:GLee.obj
 0001:0002d060       _GLee_Lazy_glVertexAttribs4svNV@12 0042e060 f   cinder:GLee.obj
 0001:0002d090       _GLee_Lazy_glVertexAttribs4ubvNV@12 0042e090 f   cinder:GLee.obj
 0001:0002d0c0       _GLee_Lazy_glTexBumpParameterivATI@8 0042e0c0 f   cinder:GLee.obj
 0001:0002d0f0       _GLee_Lazy_glTexBumpParameterfvATI@8 0042e0f0 f   cinder:GLee.obj
 0001:0002d120       _GLee_Lazy_glGetTexBumpParameterivATI@8 0042e120 f   cinder:GLee.obj
 0001:0002d150       _GLee_Lazy_glGetTexBumpParameterfvATI@8 0042e150 f   cinder:GLee.obj
 0001:0002d180       _GLee_Lazy_glGenFragmentShadersATI@4 0042e180 f   cinder:GLee.obj
 0001:0002d1b0       _GLee_Lazy_glBindFragmentShaderATI@4 0042e1b0 f   cinder:GLee.obj
 0001:0002d1d0       _GLee_Lazy_glDeleteFragmentShaderATI@4 0042e1d0 f   cinder:GLee.obj
 0001:0002d1f0       _GLee_Lazy_glBeginFragmentShaderATI@0 0042e1f0 f   cinder:GLee.obj
 0001:0002d210       _GLee_Lazy_glEndFragmentShaderATI@0 0042e210 f   cinder:GLee.obj
 0001:0002d230       _GLee_Lazy_glPassTexCoordATI@12 0042e230 f   cinder:GLee.obj
 0001:0002d260       _GLee_Lazy_glSampleMapATI@12 0042e260 f   cinder:GLee.obj
 0001:0002d290       _GLee_Lazy_glColorFragmentOp1ATI@28 0042e290 f   cinder:GLee.obj
 0001:0002d2d0       _GLee_Lazy_glColorFragmentOp2ATI@40 0042e2d0 f   cinder:GLee.obj
 0001:0002d320       _GLee_Lazy_glColorFragmentOp3ATI@52 0042e320 f   cinder:GLee.obj
 0001:0002d370       _GLee_Lazy_glAlphaFragmentOp1ATI@24 0042e370 f   cinder:GLee.obj
 0001:0002d3b0       _GLee_Lazy_glAlphaFragmentOp2ATI@36 0042e3b0 f   cinder:GLee.obj
 0001:0002d3f0       _GLee_Lazy_glAlphaFragmentOp3ATI@48 0042e3f0 f   cinder:GLee.obj
 0001:0002d440       _GLee_Lazy_glSetFragmentShaderConstantATI@8 0042e440 f   cinder:GLee.obj
 0001:0002d470       _GLee_Lazy_glPNTrianglesiATI@8 0042e470 f   cinder:GLee.obj
 0001:0002d4a0       _GLee_Lazy_glPNTrianglesfATI@8 0042e4a0 f   cinder:GLee.obj
 0001:0002d4d0       _GLee_Lazy_glNewObjectBufferATI@12 0042e4d0 f   cinder:GLee.obj
 0001:0002d500       _GLee_Lazy_glIsObjectBufferATI@4 0042e500 f   cinder:GLee.obj
 0001:0002d530       _GLee_Lazy_glUpdateObjectBufferATI@20 0042e530 f   cinder:GLee.obj
 0001:0002d560       _GLee_Lazy_glGetObjectBufferfvATI@12 0042e560 f   cinder:GLee.obj
 0001:0002d590       _GLee_Lazy_glGetObjectBufferivATI@12 0042e590 f   cinder:GLee.obj
 0001:0002d5c0       _GLee_Lazy_glFreeObjectBufferATI@4 0042e5c0 f   cinder:GLee.obj
 0001:0002d5e0       _GLee_Lazy_glArrayObjectATI@24 0042e5e0 f   cinder:GLee.obj
 0001:0002d620       _GLee_Lazy_glGetArrayObjectfvATI@12 0042e620 f   cinder:GLee.obj
 0001:0002d650       _GLee_Lazy_glGetArrayObjectivATI@12 0042e650 f   cinder:GLee.obj
 0001:0002d680       _GLee_Lazy_glVariantArrayObjectATI@20 0042e680 f   cinder:GLee.obj
 0001:0002d6b0       _GLee_Lazy_glGetVariantArrayObjectfvATI@12 0042e6b0 f   cinder:GLee.obj
 0001:0002d6e0       _GLee_Lazy_glGetVariantArrayObjectivATI@12 0042e6e0 f   cinder:GLee.obj
 0001:0002d710       _GLee_Lazy_glBeginVertexShaderEXT@0 0042e710 f   cinder:GLee.obj
 0001:0002d730       _GLee_Lazy_glEndVertexShaderEXT@0 0042e730 f   cinder:GLee.obj
 0001:0002d750       _GLee_Lazy_glBindVertexShaderEXT@4 0042e750 f   cinder:GLee.obj
 0001:0002d770       _GLee_Lazy_glGenVertexShadersEXT@4 0042e770 f   cinder:GLee.obj
 0001:0002d7a0       _GLee_Lazy_glDeleteVertexShaderEXT@4 0042e7a0 f   cinder:GLee.obj
 0001:0002d7c0       _GLee_Lazy_glShaderOp1EXT@12 0042e7c0 f   cinder:GLee.obj
 0001:0002d7f0       _GLee_Lazy_glShaderOp2EXT@16 0042e7f0 f   cinder:GLee.obj
 0001:0002d820       _GLee_Lazy_glShaderOp3EXT@20 0042e820 f   cinder:GLee.obj
 0001:0002d850       _GLee_Lazy_glSwizzleEXT@24 0042e850 f   cinder:GLee.obj
 0001:0002d890       _GLee_Lazy_glWriteMaskEXT@24 0042e890 f   cinder:GLee.obj
 0001:0002d8d0       _GLee_Lazy_glInsertComponentEXT@12 0042e8d0 f   cinder:GLee.obj
 0001:0002d900       _GLee_Lazy_glExtractComponentEXT@12 0042e900 f   cinder:GLee.obj
 0001:0002d930       _GLee_Lazy_glGenSymbolsEXT@16 0042e930 f   cinder:GLee.obj
 0001:0002d960       _GLee_Lazy_glSetInvariantEXT@12 0042e960 f   cinder:GLee.obj
 0001:0002d990       _GLee_Lazy_glSetLocalConstantEXT@12 0042e990 f   cinder:GLee.obj
 0001:0002d9c0       _GLee_Lazy_glVariantbvEXT@8 0042e9c0 f   cinder:GLee.obj
 0001:0002d9f0       _GLee_Lazy_glVariantsvEXT@8 0042e9f0 f   cinder:GLee.obj
 0001:0002da20       _GLee_Lazy_glVariantivEXT@8 0042ea20 f   cinder:GLee.obj
 0001:0002da50       _GLee_Lazy_glVariantfvEXT@8 0042ea50 f   cinder:GLee.obj
 0001:0002da80       _GLee_Lazy_glVariantdvEXT@8 0042ea80 f   cinder:GLee.obj
 0001:0002dab0       _GLee_Lazy_glVariantubvEXT@8 0042eab0 f   cinder:GLee.obj
 0001:0002dae0       _GLee_Lazy_glVariantusvEXT@8 0042eae0 f   cinder:GLee.obj
 0001:0002db10       _GLee_Lazy_glVariantuivEXT@8 0042eb10 f   cinder:GLee.obj
 0001:0002db40       _GLee_Lazy_glVariantPointerEXT@16 0042eb40 f   cinder:GLee.obj
 0001:0002db70       _GLee_Lazy_glEnableVariantClientStateEXT@4 0042eb70 f   cinder:GLee.obj
 0001:0002db90       _GLee_Lazy_glDisableVariantClientStateEXT@4 0042eb90 f   cinder:GLee.obj
 0001:0002dbb0       _GLee_Lazy_glBindLightParameterEXT@8 0042ebb0 f   cinder:GLee.obj
 0001:0002dbe0       _GLee_Lazy_glBindMaterialParameterEXT@8 0042ebe0 f   cinder:GLee.obj
 0001:0002dc10       _GLee_Lazy_glBindTexGenParameterEXT@12 0042ec10 f   cinder:GLee.obj
 0001:0002dc40       _GLee_Lazy_glBindTextureUnitParameterEXT@8 0042ec40 f   cinder:GLee.obj
 0001:0002dc70       _GLee_Lazy_glBindParameterEXT@4 0042ec70 f   cinder:GLee.obj
 0001:0002dca0       _GLee_Lazy_glIsVariantEnabledEXT@8 0042eca0 f   cinder:GLee.obj
 0001:0002dcd0       _GLee_Lazy_glGetVariantBooleanvEXT@12 0042ecd0 f   cinder:GLee.obj
 0001:0002dd00       _GLee_Lazy_glGetVariantIntegervEXT@12 0042ed00 f   cinder:GLee.obj
 0001:0002dd30       _GLee_Lazy_glGetVariantFloatvEXT@12 0042ed30 f   cinder:GLee.obj
 0001:0002dd60       _GLee_Lazy_glGetVariantPointervEXT@12 0042ed60 f   cinder:GLee.obj
 0001:0002dd90       _GLee_Lazy_glGetInvariantBooleanvEXT@12 0042ed90 f   cinder:GLee.obj
 0001:0002ddc0       _GLee_Lazy_glGetInvariantIntegervEXT@12 0042edc0 f   cinder:GLee.obj
 0001:0002ddf0       _GLee_Lazy_glGetInvariantFloatvEXT@12 0042edf0 f   cinder:GLee.obj
 0001:0002de20       _GLee_Lazy_glGetLocalConstantBooleanvEXT@12 0042ee20 f   cinder:GLee.obj
 0001:0002de50       _GLee_Lazy_glGetLocalConstantIntegervEXT@12 0042ee50 f   cinder:GLee.obj
 0001:0002de80       _GLee_Lazy_glGetLocalConstantFloatvEXT@12 0042ee80 f   cinder:GLee.obj
 0001:0002deb0       _GLee_Lazy_glVertexStream1sATI@8 0042eeb0 f   cinder:GLee.obj
 0001:0002dee0       _GLee_Lazy_glVertexStream1svATI@8 0042eee0 f   cinder:GLee.obj
 0001:0002df10       _GLee_Lazy_glVertexStream1iATI@8 0042ef10 f   cinder:GLee.obj
 0001:0002df40       _GLee_Lazy_glVertexStream1ivATI@8 0042ef40 f   cinder:GLee.obj
 0001:0002df70       _GLee_Lazy_glVertexStream1fATI@8 0042ef70 f   cinder:GLee.obj
 0001:0002dfa0       _GLee_Lazy_glVertexStream1fvATI@8 0042efa0 f   cinder:GLee.obj
 0001:0002dfd0       _GLee_Lazy_glVertexStream1dATI@12 0042efd0 f   cinder:GLee.obj
 0001:0002e000       _GLee_Lazy_glVertexStream1dvATI@8 0042f000 f   cinder:GLee.obj
 0001:0002e030       _GLee_Lazy_glVertexStream2sATI@12 0042f030 f   cinder:GLee.obj
 0001:0002e060       _GLee_Lazy_glVertexStream2svATI@8 0042f060 f   cinder:GLee.obj
 0001:0002e090       _GLee_Lazy_glVertexStream2iATI@12 0042f090 f   cinder:GLee.obj
 0001:0002e0c0       _GLee_Lazy_glVertexStream2ivATI@8 0042f0c0 f   cinder:GLee.obj
 0001:0002e0f0       _GLee_Lazy_glVertexStream2fATI@12 0042f0f0 f   cinder:GLee.obj
 0001:0002e120       _GLee_Lazy_glVertexStream2fvATI@8 0042f120 f   cinder:GLee.obj
 0001:0002e150       _GLee_Lazy_glVertexStream2dATI@20 0042f150 f   cinder:GLee.obj
 0001:0002e180       _GLee_Lazy_glVertexStream2dvATI@8 0042f180 f   cinder:GLee.obj
 0001:0002e1b0       _GLee_Lazy_glVertexStream3sATI@16 0042f1b0 f   cinder:GLee.obj
 0001:0002e1e0       _GLee_Lazy_glVertexStream3svATI@8 0042f1e0 f   cinder:GLee.obj
 0001:0002e210       _GLee_Lazy_glVertexStream3iATI@16 0042f210 f   cinder:GLee.obj
 0001:0002e240       _GLee_Lazy_glVertexStream3ivATI@8 0042f240 f   cinder:GLee.obj
 0001:0002e270       _GLee_Lazy_glVertexStream3fATI@16 0042f270 f   cinder:GLee.obj
 0001:0002e2b0       _GLee_Lazy_glVertexStream3fvATI@8 0042f2b0 f   cinder:GLee.obj
 0001:0002e2e0       _GLee_Lazy_glVertexStream3dATI@28 0042f2e0 f   cinder:GLee.obj
 0001:0002e320       _GLee_Lazy_glVertexStream3dvATI@8 0042f320 f   cinder:GLee.obj
 0001:0002e350       _GLee_Lazy_glVertexStream4sATI@20 0042f350 f   cinder:GLee.obj
 0001:0002e390       _GLee_Lazy_glVertexStream4svATI@8 0042f390 f   cinder:GLee.obj
 0001:0002e3c0       _GLee_Lazy_glVertexStream4iATI@20 0042f3c0 f   cinder:GLee.obj
 0001:0002e3f0       _GLee_Lazy_glVertexStream4ivATI@8 0042f3f0 f   cinder:GLee.obj
 0001:0002e420       _GLee_Lazy_glVertexStream4fATI@20 0042f420 f   cinder:GLee.obj
 0001:0002e460       _GLee_Lazy_glVertexStream4fvATI@8 0042f460 f   cinder:GLee.obj
 0001:0002e490       _GLee_Lazy_glVertexStream4dATI@36 0042f490 f   cinder:GLee.obj
 0001:0002e4e0       _GLee_Lazy_glVertexStream4dvATI@8 0042f4e0 f   cinder:GLee.obj
 0001:0002e510       _GLee_Lazy_glNormalStream3bATI@16 0042f510 f   cinder:GLee.obj
 0001:0002e540       _GLee_Lazy_glNormalStream3bvATI@8 0042f540 f   cinder:GLee.obj
 0001:0002e570       _GLee_Lazy_glNormalStream3sATI@16 0042f570 f   cinder:GLee.obj
 0001:0002e5a0       _GLee_Lazy_glNormalStream3svATI@8 0042f5a0 f   cinder:GLee.obj
 0001:0002e5d0       _GLee_Lazy_glNormalStream3iATI@16 0042f5d0 f   cinder:GLee.obj
 0001:0002e600       _GLee_Lazy_glNormalStream3ivATI@8 0042f600 f   cinder:GLee.obj
 0001:0002e630       _GLee_Lazy_glNormalStream3fATI@16 0042f630 f   cinder:GLee.obj
 0001:0002e670       _GLee_Lazy_glNormalStream3fvATI@8 0042f670 f   cinder:GLee.obj
 0001:0002e6a0       _GLee_Lazy_glNormalStream3dATI@28 0042f6a0 f   cinder:GLee.obj
 0001:0002e6e0       _GLee_Lazy_glNormalStream3dvATI@8 0042f6e0 f   cinder:GLee.obj
 0001:0002e710       _GLee_Lazy_glClientActiveVertexStreamATI@4 0042f710 f   cinder:GLee.obj
 0001:0002e730       _GLee_Lazy_glVertexBlendEnviATI@8 0042f730 f   cinder:GLee.obj
 0001:0002e760       _GLee_Lazy_glVertexBlendEnvfATI@8 0042f760 f   cinder:GLee.obj
 0001:0002e790       _GLee_Lazy_glElementPointerATI@8 0042f790 f   cinder:GLee.obj
 0001:0002e7c0       _GLee_Lazy_glDrawElementArrayATI@8 0042f7c0 f   cinder:GLee.obj
 0001:0002e7f0       _GLee_Lazy_glDrawRangeElementArrayATI@16 0042f7f0 f   cinder:GLee.obj
 0001:0002e820       _GLee_Lazy_glDrawMeshArraysSUN@16 0042f820 f   cinder:GLee.obj
 0001:0002e850       _GLee_Lazy_glGenOcclusionQueriesNV@8 0042f850 f   cinder:GLee.obj
 0001:0002e880       _GLee_Lazy_glDeleteOcclusionQueriesNV@8 0042f880 f   cinder:GLee.obj
 0001:0002e8b0       _GLee_Lazy_glIsOcclusionQueryNV@4 0042f8b0 f   cinder:GLee.obj
 0001:0002e8e0       _GLee_Lazy_glBeginOcclusionQueryNV@4 0042f8e0 f   cinder:GLee.obj
 0001:0002e900       _GLee_Lazy_glEndOcclusionQueryNV@0 0042f900 f   cinder:GLee.obj
 0001:0002e920       _GLee_Lazy_glGetOcclusionQueryivNV@12 0042f920 f   cinder:GLee.obj
 0001:0002e950       _GLee_Lazy_glGetOcclusionQueryuivNV@12 0042f950 f   cinder:GLee.obj
 0001:0002e980       _GLee_Lazy_glPointParameteriNV@8 0042f980 f   cinder:GLee.obj
 0001:0002e9b0       _GLee_Lazy_glPointParameterivNV@8 0042f9b0 f   cinder:GLee.obj
 0001:0002e9e0       _GLee_Lazy_glActiveStencilFaceEXT@4 0042f9e0 f   cinder:GLee.obj
 0001:0002ea00       _GLee_Lazy_glElementPointerAPPLE@8 0042fa00 f   cinder:GLee.obj
 0001:0002ea30       _GLee_Lazy_glDrawElementArrayAPPLE@12 0042fa30 f   cinder:GLee.obj
 0001:0002ea60       _GLee_Lazy_glDrawRangeElementArrayAPPLE@20 0042fa60 f   cinder:GLee.obj
 0001:0002ea90       _GLee_Lazy_glMultiDrawElementArrayAPPLE@16 0042fa90 f   cinder:GLee.obj
 0001:0002eac0       _GLee_Lazy_glMultiDrawRangeElementArrayAPPLE@24 0042fac0 f   cinder:GLee.obj
 0001:0002eb00       _GLee_Lazy_glGenFencesAPPLE@8 0042fb00 f   cinder:GLee.obj
 0001:0002eb30       _GLee_Lazy_glDeleteFencesAPPLE@8 0042fb30 f   cinder:GLee.obj
 0001:0002eb60       _GLee_Lazy_glSetFenceAPPLE@4 0042fb60 f   cinder:GLee.obj
 0001:0002eb80       _GLee_Lazy_glIsFenceAPPLE@4 0042fb80 f   cinder:GLee.obj
 0001:0002ebb0       _GLee_Lazy_glTestFenceAPPLE@4 0042fbb0 f   cinder:GLee.obj
 0001:0002ebe0       _GLee_Lazy_glFinishFenceAPPLE@4 0042fbe0 f   cinder:GLee.obj
 0001:0002ec00       _GLee_Lazy_glTestObjectAPPLE@8 0042fc00 f   cinder:GLee.obj
 0001:0002ec30       _GLee_Lazy_glFinishObjectAPPLE@8 0042fc30 f   cinder:GLee.obj
 0001:0002ec60       _GLee_Lazy_glBindVertexArrayAPPLE@4 0042fc60 f   cinder:GLee.obj
 0001:0002ec80       _GLee_Lazy_glDeleteVertexArraysAPPLE@8 0042fc80 f   cinder:GLee.obj
 0001:0002ecb0       _GLee_Lazy_glGenVertexArraysAPPLE@8 0042fcb0 f   cinder:GLee.obj
 0001:0002ece0       _GLee_Lazy_glIsVertexArrayAPPLE@4 0042fce0 f   cinder:GLee.obj
 0001:0002ed10       _GLee_Lazy_glVertexArrayRangeAPPLE@8 0042fd10 f   cinder:GLee.obj
 0001:0002ed40       _GLee_Lazy_glFlushVertexArrayRangeAPPLE@8 0042fd40 f   cinder:GLee.obj
 0001:0002ed70       _GLee_Lazy_glVertexArrayParameteriAPPLE@8 0042fd70 f   cinder:GLee.obj
 0001:0002eda0       _GLee_Lazy_glDrawBuffersATI@8 0042fda0 f   cinder:GLee.obj
 0001:0002edd0       _GLee_Lazy_glProgramNamedParameter4fNV@28 0042fdd0 f   cinder:GLee.obj
 0001:0002ee20       _GLee_Lazy_glProgramNamedParameter4dNV@44 0042fe20 f   cinder:GLee.obj
 0001:0002ee70       _GLee_Lazy_glProgramNamedParameter4fvNV@16 0042fe70 f   cinder:GLee.obj
 0001:0002eea0       _GLee_Lazy_glProgramNamedParameter4dvNV@16 0042fea0 f   cinder:GLee.obj
 0001:0002eed0       _GLee_Lazy_glGetProgramNamedParameterfvNV@16 0042fed0 f   cinder:GLee.obj
 0001:0002ef00       _GLee_Lazy_glGetProgramNamedParameterdvNV@16 0042ff00 f   cinder:GLee.obj
 0001:0002ef30       _GLee_Lazy_glVertex2hNV@8  0042ff30 f   cinder:GLee.obj
 0001:0002ef60       _GLee_Lazy_glVertex2hvNV@4 0042ff60 f   cinder:GLee.obj
 0001:0002ef80       _GLee_Lazy_glVertex3hNV@12 0042ff80 f   cinder:GLee.obj
 0001:0002efb0       _GLee_Lazy_glVertex3hvNV@4 0042ffb0 f   cinder:GLee.obj
 0001:0002efd0       _GLee_Lazy_glVertex4hNV@16 0042ffd0 f   cinder:GLee.obj
 0001:0002f000       _GLee_Lazy_glVertex4hvNV@4 00430000 f   cinder:GLee.obj
 0001:0002f020       _GLee_Lazy_glNormal3hNV@12 00430020 f   cinder:GLee.obj
 0001:0002f050       _GLee_Lazy_glNormal3hvNV@4 00430050 f   cinder:GLee.obj
 0001:0002f070       _GLee_Lazy_glColor3hNV@12  00430070 f   cinder:GLee.obj
 0001:0002f0a0       _GLee_Lazy_glColor3hvNV@4  004300a0 f   cinder:GLee.obj
 0001:0002f0c0       _GLee_Lazy_glColor4hNV@16  004300c0 f   cinder:GLee.obj
 0001:0002f0f0       _GLee_Lazy_glColor4hvNV@4  004300f0 f   cinder:GLee.obj
 0001:0002f110       _GLee_Lazy_glTexCoord1hNV@4 00430110 f   cinder:GLee.obj
 0001:0002f130       _GLee_Lazy_glTexCoord1hvNV@4 00430130 f   cinder:GLee.obj
 0001:0002f150       _GLee_Lazy_glTexCoord2hNV@8 00430150 f   cinder:GLee.obj
 0001:0002f180       _GLee_Lazy_glTexCoord2hvNV@4 00430180 f   cinder:GLee.obj
 0001:0002f1a0       _GLee_Lazy_glTexCoord3hNV@12 004301a0 f   cinder:GLee.obj
 0001:0002f1d0       _GLee_Lazy_glTexCoord3hvNV@4 004301d0 f   cinder:GLee.obj
 0001:0002f1f0       _GLee_Lazy_glTexCoord4hNV@16 004301f0 f   cinder:GLee.obj
 0001:0002f220       _GLee_Lazy_glTexCoord4hvNV@4 00430220 f   cinder:GLee.obj
 0001:0002f240       _GLee_Lazy_glMultiTexCoord1hNV@8 00430240 f   cinder:GLee.obj
 0001:0002f270       _GLee_Lazy_glMultiTexCoord1hvNV@8 00430270 f   cinder:GLee.obj
 0001:0002f2a0       _GLee_Lazy_glMultiTexCoord2hNV@12 004302a0 f   cinder:GLee.obj
 0001:0002f2d0       _GLee_Lazy_glMultiTexCoord2hvNV@8 004302d0 f   cinder:GLee.obj
 0001:0002f300       _GLee_Lazy_glMultiTexCoord3hNV@16 00430300 f   cinder:GLee.obj
 0001:0002f330       _GLee_Lazy_glMultiTexCoord3hvNV@8 00430330 f   cinder:GLee.obj
 0001:0002f360       _GLee_Lazy_glMultiTexCoord4hNV@20 00430360 f   cinder:GLee.obj
 0001:0002f3a0       _GLee_Lazy_glMultiTexCoord4hvNV@8 004303a0 f   cinder:GLee.obj
 0001:0002f3d0       _GLee_Lazy_glFogCoordhNV@4 004303d0 f   cinder:GLee.obj
 0001:0002f3f0       _GLee_Lazy_glFogCoordhvNV@4 004303f0 f   cinder:GLee.obj
